 DipServer

 Timestamp is 637a05b9 (Sun Nov 20 13:47:21 2022)

 Preferred load address is 10000000

 Start         Length     Name                   Class
 0001:00000000 0000de90H .text$di                CODE
 0001:0000de90 0011dbe0H .text$mn                CODE
 0001:0012ba70 00005000H .text$x                 CODE
 0001:00130a70 00001420H .text$yd                CODE
 0002:00000000 00000104H .CRT$XCA                DATA
 0002:00000104 00000104H .CRT$XCC                DATA
 0002:00000208 00000134H .CRT$XCU                DATA
 0002:0000033c 00000104H .CRT$XCZ                DATA
 0002:00000440 00000104H .CRT$XIA                DATA
 0002:00000544 00000114H .CRT$XIC                DATA
 0002:00000658 00000104H .CRT$XIZ                DATA
 0002:0000075c 00000004H .CRT$XLA                DATA
 0002:00000760 00000004H .CRT$XLZ                DATA
 0002:00000764 00000104H .CRT$XPA                DATA
 0002:00000868 0000010cH .CRT$XPX                DATA
 0002:00000974 00000104H .CRT$XPXA               DATA
 0002:00000a78 00000104H .CRT$XPZ                DATA
 0002:00000b7c 00000104H .CRT$XTA                DATA
 0002:00000c80 00000110H .CRT$XTZ                DATA
 0002:00000d90 00029070H .rdata                  DATA
 0002:00029e00 00000180H .rdata$CastGuardVftablesA DATA
 0002:00029f80 0000014cH .rdata$CastGuardVftablesC DATA
 0002:0002a0cc 0000011cH .rdata$T                DATA
 0002:0002a1e8 00000f18H .rdata$r                DATA
 0002:0002b100 000005c4H .rdata$sxdata           DATA
 0002:0002b6c4 0000015cH .rdata$zzzdbg           DATA
 0002:0002b820 00000104H .rtc$IAA                DATA
 0002:0002b924 00000140H .rtc$IMZ                DATA
 0002:0002ba64 00000104H .rtc$IZZ                DATA
 0002:0002bb68 00000104H .rtc$TAA                DATA
 0002:0002bc6c 00000140H .rtc$TMZ                DATA
 0002:0002bdac 00000104H .rtc$TZZ                DATA
 0002:0002beb0 00004520H .xdata$x                DATA
 0002:000303d0 00001d08H .edata                  DATA
 0003:00000000 00000cbcH .data                   DATA
 0003:00000cbc 000004b0H .data$r                 DATA
 0003:0000116c 000002ecH .data$rs                DATA
 0003:00001458 00198b8cH .bss                    DATA
 0004:00000000 00000bb4H .idata$5                DATA
 0004:00000bb4 00000050H .idata$2                DATA
 0004:00000c04 00000014H .idata$3                DATA
 0004:00000c18 00000bb4H .idata$4                DATA
 0004:000017cc 00004cabH .idata$6                DATA
 0005:00000000 00000104H .tls                    DATA
 0005:00000104 00000104H .tls$                   DATA
 0005:00000208 00000101H .tls$ZZZ                DATA
 0006:00000000 0000010eH .00cfg                  DATA
 0007:00000000 00000170H .rsrc$01                DATA
 0007:00000170 000002ccH .rsrc$02                DATA

  Address         Publics by Value              Rva+Base       Lib:Object

 0000:00000000       ___AbsoluteZero            00000000     <absolute>
 0000:00000000       ___arm64x_extra_rfe_table  00000000     <absolute>
 0000:00000000       ___arm64x_extra_rfe_table_size 00000000     <absolute>
 0000:00000000       ___arm64x_native_entrypoint 00000000     <absolute>
 0000:00000000       ___arm64x_redirection_metadata 00000000     <absolute>
 0000:00000000       ___arm64x_redirection_metadata_count 00000000     <absolute>
 0000:00000000       ___dynamic_value_reloc_table 00000000     <absolute>
 0000:00000000       ___enclave_config          00000000     <absolute>
 0000:00000000       ___guard_check_icall_a64n_fptr 00000000     <absolute>
 0000:00000000       ___guard_eh_cont_count     00000000     <absolute>
 0000:00000000       ___guard_eh_cont_table     00000000     <absolute>
 0000:00000000       ___guard_fids_count        00000000     <absolute>
 0000:00000000       ___guard_fids_table        00000000     <absolute>
 0000:00000000       ___guard_iat_count         00000000     <absolute>
 0000:00000000       ___guard_iat_table         00000000     <absolute>
 0000:00000000       ___guard_longjmp_count     00000000     <absolute>
 0000:00000000       ___guard_longjmp_table     00000000     <absolute>
 0000:00000000       ___hybrid_auxiliary_iat    00000000     <absolute>
 0000:00000000       ___hybrid_auxiliary_iat_copy 00000000     <absolute>
 0000:00000000       ___hybrid_code_map         00000000     <absolute>
 0000:00000000       ___hybrid_code_map_count   00000000     <absolute>
 0000:00000000       ___volatile_metadata       00000000     <absolute>
 0000:00000000       ___x64_code_ranges_to_entry_points 00000000     <absolute>
 0000:00000000       ___x64_code_ranges_to_entry_points_count 00000000     <absolute>
 0000:00000000       __except_list              00000000     <absolute>
 0000:0000002c       __tls_array                0000002c     <absolute>
 0000:000000fe       ___safe_se_handler_count   000000fe     <absolute>
 0000:00000100       ___guard_flags             00000100     <absolute>
 0000:00000000       ___ImageBase               10000000     <linker-defined>
 0001:0000de90       ??0AForm@@QAE@XZ           1000ee90 f   AForm.obj
 0001:0000dec0       ??1AForm@@UAE@XZ           1000eec0 f   AForm.obj
 0001:0000def0       ??_EAForm@@UAEPAXI@Z       1000eef0 f i AForm.obj
 0001:0000def0       ??_GAForm@@UAEPAXI@Z       1000eef0 f i AForm.obj
 0001:0000df60       ??$_get_cmemb@VBaseResources@@@@YAPAVBaseResources@@PAV0@PBD@Z 1000ef60 f i BasicDiploRelation.obj
 0001:0000e170       ??$_get_cmemb@V_bool@@@@YAPAV_bool@@PAV0@PBD@Z 1000f170 f i BasicDiploRelation.obj
 0001:0000e3c0       ??$_get_cmemb@V_byte_index@@@@YAPAV_byte_index@@PAV0@PBD@Z 1000f3c0 f i BasicDiploRelation.obj
 0001:0000e610       ??$_get_cmemb@V_gpfile@@@@YAPAV_gpfile@@PAV0@PBD@Z 1000f610 f i BasicDiploRelation.obj
 0001:0000e860       ??$_get_cmemb@V_int@@@@YAPAV_int@@PAV0@PBD@Z 1000f860 f i BasicDiploRelation.obj
 0001:0000eab0       ??$_get_cmemb@V_textid@@@@YAPAV_textid@@PAV0@PBD@Z 1000fab0 f i BasicDiploRelation.obj
 0001:0000ed00       ??$reg_auto@VBaseResources@@@@YAXPAVBaseClass@@AAVBaseResources@@PBDPAXK@Z 1000fd00 f i BasicDiploRelation.obj
 0001:0000eeb0       ??$reg_class@VBaseResources@@@@YAXPAVBaseResources@@PAD@Z 1000feb0 f i BasicDiploRelation.obj
 0001:0000ef20       ??$reg_class@V_bool@@@@YAXPAV_bool@@PAD@Z 1000ff20 f i BasicDiploRelation.obj
 0001:0000ef90       ??$reg_class@V_byte_index@@@@YAXPAV_byte_index@@PAD@Z 1000ff90 f i BasicDiploRelation.obj
 0001:0000f000       ??$reg_class@V_gpfile@@@@YAXPAV_gpfile@@PAD@Z 10010000 f i BasicDiploRelation.obj
 0001:0000f070       ??$reg_class@V_int@@@@YAXPAV_int@@PAD@Z 10010070 f i BasicDiploRelation.obj
 0001:0000f0e0       ??$reg_class@V_textid@@@@YAXPAV_textid@@PAD@Z 100100e0 f i BasicDiploRelation.obj
 0001:0000f150       ??$reg_class_auto@VBaseResources@@@@YAXPAVBaseResources@@PAD@Z 10010150 f i BasicDiploRelation.obj
 0001:0000f1c0       ??0?$ClassArray@VSetlUpgrade@@@@QAE@ABV0@@Z 100101c0 f i BasicDiploRelation.obj
 0001:0000f260       ??0?$ClassArray@VSetlUpgrade@@@@QAE@XZ 10010260 f i BasicDiploRelation.obj
 0001:0000f320       ??0?$DynArray@PAVSetlUpgrade@@$0P@@@QAE@XZ 10010320 f i BasicDiploRelation.obj
 0001:0000f370       ??0BaseResources@@QAE@XZ   10010370 f i BasicDiploRelation.obj
 0001:0000f3e0       ??0BasicDiploRelation@@QAE@$$QAV0@@Z 100103e0 f i BasicDiploRelation.obj
 0001:0000f4f0       ??0BasicDiploRelation@@QAE@ABV0@@Z 100104f0 f i BasicDiploRelation.obj
 0001:0000f600       ??0BasicDiploRelation@@QAE@XZ 10010600 f i BasicDiploRelation.obj
 0001:0000f630       ??0DIP_SimpleBuilding@@QAE@$$QAV0@@Z 10010630 f i BasicDiploRelation.obj
 0001:0000ff40       ??0DIP_SimpleBuilding@@QAE@ABV0@@Z 10010f40 f i BasicDiploRelation.obj
 0001:00010850       ??0DIP_SimpleBuilding@@QAE@XZ 10011850 f i BasicDiploRelation.obj
 0001:000108c0       ??0SetlUpgrade@@QAE@XZ     100118c0 f i BasicDiploRelation.obj
 0001:00010990       ??1?$ClassArray@VSetlUpgrade@@@@UAE@XZ 10011990 f i BasicDiploRelation.obj
 0001:00010a50       ??1?$DynArray@PAVSetlUpgrade@@$0P@@@QAE@XZ 10011a50 f i BasicDiploRelation.obj
 0001:00010ae0       ??1BaseResources@@UAE@XZ   10011ae0 f i BasicDiploRelation.obj
 0001:00010b40       ??1DIP_SimpleBuilding@@QAE@XZ 10011b40 f i BasicDiploRelation.obj
 0001:00010ba0       ??1Entry@?$Hash@VStr_for_hash@@$0BAB@$0BAA@@@QAE@XZ 10011ba0 f i BasicDiploRelation.obj
 0001:00010bf0       ??1Entry@?$Hash@VStr_for_hash@@$0EAD@$0EAA@@@QAE@XZ 10011bf0 f i BasicDiploRelation.obj
 0001:00010c40       ??1SetlUpgrade@@UAE@XZ     10011c40 f i BasicDiploRelation.obj
 0001:00010cc0       ??1Str_for_hash@@QAE@XZ    10011cc0 f i BasicDiploRelation.obj
 0001:00010ce0       ??2@YAPAXI@Z               10011ce0 f i BasicDiploRelation.obj
 0001:00010d40       ??3@YAXPAX@Z               10011d40 f i BasicDiploRelation.obj
 0001:00010dd0       ??4?$ClassArray@VSetlUpgrade@@@@QAEAAV0@ABV0@@Z 10011dd0 f i BasicDiploRelation.obj
 0001:00010e60       ??4BasicDiploRelation@@QAEAAV0@$$QAV0@@Z 10011e60 f i BasicDiploRelation.obj
 0001:00010fa0       ??4BasicDiploRelation@@QAEAAV0@ABV0@@Z 10011fa0 f i BasicDiploRelation.obj
 0001:000110e0       ??4DIP_SimpleBuilding@@QAEAAV0@$$QAV0@@Z 100120e0 f i BasicDiploRelation.obj
 0001:00011cf0       ??4DIP_SimpleBuilding@@QAEAAV0@ABV0@@Z 10012cf0 f i BasicDiploRelation.obj
 0001:00012900       ??A?$DynArray@PAVOneClassMemberStorage@@$0P@@@QAEAAPAVOneClassMemberStorage@@H@Z 10013900 f i BasicDiploRelation.obj
 0001:000129c0       ??A?$DynArray@PAVSetlUpgrade@@$0P@@@QAEAAPAVSetlUpgrade@@H@Z 100139c0 f i BasicDiploRelation.obj
 0001:00012a80       ??ABaseResources@@QAEAAHH@Z 10013a80 f i BasicDiploRelation.obj
 0001:00012b60       ??_EEntry@?$Hash@VStr_for_hash@@$0BAB@$0BAA@@@QAEPAXI@Z 10013b60 f i BasicDiploRelation.obj
 0001:00012c70       ??_EEntry@?$Hash@VStr_for_hash@@$0EAD@$0EAA@@@QAEPAXI@Z 10013c70 f i BasicDiploRelation.obj
 0001:00012d80       ??_E?$ClassArray@VSetlUpgrade@@@@UAEPAXI@Z 10013d80 f i BasicDiploRelation.obj
 0001:00012d80       ??_G?$ClassArray@VSetlUpgrade@@@@UAEPAXI@Z 10013d80 f i BasicDiploRelation.obj
 0001:00012df0       ??_EBaseResources@@UAEPAXI@Z 10013df0 f i BasicDiploRelation.obj
 0001:00012df0       ??_GBaseResources@@UAEPAXI@Z 10013df0 f i BasicDiploRelation.obj
 0001:00012e60       ??_ESetlUpgrade@@UAEPAXI@Z 10013e60 f i BasicDiploRelation.obj
 0001:00012e60       ??_GSetlUpgrade@@UAEPAXI@Z 10013e60 f i BasicDiploRelation.obj
 0001:00012ed0       ??_E_bool@@UAEPAXI@Z       10013ed0 f i BasicDiploRelation.obj
 0001:00012ed0       ??_G_bool@@UAEPAXI@Z       10013ed0 f i BasicDiploRelation.obj
 0001:00012f50       ??_E_byte_index@@UAEPAXI@Z 10013f50 f i BasicDiploRelation.obj
 0001:00012f50       ??_G_byte_index@@UAEPAXI@Z 10013f50 f i BasicDiploRelation.obj
 0001:00012fd0       ??_E_gpfile@@UAEPAXI@Z     10013fd0 f i BasicDiploRelation.obj
 0001:00012fd0       ??_G_gpfile@@UAEPAXI@Z     10013fd0 f i BasicDiploRelation.obj
 0001:00013050       ??_E_int@@UAEPAXI@Z        10014050 f i BasicDiploRelation.obj
 0001:00013050       ??_G_int@@UAEPAXI@Z        10014050 f i BasicDiploRelation.obj
 0001:000130d0       ??_E_textid@@UAEPAXI@Z     100140d0 f i BasicDiploRelation.obj
 0001:000130d0       ??_G_textid@@UAEPAXI@Z     100140d0 f i BasicDiploRelation.obj
 0001:00013150       ??_H@YGXPAXIIP6EPAX0@Z@Z   10014150 f i BasicDiploRelation.obj
 0001:00013200       ??_U@YAPAXI@Z              10014200 f i BasicDiploRelation.obj
 0001:00013260       ??_V@YAXPAX@Z              10014260 f i BasicDiploRelation.obj
 0001:000132f0       ?Add@?$ClassArray@VSetlUpgrade@@@@QAEHPAVSetlUpgrade@@@Z 100142f0 f i BasicDiploRelation.obj
 0001:00013390       ?Add@?$DynArray@PAVSetlUpgrade@@$0P@@@QAEHABQAVSetlUpgrade@@@Z 10014390 f i BasicDiploRelation.obj
 0001:00013420       ?Check@?$DynArray@PAVSetlUpgrade@@$0P@@@QAEXH@Z 10014420 f i BasicDiploRelation.obj
 0001:00013530       ?CheckDirectCasting@?$ClassArray@VSetlUpgrade@@@@UAE_NXZ 10014530 f i BasicDiploRelation.obj
 0001:00013550       ?CheckDirectCasting@BaseResources@@UAE_NXZ 10014550 f i BasicDiploRelation.obj
 0001:00013570       ?CheckDirectCasting@SetlUpgrade@@UAE_NXZ 10014570 f i BasicDiploRelation.obj
 0001:00013590       ?Clear@?$DynArray@PAVSetlUpgrade@@$0P@@@QAEXXZ 10014590 f i BasicDiploRelation.obj
 0001:00013620       ?ConvTypeName@@YAPADAAVDString@@@Z 10014620 f i BasicDiploRelation.obj
 0001:00013720       ?Del@?$DynArray@PAVSetlUpgrade@@$0P@@@QAEXHH@Z 10014720 f i BasicDiploRelation.obj
 0001:00013820       ?DelElement@?$ClassArray@VSetlUpgrade@@@@UAE_NH@Z 10014820 f i BasicDiploRelation.obj
 0001:00013920       ?ExpandWith@?$ClassArray@VSetlUpgrade@@@@UAEHPBDPAX@Z 10014920 f i BasicDiploRelation.obj
 0001:00013a30       ?Free@BasicDiploRelation@@UAEXXZ 10014a30 f   BasicDiploRelation.obj
 0001:00013a50       ?FullCopy@?$ClassArray@VSetlUpgrade@@@@UAE_NPAX0PAVBaseClass@@00PAVCopyContex@@@Z 10014a50 f i BasicDiploRelation.obj
 0001:00013bc0       ?GetAmount@?$DynArray@PAVOneClassMemberStorage@@$0P@@@QBEHXZ 10014bc0 f i BasicDiploRelation.obj
 0001:00013bf0       ?GetAmount@?$DynArray@PAVSetlUpgrade@@$0P@@@QBEHXZ 10014bf0 f i BasicDiploRelation.obj
 0001:00013c20       ?GetAmountOfElements@?$ClassArray@VSetlUpgrade@@@@UAEHXZ 10014c20 f i BasicDiploRelation.obj
 0001:00013c70       ?GetAmountOfPropositions@BasicDiploRelation@@UAEHXZ 10014c70 f   BasicDiploRelation.obj
 0001:00013c90       ?GetClassNameA@?$ClassArray@VSetlUpgrade@@@@UAEPBDXZ 10014c90 f i BasicDiploRelation.obj
 0001:00013e30       ?GetClassNameA@BaseResources@@UAEPBDXZ 10014e30 f i BasicDiploRelation.obj
 0001:00013e60       ?GetClassNameA@SetlUpgrade@@UAEPBDXZ 10014e60 f i BasicDiploRelation.obj
 0001:00013e90       ?GetClassStorage@?$ClassArray@VSetlUpgrade@@@@UAEPAVOneClassStorage@@XZ 10014e90 f i BasicDiploRelation.obj
 0001:00013f40       ?GetClassStorage@BaseResources@@UAEPAVOneClassStorage@@XZ 10014f40 f i BasicDiploRelation.obj
 0001:00013ff0       ?GetClassStorage@SetlUpgrade@@UAEPAVOneClassStorage@@XZ 10014ff0 f i BasicDiploRelation.obj
 0001:000140a0       ?GetElementClass@?$ClassArray@VSetlUpgrade@@@@UAEPAVBaseClass@@H@Z 100150a0 f i BasicDiploRelation.obj
 0001:00014100       ?GetElementID@?$ClassArray@VSetlUpgrade@@@@UAEPBDH@Z 10015100 f i BasicDiploRelation.obj
 0001:000141c0       ?GetElementPtr@?$ClassArray@VSetlUpgrade@@@@UAEPAXHPAX@Z 100151c0 f i BasicDiploRelation.obj
 0001:00014220       ?GetExpansionBaseClass@?$ClassArray@VSetlUpgrade@@@@UAEPBDXZ 10015220 f i BasicDiploRelation.obj
 0001:00014320       ?GetExpansionRules@?$ClassArray@VSetlUpgrade@@@@UAEHXZ 10015320 f i BasicDiploRelation.obj
 0001:00014350       ?GetPossibility@BasicDiploRelation@@UAEKHPAD0@Z 10015350 f   BasicDiploRelation.obj
 0001:00014370       ?GetSaveData@BasicDiploRelation@@UAEHPAE_N@Z 10015370 f   BasicDiploRelation.obj
 0001:00014390       ?GetValues@?$DynArray@PAVSetlUpgrade@@$0P@@@QBEPAPAVSetlUpgrade@@XZ 10015390 f i BasicDiploRelation.obj
 0001:000143c0       ?Init@BasicDiploRelation@@UAEXXZ 100153c0 f   BasicDiploRelation.obj
 0001:00014440       ?InitThisTribe2@BasicDiploRelation@@UAEXPAD000@Z 10015440 f   BasicDiploRelation.obj
 0001:00014460       ?InitThisTribe@BasicDiploRelation@@UAEXPAD00@Z 10015460 f   BasicDiploRelation.obj
 0001:00014480       ?LoadBin@?$ClassArray@VSetlUpgrade@@@@UAEXPAX0PAVBinStream@@PAVEnumerator@@@Z 10015480 f i BasicDiploRelation.obj
 0001:00014670       ?Move@?$DynArray@PAVSetlUpgrade@@$0P@@@QAE_NHH@Z 10015670 f i BasicDiploRelation.obj
 0001:000147c0       ?MoveElement@?$ClassArray@VSetlUpgrade@@@@UAE_NHD@Z 100157c0 f i BasicDiploRelation.obj
 0001:00014830       ?PerformCommand@BasicDiploRelation@@UAEXPADH@Z 10015830 f   BasicDiploRelation.obj
 0001:00014850       ?PerformPossibility@BasicDiploRelation@@UAEXK@Z 10015850 f   BasicDiploRelation.obj
 0001:00014870       ?ProcessTribe@BasicDiploRelation@@UAEXXZ 10015870 f   BasicDiploRelation.obj
 0001:00014890       ?RegisterMembers@BaseResources@@UAEXXZ 10015890 f i BasicDiploRelation.obj
 0001:000150f0       ?RegisterMembers@SetlUpgrade@@UAEXXZ 100160f0 f i BasicDiploRelation.obj
 0001:00016450       ?SaveBin@?$ClassArray@VSetlUpgrade@@@@UAEXPAX0PAVBinStream@@PAVEnumerator@@2@Z 10017450 f i BasicDiploRelation.obj
 0001:00016650       ?SetSaveData@BasicDiploRelation@@UAEXPAEH@Z 10017650 f   BasicDiploRelation.obj
 0001:00016670       ?name@type_info@@QBEPBDXZ  10017670 f i BasicDiploRelation.obj
 0001:000166d0       ?new_element@?$ClassArray@VSetlUpgrade@@@@UAEPAVBaseClass@@XZ 100176d0 f i BasicDiploRelation.obj
 0001:000167e0       ?new_element@BaseResources@@UAEPAVBaseClass@@XZ 100177e0 f i BasicDiploRelation.obj
 0001:00016a10       ?new_element@SetlUpgrade@@UAEPAVBaseClass@@XZ 10017a10 f i BasicDiploRelation.obj
 0001:00016c40       ?reset_class@?$ClassArray@VSetlUpgrade@@@@UAEXPAX@Z 10017c40 f i BasicDiploRelation.obj
 0001:00016e30       ?setlUpgIsRun@DIP_SimpleBuilding@@QAE_NEH@Z 10017e30 f i BasicDiploRelation.obj
 0001:00016f40       ___local_stdio_printf_options 10017f40 f i BasicDiploRelation.obj
 0001:00016f60       __vsnprintf_l              10017f60 f i BasicDiploRelation.obj
 0001:00017000       __vsprintf_l               10018000 f i BasicDiploRelation.obj
 0001:00017060       _sprintf                   10018060 f i BasicDiploRelation.obj
 0001:000170d0       ??$?0$$V@?$_Compressed_pair@V?$allocator@G@std@@V?$_Vector_val@U?$_Simple_types@G@std@@@2@$00@std@@QAE@U_Zero_then_variadic_args_t@1@@Z 100180d0 f i BattleDialogs.obj
 0001:00017130       ??$?0$$V@?$_Compressed_pair@V?$allocator@V?$vector@GV?$allocator@G@std@@@std@@@std@@V?$_Vector_val@U?$_Simple_types@V?$vector@GV?$allocator@G@std@@@std@@@std@@@2@$00@std@@QAE@U_Zero_then_variadic_args_t@1@@Z 10018130 f i BattleDialogs.obj
 0001:00017190       ??$?0G@?$allocator@U_Container_proxy@std@@@std@@QAE@ABV?$allocator@G@1@@Z 10018190 f i BattleDialogs.obj
 0001:000171c0       ??$?0V?$allocator@G@std@@$$V@?$_Compressed_pair@V?$allocator@G@std@@V?$_Vector_val@U?$_Simple_types@G@std@@@2@$00@std@@QAE@U_One_then_variadic_args_t@1@$$QAV?$allocator@G@1@@Z 100181c0 f i BattleDialogs.obj
 0001:00017220       ??$?0V?$allocator@G@std@@PAGPAGPAG@?$_Compressed_pair@V?$allocator@G@std@@V?$_Vector_val@U?$_Simple_types@G@std@@@2@$00@std@@QAE@U_One_then_variadic_args_t@1@$$QAV?$allocator@G@1@$$QAPAG22@Z 10018220 f i BattleDialogs.obj
 0001:000172c0       ??$?0V?$allocator@V?$vector@GV?$allocator@G@std@@@std@@@std@@$$V@?$_Compressed_pair@V?$allocator@V?$vector@GV?$allocator@G@std@@@std@@@std@@V?$_Vector_val@U?$_Simple_types@V?$vector@GV?$allocator@G@std@@@std@@@std@@@2@$00@std@@QAE@U_One_then_variadic_args_t@1@$$QAV?$allocator@V?$vector@GV?$allocator@G@std@@@std@@@1@@Z 100182c0 f i BattleDialogs.obj
 0001:00017320       ??$?0V?$vector@GV?$allocator@G@std@@@std@@@?$allocator@U_Container_proxy@std@@@std@@QAE@ABV?$allocator@V?$vector@GV?$allocator@G@std@@@std@@@1@@Z 10018320 f i BattleDialogs.obj
 0001:00017350       ??$_Alloc_proxy@V?$allocator@U_Container_proxy@std@@@std@@@_Container_base12@std@@QAEX$$QAV?$allocator@U_Container_proxy@std@@@1@@Z 10018350 f i BattleDialogs.obj
 0001:000173f0       ??$_Allocate@$07U_Default_allocate_traits@std@@$0A@@std@@YAPAXI@Z 100183f0 f i BattleDialogs.obj
 0001:00017460       ??$_Allocate_manually_vector_aligned@U_Default_allocate_traits@std@@@std@@YAPAXI@Z 10018460 f i BattleDialogs.obj
 0001:00017570       ??$_Construct_in_place@GABG@std@@YAXAAGABG@Z 10018570 f i BattleDialogs.obj
 0001:00017600       ??$_Construct_in_place@U_Container_proxy@std@@PAU_Container_base12@2@@std@@YAXAAU_Container_proxy@0@$$QAPAU_Container_base12@0@@Z 10018600 f i BattleDialogs.obj
 0001:00017690       ??$_Construct_in_place@V?$vector@GV?$allocator@G@std@@@std@@V12@@std@@YAXAAV?$vector@GV?$allocator@G@std@@@0@$$QAV10@@Z 10018690 f i BattleDialogs.obj
 0001:00017720       ??$_Construct_n@ABQAGABQAG@?$vector@GV?$allocator@G@std@@@std@@AAEXIABQAG0@Z 10018720 f i BattleDialogs.obj
 0001:000178e0       ??$_Construct_n@ABQAV?$vector@GV?$allocator@G@std@@@std@@ABQAV12@@?$vector@V?$vector@GV?$allocator@G@std@@@std@@V?$allocator@V?$vector@GV?$allocator@G@std@@@std@@@2@@std@@AAEXIABQAV?$vector@GV?$allocator@G@std@@@1@0@Z 100188e0 f i BattleDialogs.obj
 0001:00017aa0       ??$_Copy_memmove@PAEPAE@std@@YAPAEPAE00@Z 10018aa0 f i BattleDialogs.obj
 0001:00017b60       ??$_Copy_memmove@PAFPAF@std@@YAPAFPAF00@Z 10018b60 f i BattleDialogs.obj
 0001:00017c20       ??$_Copy_memmove@PAGPAG@std@@YAPAGPAG00@Z 10018c20 f i BattleDialogs.obj
 0001:00017ce0       ??$_Deallocate@$07$0A@@std@@YAXPAXI@Z 10018ce0 f i BattleDialogs.obj
 0001:00017d90       ??$_Deallocate_plain@V?$allocator@U_Container_proxy@std@@@std@@@std@@YAXAAV?$allocator@U_Container_proxy@std@@@0@QAU_Container_proxy@0@@Z 10018d90 f i BattleDialogs.obj
 0001:00017e20       ??$_Delete_plain_internal@V?$allocator@U_Container_proxy@std@@@std@@@std@@YAXAAV?$allocator@U_Container_proxy@std@@@0@QAU_Container_proxy@0@@Z 10018e20 f i BattleDialogs.obj
 0001:00017e70       ??$_Destroy_range@V?$allocator@E@std@@@std@@YAXPAEQAEAAV?$allocator@E@0@@Z 10018e70 f i BattleDialogs.obj
 0001:00017e90       ??$_Destroy_range@V?$allocator@F@std@@@std@@YAXPAFQAFAAV?$allocator@F@0@@Z 10018e90 f i BattleDialogs.obj
 0001:00017eb0       ??$_Destroy_range@V?$allocator@G@std@@@std@@YAXPAGQAGAAV?$allocator@G@0@@Z 10018eb0 f i BattleDialogs.obj
 0001:00017ed0       ??$_Destroy_range@V?$allocator@V?$vector@GV?$allocator@G@std@@@std@@@std@@@std@@YAXPAV?$vector@GV?$allocator@G@std@@@0@QAV10@AAV?$allocator@V?$vector@GV?$allocator@G@std@@@std@@@0@@Z 10018ed0 f i BattleDialogs.obj
 0001:00017f80       ??$_Destroy_range@V?$allocator@VCUpgCategory@@@std@@@std@@YAXPAVCUpgCategory@@QAV1@AAV?$allocator@VCUpgCategory@@@0@@Z 10018f80 f i BattleDialogs.obj
 0001:00018030       ??$_Emplace_back@AAG@?$_Uninitialized_backout_al@V?$allocator@G@std@@@std@@QAEXAAG@Z 10019030 f i BattleDialogs.obj
 0001:000180c0       ??$_Emplace_back@AAV?$vector@GV?$allocator@G@std@@@std@@@?$_Uninitialized_backout_al@V?$allocator@V?$vector@GV?$allocator@G@std@@@std@@@std@@@std@@QAEXAAV?$vector@GV?$allocator@G@std@@@1@@Z 100190c0 f i BattleDialogs.obj
 0001:00018150       ??$_Emplace_back@AAVCUpgCategory@@@?$_Uninitialized_backout_al@V?$allocator@VCUpgCategory@@@std@@@std@@QAEXAAVCUpgCategory@@@Z 10019150 f i BattleDialogs.obj
 0001:000181e0       ??$_Emplace_back@E@?$_Uninitialized_backout_al@V?$allocator@E@std@@@std@@QAEX$$QAE@Z 100191e0 f i BattleDialogs.obj
 0001:00018270       ??$_Emplace_back@F@?$_Uninitialized_backout_al@V?$allocator@F@std@@@std@@QAEX$$QAF@Z 10019270 f i BattleDialogs.obj
 0001:00018300       ??$_Emplace_back@G@?$_Uninitialized_backout_al@V?$allocator@G@std@@@std@@QAEX$$QAG@Z 10019300 f i BattleDialogs.obj
 0001:00018390       ??$_Emplace_back@V?$vector@GV?$allocator@G@std@@@std@@@?$_Uninitialized_backout_al@V?$allocator@V?$vector@GV?$allocator@G@std@@@std@@@std@@@std@@QAEX$$QAV?$vector@GV?$allocator@G@std@@@1@@Z 10019390 f i BattleDialogs.obj
 0001:00018420       ??$_Emplace_back@VCUpgCategory@@@?$_Uninitialized_backout_al@V?$allocator@VCUpgCategory@@@std@@@std@@QAEX$$QAVCUpgCategory@@@Z 10019420 f i BattleDialogs.obj
 0001:000184b0       ??$_Emplace_back_with_unused_capacity@ABG@?$vector@GV?$allocator@G@std@@@std@@AAEAAGABG@Z 100194b0 f i BattleDialogs.obj
 0001:00018560       ??$_Emplace_back_with_unused_capacity@V?$vector@GV?$allocator@G@std@@@std@@@?$vector@V?$vector@GV?$allocator@G@std@@@std@@V?$allocator@V?$vector@GV?$allocator@G@std@@@std@@@2@@std@@AAEAAV?$vector@GV?$allocator@G@std@@@1@$$QAV21@@Z 10019560 f i BattleDialogs.obj
 0001:00018610       ??$_Emplace_back_with_unused_capacity@VCUpgCategory@@@?$vector@VCUpgCategory@@V?$allocator@VCUpgCategory@@@std@@@std@@AAEAAVCUpgCategory@@$$QAV2@@Z 10019610 f i BattleDialogs.obj
 0001:000186e0       ??$_Emplace_one_at_back@ABG@?$vector@GV?$allocator@G@std@@@std@@AAEAAGABG@Z 100196e0 f i BattleDialogs.obj
 0001:00018790       ??$_Emplace_one_at_back@V?$vector@GV?$allocator@G@std@@@std@@@?$vector@V?$vector@GV?$allocator@G@std@@@std@@V?$allocator@V?$vector@GV?$allocator@G@std@@@std@@@2@@std@@AAEAAV?$vector@GV?$allocator@G@std@@@1@$$QAV21@@Z 10019790 f i BattleDialogs.obj
 0001:00018840       ??$_Emplace_one_at_back@VCUpgCategory@@@?$vector@VCUpgCategory@@V?$allocator@VCUpgCategory@@@std@@@std@@AAEAAVCUpgCategory@@$$QAV2@@Z 10019840 f i BattleDialogs.obj
 0001:000188f0       ??$_Emplace_reallocate@ABG@?$vector@GV?$allocator@G@std@@@std@@AAEPAGQAGABG@Z 100198f0 f i BattleDialogs.obj
 0001:00018bc0       ??$_Emplace_reallocate@V?$vector@GV?$allocator@G@std@@@std@@@?$vector@V?$vector@GV?$allocator@G@std@@@std@@V?$allocator@V?$vector@GV?$allocator@G@std@@@std@@@2@@std@@AAEPAV?$vector@GV?$allocator@G@std@@@1@QAV21@$$QAV21@@Z 10019bc0 f i BattleDialogs.obj
 0001:00018e90       ??$_Emplace_reallocate@VCUpgCategory@@@?$vector@VCUpgCategory@@V?$allocator@VCUpgCategory@@@std@@@std@@AAEPAVCUpgCategory@@QAV2@$$QAV2@@Z 10019e90 f i BattleDialogs.obj
 0001:00019170       ??$_Get_size_of_n@$00@std@@YAII@Z 1001a170 f i BattleDialogs.obj
 0001:00019190       ??$_Get_size_of_n@$01@std@@YAII@Z 1001a190 f i BattleDialogs.obj
 0001:000191f0       ??$_Get_size_of_n@$07@std@@YAII@Z 1001a1f0 f i BattleDialogs.obj
 0001:00019260       ??$_Get_size_of_n@$0BA@@std@@YAII@Z 1001a260 f i BattleDialogs.obj
 0001:000192d0       ??$_Get_size_of_n@$0CG@@std@@YAII@Z 1001a2d0 f i BattleDialogs.obj
 0001:00019330       ??$_Get_unwrapped@ABQAE@std@@YA?A_TABQAE@Z 1001a330 f i BattleDialogs.obj
 0001:00019350       ??$_Get_unwrapped@ABQAF@std@@YA?A_TABQAF@Z 1001a350 f i BattleDialogs.obj
 0001:00019370       ??$_Get_unwrapped@ABQAG@std@@YA?A_TABQAG@Z 1001a370 f i BattleDialogs.obj
 0001:00019390       ??$_Get_unwrapped@ABQAV?$vector@GV?$allocator@G@std@@@std@@@std@@YA?A_TABQAV?$vector@GV?$allocator@G@std@@@0@@Z 1001a390 f i BattleDialogs.obj
 0001:000193b0       ??$_Get_unwrapped@ABQAVCUpgCategory@@@std@@YA?A_TABQAVCUpgCategory@@@Z 1001a3b0 f i BattleDialogs.obj
 0001:000193d0       ??$_Move_unchecked@PAV?$vector@GV?$allocator@G@std@@@std@@PAV12@@std@@YAPAV?$vector@GV?$allocator@G@std@@@0@PAV10@00@Z 1001a3d0 f i BattleDialogs.obj
 0001:00019450       ??$_Pocma@V?$allocator@G@std@@@std@@YAXAAV?$allocator@G@0@0@Z 1001a450 f i BattleDialogs.obj
 0001:000194a0       ??$_To_address@PAE@std@@YA?A_PABQAE@Z 1001a4a0 f i BattleDialogs.obj
 0001:000194c0       ??$_To_address@PAF@std@@YA?A_PABQAF@Z 1001a4c0 f i BattleDialogs.obj
 0001:000194e0       ??$_To_address@PAG@std@@YA?A_PABQAG@Z 1001a4e0 f i BattleDialogs.obj
 0001:00019500       ??$_Unfancy@E@std@@YAPAEPAE@Z 1001a500 f i BattleDialogs.obj
 0001:00019520       ??$_Unfancy@F@std@@YAPAFPAF@Z 1001a520 f i BattleDialogs.obj
 0001:00019540       ??$_Unfancy@G@std@@YAPAGPAG@Z 1001a540 f i BattleDialogs.obj
 0001:00019560       ??$_Unfancy@U_Container_proxy@std@@@std@@YAPAU_Container_proxy@0@PAU10@@Z 1001a560 f i BattleDialogs.obj
 0001:00019580       ??$_Unfancy@V?$vector@GV?$allocator@G@std@@@std@@@std@@YAPAV?$vector@GV?$allocator@G@std@@@0@PAV10@@Z 1001a580 f i BattleDialogs.obj
 0001:000195a0       ??$_Unfancy@VCUpgCategory@@@std@@YAPAVCUpgCategory@@PAV1@@Z 1001a5a0 f i BattleDialogs.obj
 0001:000195c0       ??$_Uninitialized_copy@PAGV?$allocator@G@std@@@std@@YAPAGQAG0PAGAAV?$allocator@G@0@@Z 1001a5c0 f i BattleDialogs.obj
 0001:00019750       ??$_Uninitialized_copy@PAV?$vector@GV?$allocator@G@std@@@std@@V?$allocator@V?$vector@GV?$allocator@G@std@@@std@@@2@@std@@YAPAV?$vector@GV?$allocator@G@std@@@0@QAV10@0PAV10@AAV?$allocator@V?$vector@GV?$allocator@G@std@@@std@@@0@@Z 1001a750 f i BattleDialogs.obj
 0001:000198a0       ??$_Uninitialized_copy@PAVCUpgCategory@@V?$allocator@VCUpgCategory@@@std@@@std@@YAPAVCUpgCategory@@QAV1@0PAV1@AAV?$allocator@VCUpgCategory@@@0@@Z 1001a8a0 f i BattleDialogs.obj
 0001:000199f0       ??$_Uninitialized_move@PAEV?$allocator@E@std@@@std@@YAPAEQAE0PAEAAV?$allocator@E@0@@Z 1001a9f0 f i BattleDialogs.obj
 0001:00019b70       ??$_Uninitialized_move@PAFV?$allocator@F@std@@@std@@YAPAFQAF0PAFAAV?$allocator@F@0@@Z 1001ab70 f i BattleDialogs.obj
 0001:00019d00       ??$_Uninitialized_move@PAGV?$allocator@G@std@@@std@@YAPAGQAG0PAGAAV?$allocator@G@0@@Z 1001ad00 f i BattleDialogs.obj
 0001:00019e90       ??$_Uninitialized_move@PAV?$vector@GV?$allocator@G@std@@@std@@V?$allocator@V?$vector@GV?$allocator@G@std@@@std@@@2@@std@@YAPAV?$vector@GV?$allocator@G@std@@@0@QAV10@0PAV10@AAV?$allocator@V?$vector@GV?$allocator@G@std@@@std@@@0@@Z 1001ae90 f i BattleDialogs.obj
 0001:00019fe0       ??$_Uninitialized_move@PAVCUpgCategory@@V?$allocator@VCUpgCategory@@@std@@@std@@YAPAVCUpgCategory@@QAV1@0PAV1@AAV?$allocator@VCUpgCategory@@@0@@Z 1001afe0 f i BattleDialogs.obj
 0001:0001a130       ??$_Voidify_iter@PAE@std@@YAPAXPAE@Z 1001b130 f i BattleDialogs.obj
 0001:0001a150       ??$_Voidify_iter@PAF@std@@YAPAXPAF@Z 1001b150 f i BattleDialogs.obj
 0001:0001a170       ??$_Voidify_iter@PAG@std@@YAPAXPAG@Z 1001b170 f i BattleDialogs.obj
 0001:0001a190       ??$_Voidify_iter@PAU_Container_proxy@std@@@std@@YAPAXPAU_Container_proxy@0@@Z 1001b190 f i BattleDialogs.obj
 0001:0001a1b0       ??$_Voidify_iter@PAV?$vector@GV?$allocator@G@std@@@std@@@std@@YAPAXPAV?$vector@GV?$allocator@G@std@@@0@@Z 1001b1b0 f i BattleDialogs.obj
 0001:0001a1d0       ??$_Voidify_iter@PAVCUpgCategory@@@std@@YAPAXPAVCUpgCategory@@@Z 1001b1d0 f i BattleDialogs.obj
 0001:0001a1f0       ??$addressof@G@std@@YAPAGAAG@Z 1001b1f0 f i BattleDialogs.obj
 0001:0001a210       ??$addressof@U_Container_base12@std@@@std@@YAPAU_Container_base12@0@AAU10@@Z 1001b210 f i BattleDialogs.obj
 0001:0001a230       ??$addressof@U_Container_proxy@std@@@std@@YAPAU_Container_proxy@0@AAU10@@Z 1001b230 f i BattleDialogs.obj
 0001:0001a250       ??$addressof@V?$_Vector_val@U?$_Simple_types@G@std@@@std@@@std@@YAPAV?$_Vector_val@U?$_Simple_types@G@std@@@0@AAV10@@Z 1001b250 f i BattleDialogs.obj
 0001:0001a270       ??$addressof@V?$_Vector_val@U?$_Simple_types@V?$vector@GV?$allocator@G@std@@@std@@@std@@@std@@@std@@YAPAV?$_Vector_val@U?$_Simple_types@V?$vector@GV?$allocator@G@std@@@std@@@std@@@0@AAV10@@Z 1001b270 f i BattleDialogs.obj
 0001:0001a290       ??$addressof@V?$_Vector_val@U?$_Simple_types@VCUpgCategory@@@std@@@std@@@std@@YAPAV?$_Vector_val@U?$_Simple_types@VCUpgCategory@@@std@@@0@AAV10@@Z 1001b290 f i BattleDialogs.obj
 0001:0001a2b0       ??$addressof@V?$vector@GV?$allocator@G@std@@@std@@@std@@YAPAV?$vector@GV?$allocator@G@std@@@0@AAV10@@Z 1001b2b0 f i BattleDialogs.obj
 0001:0001a2d0       ??$construct@EE@?$_Default_allocator_traits@V?$allocator@E@std@@@std@@SAXAAV?$allocator@E@1@QAE$$QAE@Z 1001b2d0 f i BattleDialogs.obj
 0001:0001a350       ??$construct@FF@?$_Default_allocator_traits@V?$allocator@F@std@@@std@@SAXAAV?$allocator@F@1@QAF$$QAF@Z 1001b350 f i BattleDialogs.obj
 0001:0001a3d0       ??$construct@GAAG@?$_Default_allocator_traits@V?$allocator@G@std@@@std@@SAXAAV?$allocator@G@1@QAGAAG@Z 1001b3d0 f i BattleDialogs.obj
 0001:0001a450       ??$construct@GABG@?$_Default_allocator_traits@V?$allocator@G@std@@@std@@SAXAAV?$allocator@G@1@QAGABG@Z 1001b450 f i BattleDialogs.obj
 0001:0001a4d0       ??$construct@GG@?$_Default_allocator_traits@V?$allocator@G@std@@@std@@SAXAAV?$allocator@G@1@QAG$$QAG@Z 1001b4d0 f i BattleDialogs.obj
 0001:0001a550       ??$construct@V?$vector@GV?$allocator@G@std@@@std@@AAV12@@?$_Default_allocator_traits@V?$allocator@V?$vector@GV?$allocator@G@std@@@std@@@std@@@std@@SAXAAV?$allocator@V?$vector@GV?$allocator@G@std@@@std@@@1@QAV?$vector@GV?$allocator@G@std@@@1@AAV31@@Z 1001b550 f i BattleDialogs.obj
 0001:0001a5d0       ??$construct@V?$vector@GV?$allocator@G@std@@@std@@V12@@?$_Default_allocator_traits@V?$allocator@V?$vector@GV?$allocator@G@std@@@std@@@std@@@std@@SAXAAV?$allocator@V?$vector@GV?$allocator@G@std@@@std@@@1@QAV?$vector@GV?$allocator@G@std@@@1@$$QAV31@@Z 1001b5d0 f i BattleDialogs.obj
 0001:0001a650       ??$construct@VCUpgCategory@@AAV1@@?$_Default_allocator_traits@V?$allocator@VCUpgCategory@@@std@@@std@@SAXAAV?$allocator@VCUpgCategory@@@1@QAVCUpgCategory@@AAV3@@Z 1001b650 f i BattleDialogs.obj
 0001:0001a6d0       ??$construct@VCUpgCategory@@V1@@?$_Default_allocator_traits@V?$allocator@VCUpgCategory@@@std@@@std@@SAXAAV?$allocator@VCUpgCategory@@@1@QAVCUpgCategory@@$$QAV3@@Z 1001b6d0 f i BattleDialogs.obj
 0001:0001a750       ??$destroy@G@?$_Default_allocator_traits@V?$allocator@G@std@@@std@@SAXAAV?$allocator@G@1@QAG@Z 1001b750 f i BattleDialogs.obj
 0001:0001a770       ??$destroy@V?$vector@GV?$allocator@G@std@@@std@@@?$_Default_allocator_traits@V?$allocator@V?$vector@GV?$allocator@G@std@@@std@@@std@@@std@@SAXAAV?$allocator@V?$vector@GV?$allocator@G@std@@@std@@@1@QAV?$vector@GV?$allocator@G@std@@@1@@Z 1001b770 f i BattleDialogs.obj
 0001:0001a7c0       ??$destroy@VCUpgCategory@@@?$_Default_allocator_traits@V?$allocator@VCUpgCategory@@@std@@@std@@SAXAAV?$allocator@VCUpgCategory@@@1@QAVCUpgCategory@@@Z 1001b7c0 f i BattleDialogs.obj
 0001:0001a810       ??$emplace_back@ABG@?$vector@GV?$allocator@G@std@@@std@@QAE?A_TABG@Z 1001b810 f i BattleDialogs.obj
 0001:0001a880       ??$emplace_back@V?$vector@GV?$allocator@G@std@@@std@@@?$vector@V?$vector@GV?$allocator@G@std@@@std@@V?$allocator@V?$vector@GV?$allocator@G@std@@@std@@@2@@std@@QAE?A_T$$QAV?$vector@GV?$allocator@G@std@@@1@@Z 1001b880 f i BattleDialogs.obj
 0001:0001a8f0       ??$emplace_back@VCUpgCategory@@@?$vector@VCUpgCategory@@V?$allocator@VCUpgCategory@@@std@@@std@@QAE?A_T$$QAVCUpgCategory@@@Z 1001b8f0 f i BattleDialogs.obj
 0001:0001a960       ??$exchange@PAG$$T@std@@YAPAGAAPAG$$QA$$T@Z 1001b960 f i BattleDialogs.obj
 0001:0001a9a0       ??$exchange@PAU_Container_proxy@std@@$$T@std@@YAPAU_Container_proxy@0@AAPAU10@$$QA$$T@Z 1001b9a0 f i BattleDialogs.obj
 0001:0001a9e0       ??$forward@AAG@std@@YAAAGAAG@Z 1001b9e0 f i BattleDialogs.obj
 0001:0001aa00       ??$forward@AAV?$vector@GV?$allocator@G@std@@@std@@@std@@YAAAV?$vector@GV?$allocator@G@std@@@0@AAV10@@Z 1001ba00 f i BattleDialogs.obj
 0001:0001aa20       ??$forward@AAVCUpgCategory@@@std@@YAAAVCUpgCategory@@AAV1@@Z 1001ba20 f i BattleDialogs.obj
 0001:0001aa40       ??$forward@ABG@std@@YAABGABG@Z 1001ba40 f i BattleDialogs.obj
 0001:0001aa60       ??$forward@ABQAG@std@@YAABQAGABQAG@Z 1001ba60 f i BattleDialogs.obj
 0001:0001aa80       ??$forward@ABQAV?$vector@GV?$allocator@G@std@@@std@@@std@@YAABQAV?$vector@GV?$allocator@G@std@@@0@ABQAV10@@Z 1001ba80 f i BattleDialogs.obj
 0001:0001aaa0       ??$forward@E@std@@YA$$QAEAAE@Z 1001baa0 f i BattleDialogs.obj
 0001:0001aac0       ??$forward@F@std@@YA$$QAFAAF@Z 1001bac0 f i BattleDialogs.obj
 0001:0001aae0       ??$forward@G@std@@YA$$QAGAAG@Z 1001bae0 f i BattleDialogs.obj
 0001:0001ab00       ??$forward@PAG@std@@YA$$QAPAGAAPAG@Z 1001bb00 f i BattleDialogs.obj
 0001:0001ab20       ??$forward@PAU_Container_base12@std@@@std@@YA$$QAPAU_Container_base12@0@AAPAU10@@Z 1001bb20 f i BattleDialogs.obj
 0001:0001ab40       ??$forward@V?$allocator@G@std@@@std@@YA$$QAV?$allocator@G@0@AAV10@@Z 1001bb40 f i BattleDialogs.obj
 0001:0001ab60       ??$forward@V?$allocator@V?$vector@GV?$allocator@G@std@@@std@@@std@@@std@@YA$$QAV?$allocator@V?$vector@GV?$allocator@G@std@@@std@@@0@AAV10@@Z 1001bb60 f i BattleDialogs.obj
 0001:0001ab80       ??$forward@V?$vector@GV?$allocator@G@std@@@std@@@std@@YA$$QAV?$vector@GV?$allocator@G@std@@@0@AAV10@@Z 1001bb80 f i BattleDialogs.obj
 0001:0001aba0       ??$forward@VCUpgCategory@@@std@@YA$$QAVCUpgCategory@@AAV1@@Z 1001bba0 f i BattleDialogs.obj
 0001:0001abc0       ??$min@I@std@@YAABIABI0@Z  1001bbc0 f i BattleDialogs.obj
 0001:0001ac20       ??$move@AAE@std@@YA$$QAEAAE@Z 1001bc20 f i BattleDialogs.obj
 0001:0001ac40       ??$move@AAF@std@@YA$$QAFAAF@Z 1001bc40 f i BattleDialogs.obj
 0001:0001ac60       ??$move@AAG@std@@YA$$QAGAAG@Z 1001bc60 f i BattleDialogs.obj
 0001:0001ac80       ??$move@AAV?$allocator@G@std@@@std@@YA$$QAV?$allocator@G@0@AAV10@@Z 1001bc80 f i BattleDialogs.obj
 0001:0001aca0       ??$move@AAV?$vector@GV?$allocator@G@std@@@std@@@std@@YA$$QAV?$vector@GV?$allocator@G@std@@@0@AAV10@@Z 1001bca0 f i BattleDialogs.obj
 0001:0001acc0       ??$move@AAVCUpgCategory@@@std@@YA$$QAVCUpgCategory@@AAV1@@Z 1001bcc0 f i BattleDialogs.obj
 0001:0001ace0       ??0?$_Container_proxy_ptr12@V?$allocator@U_Container_proxy@std@@@std@@@std@@QAE@AAV?$allocator@U_Container_proxy@std@@@1@AAU_Container_base12@1@@Z 1001bce0 f i BattleDialogs.obj
 0001:0001ada0       ??0?$_Uninitialized_backout_al@V?$allocator@E@std@@@std@@QAE@PAEAAV?$allocator@E@1@@Z 1001bda0 f i BattleDialogs.obj
 0001:0001adf0       ??0?$_Uninitialized_backout_al@V?$allocator@F@std@@@std@@QAE@PAFAAV?$allocator@F@1@@Z 1001bdf0 f i BattleDialogs.obj
 0001:0001ae40       ??0?$_Uninitialized_backout_al@V?$allocator@G@std@@@std@@QAE@PAGAAV?$allocator@G@1@@Z 1001be40 f i BattleDialogs.obj
 0001:0001ae90       ??0?$_Uninitialized_backout_al@V?$allocator@V?$vector@GV?$allocator@G@std@@@std@@@std@@@std@@QAE@PAV?$vector@GV?$allocator@G@std@@@1@AAV?$allocator@V?$vector@GV?$allocator@G@std@@@std@@@1@@Z 1001be90 f i BattleDialogs.obj
 0001:0001aee0       ??0?$_Uninitialized_backout_al@V?$allocator@VCUpgCategory@@@std@@@std@@QAE@PAVCUpgCategory@@AAV?$allocator@VCUpgCategory@@@1@@Z 1001bee0 f i BattleDialogs.obj
 0001:0001af30       ??0?$_Vector_const_iterator@V?$_Vector_val@U?$_Simple_types@G@std@@@std@@@std@@QAE@$$QAV01@@Z 1001bf30 f i BattleDialogs.obj
 0001:0001afa0       ??0?$_Vector_const_iterator@V?$_Vector_val@U?$_Simple_types@G@std@@@std@@@std@@QAE@ABV01@@Z 1001bfa0 f i BattleDialogs.obj
 0001:0001b010       ??0?$_Vector_const_iterator@V?$_Vector_val@U?$_Simple_types@G@std@@@std@@@std@@QAE@PAGPBU_Container_base12@1@@Z 1001c010 f i BattleDialogs.obj
 0001:0001b080       ??0?$_Vector_const_iterator@V?$_Vector_val@U?$_Simple_types@V?$vector@GV?$allocator@G@std@@@std@@@std@@@std@@@std@@QAE@$$QAV01@@Z 1001c080 f i BattleDialogs.obj
 0001:0001b0f0       ??0?$_Vector_const_iterator@V?$_Vector_val@U?$_Simple_types@V?$vector@GV?$allocator@G@std@@@std@@@std@@@std@@@std@@QAE@ABV01@@Z 1001c0f0 f i BattleDialogs.obj
 0001:0001b160       ??0?$_Vector_const_iterator@V?$_Vector_val@U?$_Simple_types@V?$vector@GV?$allocator@G@std@@@std@@@std@@@std@@@std@@QAE@PAV?$vector@GV?$allocator@G@std@@@1@PBU_Container_base12@1@@Z 1001c160 f i BattleDialogs.obj
 0001:0001b1d0       ??0?$_Vector_const_iterator@V?$_Vector_val@U?$_Simple_types@VCUpgCategory@@@std@@@std@@@std@@QAE@$$QAV01@@Z 1001c1d0 f i BattleDialogs.obj
 0001:0001b240       ??0?$_Vector_const_iterator@V?$_Vector_val@U?$_Simple_types@VCUpgCategory@@@std@@@std@@@std@@QAE@ABV01@@Z 1001c240 f i BattleDialogs.obj
 0001:0001b2b0       ??0?$_Vector_const_iterator@V?$_Vector_val@U?$_Simple_types@VCUpgCategory@@@std@@@std@@@std@@QAE@PAVCUpgCategory@@PBU_Container_base12@1@@Z 1001c2b0 f i BattleDialogs.obj
 0001:0001b320       ??0?$_Vector_iterator@V?$_Vector_val@U?$_Simple_types@G@std@@@std@@@std@@QAE@$$QAV01@@Z 1001c320 f i BattleDialogs.obj
 0001:0001b380       ??0?$_Vector_iterator@V?$_Vector_val@U?$_Simple_types@G@std@@@std@@@std@@QAE@ABV01@@Z 1001c380 f i BattleDialogs.obj
 0001:0001b3e0       ??0?$_Vector_iterator@V?$_Vector_val@U?$_Simple_types@G@std@@@std@@@std@@QAE@PAGPBU_Container_base12@1@@Z 1001c3e0 f i BattleDialogs.obj
 0001:0001b440       ??0?$_Vector_iterator@V?$_Vector_val@U?$_Simple_types@V?$vector@GV?$allocator@G@std@@@std@@@std@@@std@@@std@@QAE@$$QAV01@@Z 1001c440 f i BattleDialogs.obj
 0001:0001b4a0       ??0?$_Vector_iterator@V?$_Vector_val@U?$_Simple_types@V?$vector@GV?$allocator@G@std@@@std@@@std@@@std@@@std@@QAE@ABV01@@Z 1001c4a0 f i BattleDialogs.obj
 0001:0001b500       ??0?$_Vector_iterator@V?$_Vector_val@U?$_Simple_types@V?$vector@GV?$allocator@G@std@@@std@@@std@@@std@@@std@@QAE@PAV?$vector@GV?$allocator@G@std@@@1@PBU_Container_base12@1@@Z 1001c500 f i BattleDialogs.obj
 0001:0001b560       ??0?$_Vector_iterator@V?$_Vector_val@U?$_Simple_types@VCUpgCategory@@@std@@@std@@@std@@QAE@$$QAV01@@Z 1001c560 f i BattleDialogs.obj
 0001:0001b5c0       ??0?$_Vector_iterator@V?$_Vector_val@U?$_Simple_types@VCUpgCategory@@@std@@@std@@@std@@QAE@ABV01@@Z 1001c5c0 f i BattleDialogs.obj
 0001:0001b620       ??0?$_Vector_iterator@V?$_Vector_val@U?$_Simple_types@VCUpgCategory@@@std@@@std@@@std@@QAE@PAVCUpgCategory@@PBU_Container_base12@1@@Z 1001c620 f i BattleDialogs.obj
 0001:0001b680       ??0?$_Vector_val@U?$_Simple_types@G@std@@@std@@QAE@PAG00@Z 1001c680 f i BattleDialogs.obj
 0001:0001b700       ??0?$_Vector_val@U?$_Simple_types@G@std@@@std@@QAE@XZ 1001c700 f i BattleDialogs.obj
 0001:0001b780       ??0?$_Vector_val@U?$_Simple_types@V?$vector@GV?$allocator@G@std@@@std@@@std@@@std@@QAE@XZ 1001c780 f i BattleDialogs.obj
 0001:0001b800       ??0?$allocator@G@std@@QAE@XZ 1001c800 f i BattleDialogs.obj
 0001:0001b820       ??0?$allocator@V?$vector@GV?$allocator@G@std@@@std@@@std@@QAE@XZ 1001c820 f i BattleDialogs.obj
 0001:0001b840       ??0?$vector@GV?$allocator@G@std@@@std@@QAE@$$QAV01@@Z 1001c840 f i BattleDialogs.obj
 0001:0001b9d0       ??0?$vector@GV?$allocator@G@std@@@std@@QAE@ABV01@@Z 1001c9d0 f i BattleDialogs.obj
 0001:0001ba90       ??0?$vector@GV?$allocator@G@std@@@std@@QAE@XZ 1001ca90 f i BattleDialogs.obj
 0001:0001bb50       ??0?$vector@V?$vector@GV?$allocator@G@std@@@std@@V?$allocator@V?$vector@GV?$allocator@G@std@@@std@@@2@@std@@QAE@ABV01@@Z 1001cb50 f i BattleDialogs.obj
 0001:0001bc10       ??0?$vector@V?$vector@GV?$allocator@G@std@@@std@@V?$allocator@V?$vector@GV?$allocator@G@std@@@std@@@2@@std@@QAE@XZ 1001cc10 f i BattleDialogs.obj
 0001:0001bcd0       ??0CBattle@@QAE@XZ         1001ccd0 f   BattleDialogs.obj
 0001:0001bd30       ??0CUpgCategory@@QAE@ABV0@@Z 1001cd30 f i BattleDialogs.obj
 0001:0001be10       ??0CUpgCategory@@QAE@GPADPAGH@Z 1001ce10 f   BattleDialogs.obj
 0001:0001c3c0       ??0CWeapInfo@@QAE@XZ       1001d3c0 f   BattleDialogs.obj
 0001:0001c420       ??0_Basic_container_proxy_ptr12@std@@IAE@XZ 1001d420 f i BattleDialogs.obj
 0001:0001c450       ??0_Container_base12@std@@QAE@XZ 1001d450 f i BattleDialogs.obj
 0001:0001c480       ??0_Container_proxy@std@@QAE@PAU_Container_base12@1@@Z 1001d480 f i BattleDialogs.obj
 0001:0001c4c0       ??0_Iterator_base12@std@@QAE@ABU01@@Z 1001d4c0 f i BattleDialogs.obj
 0001:0001c530       ??0_Iterator_base12@std@@QAE@XZ 1001d530 f i BattleDialogs.obj
 0001:0001c570       ??0bad_alloc@std@@AAE@QBD@Z 1001d570 f i BattleDialogs.obj
 0001:0001c5e0       ??0bad_alloc@std@@QAE@ABV01@@Z 1001d5e0 f i BattleDialogs.obj
 0001:0001c650       ??0bad_array_new_length@std@@QAE@ABV01@@Z 1001d650 f i BattleDialogs.obj
 0001:0001c6c0       ??0bad_array_new_length@std@@QAE@XZ 1001d6c0 f i BattleDialogs.obj
 0001:0001c720       ??0exception@std@@QAE@ABV01@@Z 1001d720 f i BattleDialogs.obj
 0001:0001c7a0       ??0exception@std@@QAE@QBDH@Z 1001d7a0 f i BattleDialogs.obj
 0001:0001c7f0       ??1?$_Container_proxy_ptr12@V?$allocator@U_Container_proxy@std@@@std@@@std@@QAE@XZ 1001d7f0 f i BattleDialogs.obj
 0001:0001c860       ??1?$_Tidy_guard@V?$vector@GV?$allocator@G@std@@@std@@@std@@QAE@XZ 1001d860 f i BattleDialogs.obj
 0001:0001c8c0       ??1?$_Tidy_guard@V?$vector@V?$vector@GV?$allocator@G@std@@@std@@V?$allocator@V?$vector@GV?$allocator@G@std@@@std@@@2@@std@@@std@@QAE@XZ 1001d8c0 f i BattleDialogs.obj
 0001:0001c920       ??1?$_Uninitialized_backout_al@V?$allocator@E@std@@@std@@QAE@XZ 1001d920 f i BattleDialogs.obj
 0001:0001c990       ??1?$_Uninitialized_backout_al@V?$allocator@F@std@@@std@@QAE@XZ 1001d990 f i BattleDialogs.obj
 0001:0001ca00       ??1?$_Uninitialized_backout_al@V?$allocator@G@std@@@std@@QAE@XZ 1001da00 f i BattleDialogs.obj
 0001:0001ca70       ??1?$_Uninitialized_backout_al@V?$allocator@V?$vector@GV?$allocator@G@std@@@std@@@std@@@std@@QAE@XZ 1001da70 f i BattleDialogs.obj
 0001:0001cae0       ??1?$_Uninitialized_backout_al@V?$allocator@VCUpgCategory@@@std@@@std@@QAE@XZ 1001dae0 f i BattleDialogs.obj
 0001:0001cb50       ??1?$_Vector_const_iterator@V?$_Vector_val@U?$_Simple_types@G@std@@@std@@@std@@QAE@XZ 1001db50 f i BattleDialogs.obj
 0001:0001cba0       ??1?$_Vector_const_iterator@V?$_Vector_val@U?$_Simple_types@V?$vector@GV?$allocator@G@std@@@std@@@std@@@std@@@std@@QAE@XZ 1001dba0 f i BattleDialogs.obj
 0001:0001cbf0       ??1?$_Vector_const_iterator@V?$_Vector_val@U?$_Simple_types@VCUpgCategory@@@std@@@std@@@std@@QAE@XZ 1001dbf0 f i BattleDialogs.obj
 0001:0001cc40       ??1?$_Vector_iterator@V?$_Vector_val@U?$_Simple_types@G@std@@@std@@@std@@QAE@XZ 1001dc40 f i BattleDialogs.obj
 0001:0001cc90       ??1?$_Vector_iterator@V?$_Vector_val@U?$_Simple_types@V?$vector@GV?$allocator@G@std@@@std@@@std@@@std@@@std@@QAE@XZ 1001dc90 f i BattleDialogs.obj
 0001:0001cce0       ??1?$_Vector_iterator@V?$_Vector_val@U?$_Simple_types@VCUpgCategory@@@std@@@std@@@std@@QAE@XZ 1001dce0 f i BattleDialogs.obj
 0001:0001cd30       ??1?$vector@GV?$allocator@G@std@@@std@@QAE@XZ 1001dd30 f i BattleDialogs.obj
 0001:0001ce10       ??1?$vector@V?$vector@GV?$allocator@G@std@@@std@@V?$allocator@V?$vector@GV?$allocator@G@std@@@std@@@2@@std@@QAE@XZ 1001de10 f i BattleDialogs.obj
 0001:0001cef0       ??1CBattle@@QAE@XZ         1001def0 f   BattleDialogs.obj
 0001:0001cf80       ??1CUpgCategory@@QAE@XZ    1001df80 f   BattleDialogs.obj
 0001:0001cfe0       ??1_Iterator_base12@std@@QAE@XZ 1001dfe0 f i BattleDialogs.obj
 0001:0001d030       ??1bad_alloc@std@@UAE@XZ   1001e030 f i BattleDialogs.obj
 0001:0001d080       ??1bad_array_new_length@std@@UAE@XZ 1001e080 f i BattleDialogs.obj
 0001:0001d0d0       ??1exception@std@@UAE@XZ   1001e0d0 f i BattleDialogs.obj
 0001:0001d130       ??2@YAPAXIPAX@Z            1001e130 f i BattleDialogs.obj
 0001:0001d150       ??4?$vector@GV?$allocator@G@std@@@std@@QAEAAV01@$$QAV01@@Z 1001e150 f i BattleDialogs.obj
 0001:0001d210       ??4_Iterator_base12@std@@QAEAAU01@ABU01@@Z 1001e210 f i BattleDialogs.obj
 0001:0001d270       ??8?$_Vector_const_iterator@V?$_Vector_val@U?$_Simple_types@G@std@@@std@@@std@@QBE_NABV01@@Z 1001e270 f i BattleDialogs.obj
 0001:0001d300       ??8?$_Vector_const_iterator@V?$_Vector_val@U?$_Simple_types@V?$vector@GV?$allocator@G@std@@@std@@@std@@@std@@@std@@QBE_NABV01@@Z 1001e300 f i BattleDialogs.obj
 0001:0001d390       ??8?$_Vector_const_iterator@V?$_Vector_val@U?$_Simple_types@VCUpgCategory@@@std@@@std@@@std@@QBE_NABV01@@Z 1001e390 f i BattleDialogs.obj
 0001:0001d420       ??9?$_Vector_const_iterator@V?$_Vector_val@U?$_Simple_types@G@std@@@std@@@std@@QBE_NABV01@@Z 1001e420 f i BattleDialogs.obj
 0001:0001d4a0       ??9?$_Vector_const_iterator@V?$_Vector_val@U?$_Simple_types@V?$vector@GV?$allocator@G@std@@@std@@@std@@@std@@@std@@QBE_NABV01@@Z 1001e4a0 f i BattleDialogs.obj
 0001:0001d520       ??9?$_Vector_const_iterator@V?$_Vector_val@U?$_Simple_types@VCUpgCategory@@@std@@@std@@@std@@QBE_NABV01@@Z 1001e520 f i BattleDialogs.obj
 0001:0001d5a0       ??A?$vector@EV?$allocator@E@std@@@std@@QAEAAEI@Z 1001e5a0 f i BattleDialogs.obj
 0001:0001d670       ??A?$vector@FV?$allocator@F@std@@@std@@QAEAAFI@Z 1001e670 f i BattleDialogs.obj
 0001:0001d750       ??A?$vector@GV?$allocator@G@std@@@std@@QAEAAGI@Z 1001e750 f i BattleDialogs.obj
 0001:0001d830       ??A?$vector@V?$vector@GV?$allocator@G@std@@@std@@V?$allocator@V?$vector@GV?$allocator@G@std@@@std@@@2@@std@@QAEAAV?$vector@GV?$allocator@G@std@@@1@I@Z 1001e830 f i BattleDialogs.obj
 0001:0001d910       ??C?$_Vector_iterator@V?$_Vector_val@U?$_Simple_types@V?$vector@GV?$allocator@G@std@@@std@@@std@@@std@@@std@@QBEPAV?$vector@GV?$allocator@G@std@@@1@XZ 1001e910 f i BattleDialogs.obj
 0001:0001da60       ??C?$_Vector_iterator@V?$_Vector_val@U?$_Simple_types@VCUpgCategory@@@std@@@std@@@std@@QBEPAVCUpgCategory@@XZ 1001ea60 f i BattleDialogs.obj
 0001:0001dbb0       ??D?$_Vector_const_iterator@V?$_Vector_val@U?$_Simple_types@G@std@@@std@@@std@@QBEABGXZ 1001ebb0 f i BattleDialogs.obj
 0001:0001dcf0       ??D?$_Vector_iterator@V?$_Vector_val@U?$_Simple_types@G@std@@@std@@@std@@QBEAAGXZ 1001ecf0 f i BattleDialogs.obj
 0001:0001dd40       ??E?$_Vector_const_iterator@V?$_Vector_val@U?$_Simple_types@G@std@@@std@@@std@@QAEAAV01@XZ 1001ed40 f i BattleDialogs.obj
 0001:0001de80       ??E?$_Vector_const_iterator@V?$_Vector_val@U?$_Simple_types@V?$vector@GV?$allocator@G@std@@@std@@@std@@@std@@@std@@QAEAAV01@XZ 1001ee80 f i BattleDialogs.obj
 0001:0001dfc0       ??E?$_Vector_const_iterator@V?$_Vector_val@U?$_Simple_types@VCUpgCategory@@@std@@@std@@@std@@QAEAAV01@XZ 1001efc0 f i BattleDialogs.obj
 0001:0001e100       ??E?$_Vector_iterator@V?$_Vector_val@U?$_Simple_types@G@std@@@std@@@std@@QAE?AV01@H@Z 1001f100 f i BattleDialogs.obj
 0001:0001e1b0       ??E?$_Vector_iterator@V?$_Vector_val@U?$_Simple_types@V?$vector@GV?$allocator@G@std@@@std@@@std@@@std@@@std@@QAE?AV01@H@Z 1001f1b0 f i BattleDialogs.obj
 0001:0001e260       ??E?$_Vector_iterator@V?$_Vector_val@U?$_Simple_types@VCUpgCategory@@@std@@@std@@@std@@QAE?AV01@H@Z 1001f260 f i BattleDialogs.obj
 0001:0001e310       ??G?$_Vector_iterator@V?$_Vector_val@U?$_Simple_types@V?$vector@GV?$allocator@G@std@@@std@@@std@@@std@@@std@@QBE?AV01@H@Z 1001f310 f i BattleDialogs.obj
 0001:0001e3d0       ??H?$_Vector_iterator@V?$_Vector_val@U?$_Simple_types@G@std@@@std@@@std@@QBE?AV01@H@Z 1001f3d0 f i BattleDialogs.obj
 0001:0001e490       ??Y?$_Vector_const_iterator@V?$_Vector_val@U?$_Simple_types@G@std@@@std@@@std@@QAEAAV01@H@Z 1001f490 f i BattleDialogs.obj
 0001:0001e500       ??Y?$_Vector_const_iterator@V?$_Vector_val@U?$_Simple_types@V?$vector@GV?$allocator@G@std@@@std@@@std@@@std@@@std@@QAEAAV01@H@Z 1001f500 f i BattleDialogs.obj
 0001:0001e570       ??Y?$_Vector_iterator@V?$_Vector_val@U?$_Simple_types@G@std@@@std@@@std@@QAEAAV01@H@Z 1001f570 f i BattleDialogs.obj
 0001:0001e5d0       ??Z?$_Vector_const_iterator@V?$_Vector_val@U?$_Simple_types@V?$vector@GV?$allocator@G@std@@@std@@@std@@@std@@@std@@QAEAAV01@H@Z 1001f5d0 f i BattleDialogs.obj
 0001:0001e630       ??Z?$_Vector_iterator@V?$_Vector_val@U?$_Simple_types@V?$vector@GV?$allocator@G@std@@@std@@@std@@@std@@@std@@QAEAAV01@H@Z 1001f630 f i BattleDialogs.obj
 0001:0001e690       ??_G?$vector@GV?$allocator@G@std@@@std@@QAEPAXI@Z 1001f690 f i BattleDialogs.obj
 0001:0001e700       ??_GCUpgCategory@@QAEPAXI@Z 1001f700 f i BattleDialogs.obj
 0001:0001e770       ??_Ebad_alloc@std@@UAEPAXI@Z 1001f770 f i BattleDialogs.obj
 0001:0001e770       ??_Gbad_alloc@std@@UAEPAXI@Z 1001f770 f i BattleDialogs.obj
 0001:0001e7e0       ??_Ebad_array_new_length@std@@UAEPAXI@Z 1001f7e0 f i BattleDialogs.obj
 0001:0001e7e0       ??_Gbad_array_new_length@std@@UAEPAXI@Z 1001f7e0 f i BattleDialogs.obj
 0001:0001e850       ??_Eexception@std@@UAEPAXI@Z 1001f850 f i BattleDialogs.obj
 0001:0001e850       ??_Gexception@std@@UAEPAXI@Z 1001f850 f i BattleDialogs.obj
 0001:0001e8c0       ?AddNewMon@CPlayerInfo@@QAEXEG@Z 1001f8c0 f   BattleDialogs.obj
 0001:0001ec40       ?AddUpgCategory@UnitType@@QAEXGPADPAGH@Z 1001fc40 f   BattleDialogs.obj
 0001:0001ed30       ?AddUpgToCml@CBattle@@QAEXAAVDString@@PADGGHH@Z 1001fd30 f   BattleDialogs.obj
 0001:0001f1a0       ?CheckUpg@CPlayerInfo@@QAEXG_N@Z 100201a0 f   BattleDialogs.obj
 0001:0001f720       ?CloseBattle@@YAXXZ        10020720 f   BattleDialogs.obj
 0001:0001f770       ?DoAttPause@@YAXPAUUnitType@@FEEH@Z 10020770 f   BattleDialogs.obj
 0001:0001f8c0       ?DoDamage@@YAXPAUUnitType@@FEEH@Z 100208c0 f   BattleDialogs.obj
 0001:0001fa10       ?DoProtect@@YAXPAUUnitType@@FEEH@Z 10020a10 f   BattleDialogs.obj
 0001:0001fae0       ?DoShield@@YAXPAUUnitType@@FEEH@Z 10020ae0 f   BattleDialogs.obj
 0001:0001fb50       ?Free@CBattle@@QAEXXZ      10020b50 f   BattleDialogs.obj
 0001:0001fcc0       ?GetCharacter@UnitType@@QAEXE@Z 10020cc0 f   BattleDialogs.obj
 0001:0001ff50       ?HandleBattleCml@@YAXPADPAPADHPAVParsedRQ@@@Z 10020f50 f   BattleDialogs.obj
 0001:000203c0       ?Init@CBattle@@QAEXXZ      100213c0 f   BattleDialogs.obj
 0001:000208a0       ?MakeDialog@CBattle@@QAEX_N@Z 100218a0 f   BattleDialogs.obj
 0001:00023b90       ?PerformBattleCommads@@YAXPADH@Z 10024b90 f   BattleDialogs.obj
 0001:00024240       ?Process@CBattle@@QAEXXZ   10025240 f   BattleDialogs.obj
 0001:000245a0       ?RunProtectUpg@@YAXEH@Z    100255a0 f   BattleDialogs.obj
 0001:000248b0       ?RunProtectUpg@UnitType@@QAEXEH@Z 100258b0 f   BattleDialogs.obj
 0001:00024b40       ?RunStartTimer@@YAXXZ      10025b40 f   BattleDialogs.obj
 0001:00024c30       ?RunUpgrades@CBattle@@QAEXXZ 10025c30 f   BattleDialogs.obj
 0001:00024de0       ?SetStartTimer@CBattle@@QAEXH@Z 10025de0 f   BattleDialogs.obj
 0001:00024e50       ?ShowTimer@CBattle@@QAEHXZ 10025e50 f   BattleDialogs.obj
 0001:00024f90       ?StartBattle@@YAXXZ        10025f90 f   BattleDialogs.obj
 0001:00024fe0       ?_Adjust_manually_vector_aligned@std@@YAXAAPAXAAI@Z 10025fe0 f i BattleDialogs.obj
 0001:00025170       ?_Adopt@_Iterator_base12@std@@QAEXPBU_Container_base12@2@@Z 10026170 f i BattleDialogs.obj
 0001:000251d0       ?_Adopt_locked@_Iterator_base12@std@@AAEXPBU_Container_base12@2@@Z 100261d0 f i BattleDialogs.obj
 0001:00025280       ?_Adopt_unlocked@_Iterator_base12@std@@AAEXPBU_Container_base12@2@@Z 10026280 f i BattleDialogs.obj
 0001:00025330       ?_Allocate@_Default_allocate_traits@std@@SAPAXI@Z 10026330 f i BattleDialogs.obj
 0001:00025380       ?_Assign_locked@_Iterator_base12@std@@AAEXABU12@@Z 10026380 f i BattleDialogs.obj
 0001:00025430       ?_Assign_unlocked@_Iterator_base12@std@@AAEXABU12@@Z 10026430 f i BattleDialogs.obj
 0001:000254b0       ?_Buy_nonzero@?$vector@GV?$allocator@G@std@@@std@@AAEXI@Z 100264b0 f i BattleDialogs.obj
 0001:00025520       ?_Buy_nonzero@?$vector@V?$vector@GV?$allocator@G@std@@@std@@V?$allocator@V?$vector@GV?$allocator@G@std@@@std@@@2@@std@@AAEXI@Z 10026520 f i BattleDialogs.obj
 0001:00025590       ?_Buy_raw@?$vector@GV?$allocator@G@std@@@std@@AAEXI@Z 10026590 f i BattleDialogs.obj
 0001:00025640       ?_Buy_raw@?$vector@V?$vector@GV?$allocator@G@std@@@std@@V?$allocator@V?$vector@GV?$allocator@G@std@@@std@@@2@@std@@AAEXI@Z 10026640 f i BattleDialogs.obj
 0001:000256f0       ?_Calculate_growth@?$vector@GV?$allocator@G@std@@@std@@ABEII@Z 100266f0 f i BattleDialogs.obj
 0001:00025790       ?_Calculate_growth@?$vector@V?$vector@GV?$allocator@G@std@@@std@@V?$allocator@V?$vector@GV?$allocator@G@std@@@std@@@2@@std@@ABEII@Z 10026790 f i BattleDialogs.obj
 0001:00025830       ?_Calculate_growth@?$vector@VCUpgCategory@@V?$allocator@VCUpgCategory@@@std@@@std@@ABEII@Z 10026830 f i BattleDialogs.obj
 0001:000258d0       ?_Change_array@?$vector@EV?$allocator@E@std@@@std@@AAEXQAEII@Z 100268d0 f i BattleDialogs.obj
 0001:000259d0       ?_Change_array@?$vector@FV?$allocator@F@std@@@std@@AAEXQAFII@Z 100269d0 f i BattleDialogs.obj
 0001:00025ad0       ?_Change_array@?$vector@GV?$allocator@G@std@@@std@@AAEXQAGII@Z 10026ad0 f i BattleDialogs.obj
 0001:00025bd0       ?_Change_array@?$vector@V?$vector@GV?$allocator@G@std@@@std@@V?$allocator@V?$vector@GV?$allocator@G@std@@@std@@@2@@std@@AAEXQAV?$vector@GV?$allocator@G@std@@@2@II@Z 10026bd0 f i BattleDialogs.obj
 0001:00025cd0       ?_Change_array@?$vector@VCUpgCategory@@V?$allocator@VCUpgCategory@@@std@@@std@@AAEXQAVCUpgCategory@@II@Z 10026cd0 f i BattleDialogs.obj
 0001:00025dd0       ?_Compat@?$_Vector_const_iterator@V?$_Vector_val@U?$_Simple_types@G@std@@@std@@@std@@QBEXABV12@@Z 10026dd0 f i BattleDialogs.obj
 0001:00025e90       ?_Compat@?$_Vector_const_iterator@V?$_Vector_val@U?$_Simple_types@V?$vector@GV?$allocator@G@std@@@std@@@std@@@std@@@std@@QBEXABV12@@Z 10026e90 f i BattleDialogs.obj
 0001:00025f50       ?_Compat@?$_Vector_const_iterator@V?$_Vector_val@U?$_Simple_types@VCUpgCategory@@@std@@@std@@@std@@QBEXABV12@@Z 10026f50 f i BattleDialogs.obj
 0001:00026010       ?_Get_first@?$_Compressed_pair@V?$allocator@E@std@@V?$_Vector_val@U?$_Simple_types@E@std@@@2@$00@std@@QAEAAV?$allocator@E@2@XZ 10027010 f i BattleDialogs.obj
 0001:00026030       ?_Get_first@?$_Compressed_pair@V?$allocator@E@std@@V?$_Vector_val@U?$_Simple_types@E@std@@@2@$00@std@@QBEABV?$allocator@E@2@XZ 10027030 f i BattleDialogs.obj
 0001:00026050       ?_Get_first@?$_Compressed_pair@V?$allocator@F@std@@V?$_Vector_val@U?$_Simple_types@F@std@@@2@$00@std@@QAEAAV?$allocator@F@2@XZ 10027050 f i BattleDialogs.obj
 0001:00026070       ?_Get_first@?$_Compressed_pair@V?$allocator@F@std@@V?$_Vector_val@U?$_Simple_types@F@std@@@2@$00@std@@QBEABV?$allocator@F@2@XZ 10027070 f i BattleDialogs.obj
 0001:00026090       ?_Get_first@?$_Compressed_pair@V?$allocator@G@std@@V?$_Vector_val@U?$_Simple_types@G@std@@@2@$00@std@@QAEAAV?$allocator@G@2@XZ 10027090 f i BattleDialogs.obj
 0001:000260b0       ?_Get_first@?$_Compressed_pair@V?$allocator@G@std@@V?$_Vector_val@U?$_Simple_types@G@std@@@2@$00@std@@QBEABV?$allocator@G@2@XZ 100270b0 f i BattleDialogs.obj
 0001:000260d0       ?_Get_first@?$_Compressed_pair@V?$allocator@V?$vector@GV?$allocator@G@std@@@std@@@std@@V?$_Vector_val@U?$_Simple_types@V?$vector@GV?$allocator@G@std@@@std@@@std@@@2@$00@std@@QAEAAV?$allocator@V?$vector@GV?$allocator@G@std@@@std@@@2@XZ 100270d0 f i BattleDialogs.obj
 0001:000260f0       ?_Get_first@?$_Compressed_pair@V?$allocator@V?$vector@GV?$allocator@G@std@@@std@@@std@@V?$_Vector_val@U?$_Simple_types@V?$vector@GV?$allocator@G@std@@@std@@@std@@@2@$00@std@@QBEABV?$allocator@V?$vector@GV?$allocator@G@std@@@std@@@2@XZ 100270f0 f i BattleDialogs.obj
 0001:00026110       ?_Get_first@?$_Compressed_pair@V?$allocator@VCUpgCategory@@@std@@V?$_Vector_val@U?$_Simple_types@VCUpgCategory@@@std@@@2@$00@std@@QAEAAV?$allocator@VCUpgCategory@@@2@XZ 10027110 f i BattleDialogs.obj
 0001:00026130       ?_Get_first@?$_Compressed_pair@V?$allocator@VCUpgCategory@@@std@@V?$_Vector_val@U?$_Simple_types@VCUpgCategory@@@std@@@2@$00@std@@QBEABV?$allocator@VCUpgCategory@@@2@XZ 10027130 f i BattleDialogs.obj
 0001:00026150       ?_Getal@?$vector@EV?$allocator@E@std@@@std@@AAEAAV?$allocator@E@2@XZ 10027150 f i BattleDialogs.obj
 0001:000261a0       ?_Getal@?$vector@EV?$allocator@E@std@@@std@@ABEABV?$allocator@E@2@XZ 100271a0 f i BattleDialogs.obj
 0001:000261f0       ?_Getal@?$vector@FV?$allocator@F@std@@@std@@AAEAAV?$allocator@F@2@XZ 100271f0 f i BattleDialogs.obj
 0001:00026240       ?_Getal@?$vector@FV?$allocator@F@std@@@std@@ABEABV?$allocator@F@2@XZ 10027240 f i BattleDialogs.obj
 0001:00026290       ?_Getal@?$vector@GV?$allocator@G@std@@@std@@AAEAAV?$allocator@G@2@XZ 10027290 f i BattleDialogs.obj
 0001:000262e0       ?_Getal@?$vector@GV?$allocator@G@std@@@std@@ABEABV?$allocator@G@2@XZ 100272e0 f i BattleDialogs.obj
 0001:00026330       ?_Getal@?$vector@V?$vector@GV?$allocator@G@std@@@std@@V?$allocator@V?$vector@GV?$allocator@G@std@@@std@@@2@@std@@AAEAAV?$allocator@V?$vector@GV?$allocator@G@std@@@std@@@2@XZ 10027330 f i BattleDialogs.obj
 0001:00026380       ?_Getal@?$vector@V?$vector@GV?$allocator@G@std@@@std@@V?$allocator@V?$vector@GV?$allocator@G@std@@@std@@@2@@std@@ABEABV?$allocator@V?$vector@GV?$allocator@G@std@@@std@@@2@XZ 10027380 f i BattleDialogs.obj
 0001:000263d0       ?_Getal@?$vector@VCUpgCategory@@V?$allocator@VCUpgCategory@@@std@@@std@@AAEAAV?$allocator@VCUpgCategory@@@2@XZ 100273d0 f i BattleDialogs.obj
 0001:00026420       ?_Getal@?$vector@VCUpgCategory@@V?$allocator@VCUpgCategory@@@std@@@std@@ABEABV?$allocator@VCUpgCategory@@@2@XZ 10027420 f i BattleDialogs.obj
 0001:00026470       ?_Getcont@_Iterator_base12@std@@QBEPBU_Container_base12@2@XZ 10027470 f i BattleDialogs.obj
 0001:000264c0       ?_Orphan_all@_Container_base12@std@@QAEXXZ 100274c0 f i BattleDialogs.obj
 0001:00026510       ?_Orphan_all_locked_v3@_Container_base12@std@@AAEXXZ 10027510 f i BattleDialogs.obj
 0001:000265b0       ?_Orphan_all_unlocked_v3@_Container_base12@std@@AAEXXZ 100275b0 f i BattleDialogs.obj
 0001:00026630       ?_Orphan_me_locked_v3@_Iterator_base12@std@@AAEXXZ 10027630 f i BattleDialogs.obj
 0001:000266d0       ?_Orphan_me_unlocked_v3@_Iterator_base12@std@@AAEXXZ 100276d0 f i BattleDialogs.obj
 0001:000267f0       ?_Orphan_range@?$vector@GV?$allocator@G@std@@@std@@ABEXPAG0@Z 100277f0 f i BattleDialogs.obj
 0001:00026850       ?_Orphan_range@?$vector@V?$vector@GV?$allocator@G@std@@@std@@V?$allocator@V?$vector@GV?$allocator@G@std@@@std@@@2@@std@@ABEXPAV?$vector@GV?$allocator@G@std@@@2@0@Z 10027850 f i BattleDialogs.obj
 0001:000268b0       ?_Orphan_range@?$vector@VCUpgCategory@@V?$allocator@VCUpgCategory@@@std@@@std@@ABEXPAVCUpgCategory@@0@Z 100278b0 f i BattleDialogs.obj
 0001:00026910       ?_Orphan_range_locked@?$vector@GV?$allocator@G@std@@@std@@ABEXPAG0@Z 10027910 f i BattleDialogs.obj
 0001:00026a00       ?_Orphan_range_locked@?$vector@V?$vector@GV?$allocator@G@std@@@std@@V?$allocator@V?$vector@GV?$allocator@G@std@@@std@@@2@@std@@ABEXPAV?$vector@GV?$allocator@G@std@@@2@0@Z 10027a00 f i BattleDialogs.obj
 0001:00026af0       ?_Orphan_range_locked@?$vector@VCUpgCategory@@V?$allocator@VCUpgCategory@@@std@@@std@@ABEXPAVCUpgCategory@@0@Z 10027af0 f i BattleDialogs.obj
 0001:00026be0       ?_Orphan_range_unlocked@?$vector@GV?$allocator@G@std@@@std@@ABEXPAG0@Z 10027be0 f i BattleDialogs.obj
 0001:00026c80       ?_Orphan_range_unlocked@?$vector@V?$vector@GV?$allocator@G@std@@@std@@V?$allocator@V?$vector@GV?$allocator@G@std@@@std@@@2@@std@@ABEXPAV?$vector@GV?$allocator@G@std@@@2@0@Z 10027c80 f i BattleDialogs.obj
 0001:00026d20       ?_Orphan_range_unlocked@?$vector@VCUpgCategory@@V?$allocator@VCUpgCategory@@@std@@@std@@ABEXPAVCUpgCategory@@0@Z 10027d20 f i BattleDialogs.obj
 0001:00026dc0       ?_Reallocate_exactly@?$vector@EV?$allocator@E@std@@@std@@AAEXI@Z 10027dc0 f i BattleDialogs.obj
 0001:00026f20       ?_Reallocate_exactly@?$vector@FV?$allocator@F@std@@@std@@AAEXI@Z 10027f20 f i BattleDialogs.obj
 0001:00027080       ?_Reallocate_exactly@?$vector@GV?$allocator@G@std@@@std@@AAEXI@Z 10028080 f i BattleDialogs.obj
 0001:000271e0       ?_Release@?$_Uninitialized_backout_al@V?$allocator@E@std@@@std@@QAEPAEXZ 100281e0 f i BattleDialogs.obj
 0001:00027210       ?_Release@?$_Uninitialized_backout_al@V?$allocator@F@std@@@std@@QAEPAFXZ 10028210 f i BattleDialogs.obj
 0001:00027240       ?_Release@?$_Uninitialized_backout_al@V?$allocator@G@std@@@std@@QAEPAGXZ 10028240 f i BattleDialogs.obj
 0001:00027270       ?_Release@?$_Uninitialized_backout_al@V?$allocator@V?$vector@GV?$allocator@G@std@@@std@@@std@@@std@@QAEPAV?$vector@GV?$allocator@G@std@@@2@XZ 10028270 f i BattleDialogs.obj
 0001:000272a0       ?_Release@?$_Uninitialized_backout_al@V?$allocator@VCUpgCategory@@@std@@@std@@QAEPAVCUpgCategory@@XZ 100282a0 f i BattleDialogs.obj
 0001:000272d0       ?_Release@_Basic_container_proxy_ptr12@std@@QAEXXZ 100282d0 f i BattleDialogs.obj
 0001:00027300       ?_Swap_proxy_and_iterators@_Container_base12@std@@QAEXAAU12@@Z 10028300 f i BattleDialogs.obj
 0001:00027360       ?_Swap_proxy_and_iterators_locked@_Container_base12@std@@AAEXAAU12@@Z 10028360 f i BattleDialogs.obj
 0001:00027410       ?_Swap_proxy_and_iterators_unlocked@_Container_base12@std@@AAEXAAU12@@Z 10028410 f i BattleDialogs.obj
 0001:00027480       ?_Take_contents@?$_Vector_val@U?$_Simple_types@G@std@@@std@@QAEXAAV12@@Z 10028480 f i BattleDialogs.obj
 0001:00027530       ?_Throw_bad_array_new_length@std@@YAXXZ 10028530 f i BattleDialogs.obj
 0001:00027590       ?_Tidy@?$vector@GV?$allocator@G@std@@@std@@AAEXXZ 10028590 f i BattleDialogs.obj
 0001:000276c0       ?_Tidy@?$vector@V?$vector@GV?$allocator@G@std@@@std@@V?$allocator@V?$vector@GV?$allocator@G@std@@@std@@@2@@std@@AAEXXZ 100286c0 f i BattleDialogs.obj
 0001:000277f0       ?_Verify_offset@?$_Vector_const_iterator@V?$_Vector_val@U?$_Simple_types@G@std@@@std@@@std@@QBEXH@Z 100287f0 f i BattleDialogs.obj
 0001:000279a0       ?_Verify_offset@?$_Vector_const_iterator@V?$_Vector_val@U?$_Simple_types@V?$vector@GV?$allocator@G@std@@@std@@@std@@@std@@@std@@QBEXH@Z 100289a0 f i BattleDialogs.obj
 0001:00027b60       ?_Xlength@?$vector@EV?$allocator@E@std@@@std@@CAXXZ 10028b60 f i BattleDialogs.obj
 0001:00027bb0       ?_Xlength@?$vector@FV?$allocator@F@std@@@std@@CAXXZ 10028bb0 f i BattleDialogs.obj
 0001:00027c00       ?_Xlength@?$vector@GV?$allocator@G@std@@@std@@CAXXZ 10028c00 f i BattleDialogs.obj
 0001:00027c50       ?_Xlength@?$vector@V?$vector@GV?$allocator@G@std@@@std@@V?$allocator@V?$vector@GV?$allocator@G@std@@@std@@@2@@std@@CAXXZ 10028c50 f i BattleDialogs.obj
 0001:00027ca0       ?_Xlength@?$vector@VCUpgCategory@@V?$allocator@VCUpgCategory@@@std@@@std@@CAXXZ 10028ca0 f i BattleDialogs.obj
 0001:00027cf0       ?allocate@?$allocator@E@std@@QAEPAEI@Z 10028cf0 f i BattleDialogs.obj
 0001:00027d50       ?allocate@?$allocator@F@std@@QAEPAFI@Z 10028d50 f i BattleDialogs.obj
 0001:00027db0       ?allocate@?$allocator@G@std@@QAEPAGI@Z 10028db0 f i BattleDialogs.obj
 0001:00027e10       ?allocate@?$allocator@U_Container_proxy@std@@@std@@QAEPAU_Container_proxy@2@I@Z 10028e10 f i BattleDialogs.obj
 0001:00027e70       ?allocate@?$allocator@V?$vector@GV?$allocator@G@std@@@std@@@std@@QAEPAV?$vector@GV?$allocator@G@std@@@2@I@Z 10028e70 f i BattleDialogs.obj
 0001:00027ed0       ?allocate@?$allocator@VCUpgCategory@@@std@@QAEPAVCUpgCategory@@I@Z 10028ed0 f i BattleDialogs.obj
 0001:00027f30       ?back@?$vector@GV?$allocator@G@std@@@std@@QAEAAGXZ 10028f30 f i BattleDialogs.obj
 0001:00028000       ?begin@?$vector@GV?$allocator@G@std@@@std@@QAE?AV?$_Vector_iterator@V?$_Vector_val@U?$_Simple_types@G@std@@@std@@@2@XZ 10029000 f i BattleDialogs.obj
 0001:00028080       ?begin@?$vector@V?$vector@GV?$allocator@G@std@@@std@@V?$allocator@V?$vector@GV?$allocator@G@std@@@std@@@2@@std@@QAE?AV?$_Vector_iterator@V?$_Vector_val@U?$_Simple_types@V?$vector@GV?$allocator@G@std@@@std@@@std@@@std@@@2@XZ 10029080 f i BattleDialogs.obj
 0001:00028100       ?begin@?$vector@VCUpgCategory@@V?$allocator@VCUpgCategory@@@std@@@std@@QAE?AV?$_Vector_iterator@V?$_Vector_val@U?$_Simple_types@VCUpgCategory@@@std@@@std@@@2@XZ 10029100 f i BattleDialogs.obj
 0001:00028180       ?capacity@?$vector@EV?$allocator@E@std@@@std@@QBEIXZ 10029180 f i BattleDialogs.obj
 0001:000281c0       ?capacity@?$vector@FV?$allocator@F@std@@@std@@QBEIXZ 100291c0 f i BattleDialogs.obj
 0001:00028200       ?capacity@?$vector@GV?$allocator@G@std@@@std@@QBEIXZ 10029200 f i BattleDialogs.obj
 0001:00028240       ?capacity@?$vector@V?$vector@GV?$allocator@G@std@@@std@@V?$allocator@V?$vector@GV?$allocator@G@std@@@std@@@2@@std@@QBEIXZ 10029240 f i BattleDialogs.obj
 0001:00028280       ?capacity@?$vector@VCUpgCategory@@V?$allocator@VCUpgCategory@@@std@@@std@@QBEIXZ 10029280 f i BattleDialogs.obj
 0001:000282c0       ?clear@?$vector@GV?$allocator@G@std@@@std@@QAEXXZ 100292c0 f i BattleDialogs.obj
 0001:00028370       ?deallocate@?$_Default_allocator_traits@V?$allocator@U_Container_proxy@std@@@std@@@std@@SAXAAV?$allocator@U_Container_proxy@std@@@2@QAU_Container_proxy@2@I@Z 10029370 f i BattleDialogs.obj
 0001:000283c0       ?deallocate@?$allocator@E@std@@QAEXQAEI@Z 100293c0 f i BattleDialogs.obj
 0001:00028490       ?deallocate@?$allocator@F@std@@QAEXQAFI@Z 10029490 f i BattleDialogs.obj
 0001:00028560       ?deallocate@?$allocator@G@std@@QAEXQAGI@Z 10029560 f i BattleDialogs.obj
 0001:00028630       ?deallocate@?$allocator@V?$vector@GV?$allocator@G@std@@@std@@@std@@QAEXQAV?$vector@GV?$allocator@G@std@@@2@I@Z 10029630 f i BattleDialogs.obj
 0001:00028700       ?deallocate@?$allocator@VCUpgCategory@@@std@@QAEXQAVCUpgCategory@@I@Z 10029700 f i BattleDialogs.obj
 0001:000287d0       ?empty@?$vector@GV?$allocator@G@std@@@std@@QBE_NXZ 100297d0 f i BattleDialogs.obj
 0001:00028830       ?end@?$vector@GV?$allocator@G@std@@@std@@QAE?AV?$_Vector_iterator@V?$_Vector_val@U?$_Simple_types@G@std@@@std@@@2@XZ 10029830 f i BattleDialogs.obj
 0001:000288b0       ?end@?$vector@V?$vector@GV?$allocator@G@std@@@std@@V?$allocator@V?$vector@GV?$allocator@G@std@@@std@@@2@@std@@QAE?AV?$_Vector_iterator@V?$_Vector_val@U?$_Simple_types@V?$vector@GV?$allocator@G@std@@@std@@@std@@@std@@@2@XZ 100298b0 f i BattleDialogs.obj
 0001:00028930       ?end@?$vector@VCUpgCategory@@V?$allocator@VCUpgCategory@@@std@@@std@@QAE?AV?$_Vector_iterator@V?$_Vector_val@U?$_Simple_types@VCUpgCategory@@@std@@@std@@@2@XZ 10029930 f i BattleDialogs.obj
 0001:000289b0       ?erase@?$vector@V?$vector@GV?$allocator@G@std@@@std@@V?$allocator@V?$vector@GV?$allocator@G@std@@@std@@@2@@std@@QAE?AV?$_Vector_iterator@V?$_Vector_val@U?$_Simple_types@V?$vector@GV?$allocator@G@std@@@std@@@std@@@std@@@2@V?$_Vector_const_iterator@V?$_Vector_val@U?$_Simple_types@V?$vector@GV?$allocator@G@std@@@std@@@std@@@std@@@2@@Z 100299b0 f i BattleDialogs.obj
 0001:00028b90       ?front@?$vector@GV?$allocator@G@std@@@std@@QAEAAGXZ 10029b90 f i BattleDialogs.obj
 0001:00028c60       ?max@?$numeric_limits@H@std@@SAHXZ 10029c60 f i BattleDialogs.obj
 0001:00028c80       ?max_size@?$_Default_allocator_traits@V?$allocator@E@std@@@std@@SAIABV?$allocator@E@2@@Z 10029c80 f i BattleDialogs.obj
 0001:00028ca0       ?max_size@?$_Default_allocator_traits@V?$allocator@F@std@@@std@@SAIABV?$allocator@F@2@@Z 10029ca0 f i BattleDialogs.obj
 0001:00028cc0       ?max_size@?$_Default_allocator_traits@V?$allocator@G@std@@@std@@SAIABV?$allocator@G@2@@Z 10029cc0 f i BattleDialogs.obj
 0001:00028ce0       ?max_size@?$_Default_allocator_traits@V?$allocator@V?$vector@GV?$allocator@G@std@@@std@@@std@@@std@@SAIABV?$allocator@V?$vector@GV?$allocator@G@std@@@std@@@2@@Z 10029ce0 f i BattleDialogs.obj
 0001:00028d00       ?max_size@?$_Default_allocator_traits@V?$allocator@VCUpgCategory@@@std@@@std@@SAIABV?$allocator@VCUpgCategory@@@2@@Z 10029d00 f i BattleDialogs.obj
 0001:00028d20       ?max_size@?$vector@EV?$allocator@E@std@@@std@@QBEIXZ 10029d20 f i BattleDialogs.obj
 0001:00028db0       ?max_size@?$vector@FV?$allocator@F@std@@@std@@QBEIXZ 10029db0 f i BattleDialogs.obj
 0001:00028e40       ?max_size@?$vector@GV?$allocator@G@std@@@std@@QBEIXZ 10029e40 f i BattleDialogs.obj
 0001:00028ed0       ?max_size@?$vector@V?$vector@GV?$allocator@G@std@@@std@@V?$allocator@V?$vector@GV?$allocator@G@std@@@std@@@2@@std@@QBEIXZ 10029ed0 f i BattleDialogs.obj
 0001:00028f60       ?max_size@?$vector@VCUpgCategory@@V?$allocator@VCUpgCategory@@@std@@@std@@QBEIXZ 10029f60 f i BattleDialogs.obj
 0001:00028ff0       ?pop_back@?$vector@GV?$allocator@G@std@@@std@@QAEXXZ 10029ff0 f i BattleDialogs.obj
 0001:00029150       ?push_back@?$vector@GV?$allocator@G@std@@@std@@QAEXABG@Z 1002a150 f i BattleDialogs.obj
 0001:000291b0       ?push_back@?$vector@V?$vector@GV?$allocator@G@std@@@std@@V?$allocator@V?$vector@GV?$allocator@G@std@@@std@@@2@@std@@QAEX$$QAV?$vector@GV?$allocator@G@std@@@2@@Z 1002a1b0 f i BattleDialogs.obj
 0001:00029210       ?push_back@?$vector@VCUpgCategory@@V?$allocator@VCUpgCategory@@@std@@@std@@QAEX$$QAVCUpgCategory@@@Z 1002a210 f i BattleDialogs.obj
 0001:00029270       ?reserve@?$vector@EV?$allocator@E@std@@@std@@QAEXI@Z 1002a270 f i BattleDialogs.obj
 0001:000292f0       ?reserve@?$vector@FV?$allocator@F@std@@@std@@QAEXI@Z 1002a2f0 f i BattleDialogs.obj
 0001:00029370       ?reserve@?$vector@GV?$allocator@G@std@@@std@@QAEXI@Z 1002a370 f i BattleDialogs.obj
 0001:000293f0       ?select_on_container_copy_construction@?$_Default_allocator_traits@V?$allocator@G@std@@@std@@SA?AV?$allocator@G@2@ABV32@@Z 1002a3f0 f i BattleDialogs.obj
 0001:00029410       ?select_on_container_copy_construction@?$_Default_allocator_traits@V?$allocator@V?$vector@GV?$allocator@G@std@@@std@@@std@@@std@@SA?AV?$allocator@V?$vector@GV?$allocator@G@std@@@std@@@2@ABV32@@Z 1002a410 f i BattleDialogs.obj
 0001:00029430       ?size@?$vector@GV?$allocator@G@std@@@std@@QBEIXZ 1002a430 f i BattleDialogs.obj
 0001:00029470       ?size@?$vector@V?$vector@GV?$allocator@G@std@@@std@@V?$allocator@V?$vector@GV?$allocator@G@std@@@std@@@2@@std@@QBEIXZ 1002a470 f i BattleDialogs.obj
 0001:000294b0       ?what@exception@std@@UBEPBDXZ 1002a4b0 f i BattleDialogs.obj
 0001:00029500       ??0?$DynArray@G$0P@@@QAE@XZ 1002a500 f i CityPopulation.obj
 0001:00029550       ??0?$DynArray@H$0P@@@QAE@XZ 1002a550 f i CityPopulation.obj
 0001:000295a0       ??0?$DynArray@PAVBildType@@$0P@@@QAE@XZ 1002a5a0 f i CityPopulation.obj
 0001:000295f0       ??0?$DynArray@PAVCityBild@@$0P@@@QAE@XZ 1002a5f0 f i CityPopulation.obj
 0001:00029640       ??0?$DynArray@PAVCityzen@@$0P@@@QAE@XZ 1002a640 f i CityPopulation.obj
 0001:00029690       ??0?$DynArray@PAVCityzenType@@$0P@@@QAE@XZ 1002a690 f i CityPopulation.obj
 0001:000296e0       ??0?$DynArray@USBorn@@$0P@@@QAE@XZ 1002a6e0 f i CityPopulation.obj
 0001:00029730       ??0?$DynArray@USComeIn@@$0P@@@QAE@XZ 1002a730 f i CityPopulation.obj
 0001:00029780       ??0BildType@@QAE@XZ        1002a780 f   CityPopulation.obj
 0001:00029840       ??0CityBild@@QAE@XZ        1002a840 f   CityPopulation.obj
 0001:00029900       ??0CityPopulation@@QAE@XZ  1002a900 f   CityPopulation.obj
 0001:00029930       ??0Cityzen@@QAE@XZ         1002a930 f   CityPopulation.obj
 0001:00029a30       ??0CityzenType@@QAE@XZ     1002aa30 f   CityPopulation.obj
 0001:00029bd0       ??1?$DynArray@G$0P@@@QAE@XZ 1002abd0 f i CityPopulation.obj
 0001:00029c60       ??1?$DynArray@H$0P@@@QAE@XZ 1002ac60 f i CityPopulation.obj
 0001:00029cf0       ??1?$DynArray@PAVBildType@@$0P@@@QAE@XZ 1002acf0 f i CityPopulation.obj
 0001:00029d80       ??1?$DynArray@PAVCityBild@@$0P@@@QAE@XZ 1002ad80 f i CityPopulation.obj
 0001:00029e10       ??1?$DynArray@PAVCityzen@@$0P@@@QAE@XZ 1002ae10 f i CityPopulation.obj
 0001:00029ea0       ??1?$DynArray@PAVCityzenType@@$0P@@@QAE@XZ 1002aea0 f i CityPopulation.obj
 0001:00029f30       ??1?$DynArray@USBorn@@$0P@@@QAE@XZ 1002af30 f i CityPopulation.obj
 0001:00029fc0       ??1?$DynArray@USComeIn@@$0P@@@QAE@XZ 1002afc0 f i CityPopulation.obj
 0001:0002a050       ??1BildType@@QAE@XZ        1002b050 f   CityPopulation.obj
 0001:0002a0c0       ??1CityBild@@QAE@XZ        1002b0c0 f   CityPopulation.obj
 0001:0002a120       ??1CityPopulation@@QAE@XZ  1002b120 f   CityPopulation.obj
 0001:0002a1b0       ??1Cityzen@@QAE@XZ         1002b1b0 f   CityPopulation.obj
 0001:0002a210       ??1CityzenType@@QAE@XZ     1002b210 f   CityPopulation.obj
 0001:0002a290       ??A?$DynArray@G$0P@@@QAEAAGH@Z 1002b290 f i CityPopulation.obj
 0001:0002a350       ??A?$DynArray@H$0P@@@QAEAAHH@Z 1002b350 f i CityPopulation.obj
 0001:0002a410       ??A?$DynArray@PAVBildType@@$0P@@@QAEAAPAVBildType@@H@Z 1002b410 f i CityPopulation.obj
 0001:0002a4d0       ??A?$DynArray@PAVCityBild@@$0P@@@QAEAAPAVCityBild@@H@Z 1002b4d0 f i CityPopulation.obj
 0001:0002a590       ??A?$DynArray@PAVCityzen@@$0P@@@QAEAAPAVCityzen@@H@Z 1002b590 f i CityPopulation.obj
 0001:0002a650       ??A?$DynArray@PAVCityzenType@@$0P@@@QAEAAPAVCityzenType@@H@Z 1002b650 f i CityPopulation.obj
 0001:0002a710       ??A?$DynArray@USBorn@@$0P@@@QAEAAUSBorn@@H@Z 1002b710 f i CityPopulation.obj
 0001:0002a7d0       ??A?$DynArray@USComeIn@@$0P@@@QAEAAUSComeIn@@H@Z 1002b7d0 f i CityPopulation.obj
 0001:0002a890       ??_GBildType@@QAEPAXI@Z    1002b890 f i CityPopulation.obj
 0001:0002a900       ??_GCityBild@@QAEPAXI@Z    1002b900 f i CityPopulation.obj
 0001:0002a970       ??_GCityzen@@QAEPAXI@Z     1002b970 f i CityPopulation.obj
 0001:0002a9e0       ??_GCityzenType@@QAEPAXI@Z 1002b9e0 f i CityPopulation.obj
 0001:0002aa50       ?Add@?$DynArray@G$0P@@@QAEHABG@Z 1002ba50 f i CityPopulation.obj
 0001:0002aaf0       ?Add@?$DynArray@H$0P@@@QAEHABH@Z 1002baf0 f i CityPopulation.obj
 0001:0002ab80       ?Add@?$DynArray@PAVBildType@@$0P@@@QAEHABQAVBildType@@@Z 1002bb80 f i CityPopulation.obj
 0001:0002ac10       ?Add@?$DynArray@PAVCityBild@@$0P@@@QAEHABQAVCityBild@@@Z 1002bc10 f i CityPopulation.obj
 0001:0002aca0       ?Add@?$DynArray@PAVCityzen@@$0P@@@QAEHABQAVCityzen@@@Z 1002bca0 f i CityPopulation.obj
 0001:0002ad30       ?Add@?$DynArray@PAVCityzenType@@$0P@@@QAEHABQAVCityzenType@@@Z 1002bd30 f i CityPopulation.obj
 0001:0002adc0       ?Add@?$DynArray@USBorn@@$0P@@@QAEHABUSBorn@@@Z 1002bdc0 f i CityPopulation.obj
 0001:0002ae70       ?Add@?$DynArray@USComeIn@@$0P@@@QAEHABUSComeIn@@@Z 1002be70 f i CityPopulation.obj
 0001:0002af20       ?BirthCallback@CityPopulation@@SAHH@Z 1002bf20 f   CityPopulation.obj
 0001:0002b160       ?Check@?$DynArray@G$0P@@@QAEXH@Z 1002c160 f i CityPopulation.obj
 0001:0002b270       ?Check@?$DynArray@H$0P@@@QAEXH@Z 1002c270 f i CityPopulation.obj
 0001:0002b380       ?Check@?$DynArray@PAVBildType@@$0P@@@QAEXH@Z 1002c380 f i CityPopulation.obj
 0001:0002b490       ?Check@?$DynArray@PAVCityBild@@$0P@@@QAEXH@Z 1002c490 f i CityPopulation.obj
 0001:0002b5a0       ?Check@?$DynArray@PAVCityzen@@$0P@@@QAEXH@Z 1002c5a0 f i CityPopulation.obj
 0001:0002b6b0       ?Check@?$DynArray@PAVCityzenType@@$0P@@@QAEXH@Z 1002c6b0 f i CityPopulation.obj
 0001:0002b7c0       ?Check@?$DynArray@USBorn@@$0P@@@QAEXH@Z 1002c7c0 f i CityPopulation.obj
 0001:0002b8d0       ?Check@?$DynArray@USComeIn@@$0P@@@QAEXH@Z 1002c8d0 f i CityPopulation.obj
 0001:0002b9e0       ?Clear@?$DynArray@G$0P@@@QAEXXZ 1002c9e0 f i CityPopulation.obj
 0001:0002ba70       ?Clear@?$DynArray@H$0P@@@QAEXXZ 1002ca70 f i CityPopulation.obj
 0001:0002bb00       ?Clear@?$DynArray@PAVBildType@@$0P@@@QAEXXZ 1002cb00 f i CityPopulation.obj
 0001:0002bb90       ?Clear@?$DynArray@PAVCityBild@@$0P@@@QAEXXZ 1002cb90 f i CityPopulation.obj
 0001:0002bc20       ?Clear@?$DynArray@PAVCityzen@@$0P@@@QAEXXZ 1002cc20 f i CityPopulation.obj
 0001:0002bcb0       ?Clear@?$DynArray@PAVCityzenType@@$0P@@@QAEXXZ 1002ccb0 f i CityPopulation.obj
 0001:0002bd40       ?Clear@?$DynArray@USBorn@@$0P@@@QAEXXZ 1002cd40 f i CityPopulation.obj
 0001:0002bdd0       ?Clear@?$DynArray@USComeIn@@$0P@@@QAEXXZ 1002cdd0 f i CityPopulation.obj
 0001:0002be60       ?Clear@CityPopulation@@QAEXXZ 1002ce60 f   CityPopulation.obj
 0001:0002c1a0       ?Del@?$DynArray@PAVCityzen@@$0P@@@QAEXHH@Z 1002d1a0 f i CityPopulation.obj
 0001:0002c2a0       ?ExecuteActions@Cityzen@@QAEXH@Z 1002d2a0 f   CityPopulation.obj
 0001:0002c630       ?GetAmount@?$DynArray@G$0P@@@QBEHXZ 1002d630 f i CityPopulation.obj
 0001:0002c660       ?GetAmount@?$DynArray@H$0P@@@QBEHXZ 1002d660 f i CityPopulation.obj
 0001:0002c690       ?GetAmount@?$DynArray@PAVBildType@@$0P@@@QBEHXZ 1002d690 f i CityPopulation.obj
 0001:0002c6c0       ?GetAmount@?$DynArray@PAVCityBild@@$0P@@@QBEHXZ 1002d6c0 f i CityPopulation.obj
 0001:0002c6f0       ?GetAmount@?$DynArray@PAVCityzen@@$0P@@@QBEHXZ 1002d6f0 f i CityPopulation.obj
 0001:0002c720       ?GetAmount@?$DynArray@PAVCityzenType@@$0P@@@QBEHXZ 1002d720 f i CityPopulation.obj
 0001:0002c750       ?GetAmount@?$DynArray@USBorn@@$0P@@@QBEHXZ 1002d750 f i CityPopulation.obj
 0001:0002c780       ?GetAmount@?$DynArray@USComeIn@@$0P@@@QBEHXZ 1002d780 f i CityPopulation.obj
 0001:0002c7b0       ?GetBildTypeIndexByName@CityPopulation@@QAEHPBD@Z 1002d7b0 f   CityPopulation.obj
 0001:0002c890       ?GetCityzenTypeIndexByName@CityPopulation@@QAEHPBD@Z 1002d890 f   CityPopulation.obj
 0001:0002c970       ?GetRandActions@Cityzen@@QAEHXZ 1002d970 f   CityPopulation.obj
 0001:0002cab0       ?GetSweetHomeIndex@Cityzen@@QAEHXZ 1002dab0 f   CityPopulation.obj
 0001:0002cd50       ?GetUnitTypeIndex@CityPopulation@@QAEHPBDPAUGAMEOBJ@@@Z 1002dd50 f   CityPopulation.obj
 0001:0002ceb0       ?Init@CityPopulation@@QAEXXZ 1002deb0 f   CityPopulation.obj
 0001:0002cf10       ?Load@BildType@@QAEXPAVxmlQuote@@@Z 1002df10 f   CityPopulation.obj
 0001:0002d1a0       ?Load@CityzenType@@QAEXPAVxmlQuote@@@Z 1002e1a0 f   CityPopulation.obj
 0001:0002d770       ?LoadFromFile@CityPopulation@@QAEXPAD@Z 1002e770 f   CityPopulation.obj
 0001:0002dea0       ?Process@CityBild@@QAEXXZ  1002eea0 f   CityPopulation.obj
 0001:0002e130       ?Process@CityPopulation@@QAEXXZ 1002f130 f   CityPopulation.obj
 0001:0002e370       ?Process@Cityzen@@QAEXXZ   1002f370 f   CityPopulation.obj
 0001:0002e750       ?ResearchMap@CityPopulation@@QAEXXZ 1002f750 f   CityPopulation.obj
 0001:0002ea90       ?SetMeeting@Cityzen@@QAEXXZ 1002fa90 f   CityPopulation.obj
 0001:0002ee20       ?ReadWinString@@YA_NPAVGFILE@@PADH@Z 1002fe20 f   DipInit.obj
 0001:0002ef40       ??0?$DynArray@UHealGroup@@$0P@@@QAE@XZ 1002ff40 f i DiplomacySystem.obj
 0001:0002ef90       ??0DiplomacySystem@@QAE@XZ 1002ff90 f   DiplomacySystem.obj
 0001:0002f070       ??1NewFrame@@UAE@XZ        10030070 f i DiplomacySystem.obj
 0001:0002f0d0       ??_ENewFrame@@UAEPAXI@Z    100300d0 f i DiplomacySystem.obj
 0001:0002f1e0       ?Add@?$DynArray@UHealGroup@@$0P@@@QAEHABUHealGroup@@@Z 100301e0 f i DiplomacySystem.obj
 0001:0002f280       ?AddAnimals@@YA_NPAUGAMEOBJ@@0@Z 10030280 f   DiplomacySystem.obj
 0001:0002f660       ?AddCannon@@YAXPAUGAMEOBJ@@E@Z 10030660 f   DiplomacySystem.obj
 0001:0002f6b0       ?AddCannon@DiplomacySystem@@QAEXPAUGAMEOBJ@@E@Z 100306b0 f   DiplomacySystem.obj
 0001:0002f930       ?AddDipCenter@DiplomacySystem@@QAEGPAD000@Z 10030930 f   DiplomacySystem.obj
 0001:0002fb10       ?AddFirers@@YAXPAUGAMEOBJ@@E@Z 10030b10 f   DiplomacySystem.obj
 0001:0002fb60       ?AddFirers@DiplomacySystem@@QAEXPAUGAMEOBJ@@E@Z 10030b60 f   DiplomacySystem.obj
 0001:0002fd80       ?AddHealers@@YAXPAUGAMEOBJ@@E@Z 10030d80 f   DiplomacySystem.obj
 0001:0002fdd0       ?AddHealers@DiplomacySystem@@QAEXPAUGAMEOBJ@@E@Z 10030dd0 f   DiplomacySystem.obj
 0001:0002ff60       ?AddKillers@DiplomacySystem@@QAEXPAUGAMEOBJ@@E_N@Z 10030f60 f   DiplomacySystem.obj
 0001:00030180       ?AddNewZooGroup@DiplomacySystem@@QAEXPAUZooGroup@@@Z 10031180 f   DiplomacySystem.obj
 0001:00030250       ?AddPsKillers@@YAXPAUGAMEOBJ@@E_N@Z 10031250 f   DiplomacySystem.obj
 0001:000302a0       ?AddStorm@@YAXPAUGAMEOBJ@@EH@Z 100312a0 f   DiplomacySystem.obj
 0001:00030300       ?AddStorm@DiplomacySystem@@QAEPAUStormGroup@@PAUGAMEOBJ@@EH@Z 10031300 f   DiplomacySystem.obj
 0001:000309d0       ?AddStormSingleUnitMotion@@YAXPAUGAMEOBJ@@EH@Z 100319d0 f   DiplomacySystem.obj
 0001:00030a40       ?AddTomahawks@@YAXPAUGAMEOBJ@@EGHH@Z 10031a40 f   DiplomacySystem.obj
 0001:00030a90       ?AddTomahawks@DiplomacySystem@@QAEXPAUGAMEOBJ@@EGHH@Z 10031a90 f   DiplomacySystem.obj
 0001:00030df0       ?AddWalker@DiplomacySystem@@QAEXG@Z 10031df0 f   DiplomacySystem.obj
 0001:00030f70       ?AddZooBirthZone@DiplomacySystem@@QAEXPAUZooBirthZone@@@Z 10031f70 f   DiplomacySystem.obj
 0001:00031040       ?Cannon2Alex@@YAXPAUGAMEOBJ@@E@Z 10032040 f   DiplomacySystem.obj
 0001:00031090       ?Cannon2Alex@DiplomacySystem@@QAEXPAUGAMEOBJ@@E@Z 10032090 f   DiplomacySystem.obj
 0001:00031260       ?Check@?$DynArray@UHealGroup@@$0P@@@QAEXH@Z 10032260 f i DiplomacySystem.obj
 0001:00031370       ?CreateContactsList@DiplomacySystem@@QAE_N_N@Z 10032370 f   DiplomacySystem.obj
 0001:00031780       ?GetAmount@?$DynArray@UHealGroup@@$0P@@@QBEHXZ 10032780 f i DiplomacySystem.obj
 0001:000317b0       ?GetDipSimpleBuildings@@YAXAAHAAPAPAVDIP_SimpleBuilding@@@Z 100327b0 f   DiplomacySystem.obj
 0001:000317f0       ?GetFreezeDipSysProcess@@YA_NXZ 100327f0 f   DiplomacySystem.obj
 0001:00031810       ?Norma@@YAHHH@Z            10032810 f   DiplomacySystem.obj
 0001:00031880       ?PerformCommand@DiplomacySystem@@QAEXPADH@Z 10032880 f   DiplomacySystem.obj
 0001:00031940       ?Process@DiplomacySystem@@QAEXXZ 10032940 f   DiplomacySystem.obj
 0001:00037820       ?ProcessZoology@DiplomacySystem@@QAEXXZ 10038820 f   DiplomacySystem.obj
 0001:00038e40       ?ResearchMap@DiplomacySystem@@QAEXXZ 10039e40 f   DiplomacySystem.obj
 0001:00039fe0       ?SetAI@DiplomacySystem@@QAE_NEHH@Z 1003afe0 f   DiplomacySystem.obj
 0001:0003a060       ?SetAIForDiplo@@YA_NEHH@Z  1003b060 f   DiplomacySystem.obj
 0001:0003a0c0       ?SetCallBacks@DiplomacySystem@@QAEXXZ 1003b0c0 f   DiplomacySystem.obj
 0001:0003a180       ?SetFreezeDipSysProcess@@YAX_N@Z 1003b180 f   DiplomacySystem.obj
 0001:0003a1b0       ?SetZone@@YAXPAUGAMEOBJ@@HHH@Z 1003b1b0 f   DiplomacySystem.obj
 0001:0003a200       ?VAI@@YAPAVVAI_IExchange@@XZ 1003b200 f i DiplomacySystem.obj
 0001:0003a310       ??1?$DynArray@UHealGroup@@$0P@@@QAE@XZ 1003b310 f i DipMain.obj
 0001:0003a3a0       ??1DiplomacySystem@@QAE@XZ 1003b3a0 f i DipMain.obj
 0001:0003a400       ?Clear@?$DynArray@UHealGroup@@$0P@@@QAEXXZ 1003b400 f i DipMain.obj
 0001:0003a490       ?ClearAllDipData@@YAXXZ    1003b490 f   DipMain.obj
 0001:0003a7a0       ?FreeSaveDipData@@YAXPAE@Z 1003b7a0 f   DipMain.obj
 0001:0003a810       ?HandleDipRequest@@YAXPADPAVParsedRQ@@1@Z 1003b810 f   DipMain.obj
 0001:0003a830       ?Handle_dipcomm@@YAXPADPAPADHPAVParsedRQ@@@Z 1003b830 f   DipMain.obj
 0001:0003b550       ?InitDipForThisMap@@YAXXZ  1003c550 f   DipMain.obj
 0001:0003b5b0       ?LoadAllDipData@@YAXPAEH@Z 1003c5b0 f   DipMain.obj
 0001:0003be00       ?PerformDipCommand@@YAXPADH@Z 1003ce00 f   DipMain.obj
 0001:0003be80       ?ProcessDipRelations@@YAXXZ 1003ce80 f   DipMain.obj
 0001:0003bfe0       ?SaveAllDipData@@YAXPAPAEPAH@Z 1003cfe0 f   DipMain.obj
 0001:0003ca30       ??$_get_cmemb@VGroupExInfo@@@@YAPAVGroupExInfo@@PAV0@PBD@Z 1003da30 f i DipServer.obj
 0001:0003cc40       ??$_get_cmemb@VUpgArray@SettlementInfo@@@@YAPAVUpgArray@SettlementInfo@@PAV01@PBD@Z 1003dc40 f i DipServer.obj
 0001:0003ce50       ??$_get_cmemb@V_BYTE@@@@YAPAV_BYTE@@PAV0@PBD@Z 1003de50 f i DipServer.obj
 0001:0003d0a0       ??$_get_cmemb@V_str@@@@YAPAV_str@@PAV0@PBD@Z 1003e0a0 f i DipServer.obj
 0001:0003d2f0       ??$reg_auto@VUpgArray@SettlementInfo@@@@YAXPAVBaseClass@@AAVUpgArray@SettlementInfo@@PBDPAXK@Z 1003e2f0 f i DipServer.obj
 0001:0003d4a0       ??$reg_auto@V_str@@@@YAXPAVBaseClass@@AAV_str@@PBDPAXK@Z 1003e4a0 f i DipServer.obj
 0001:0003d650       ??$reg_class@VGroupExInfo@@@@YAXPAVGroupExInfo@@PAD@Z 1003e650 f i DipServer.obj
 0001:0003d6c0       ??$reg_class@VSetlUpgrade@@@@YAXPAVSetlUpgrade@@PAD@Z 1003e6c0 f i DipServer.obj
 0001:0003d730       ??$reg_class@VSettlementInfo@@@@YAXPAVSettlementInfo@@PAD@Z 1003e730 f i DipServer.obj
 0001:0003d7a0       ??$reg_class@VUpgArray@SettlementInfo@@@@YAXPAVUpgArray@SettlementInfo@@PAD@Z 1003e7a0 f i DipServer.obj
 0001:0003d810       ??$reg_class@V_BYTE@@@@YAXPAV_BYTE@@PAD@Z 1003e810 f i DipServer.obj
 0001:0003d880       ??$reg_class@V_str@@@@YAXPAV_str@@PAD@Z 1003e880 f i DipServer.obj
 0001:0003d8f0       ??$reg_class_auto@VUpgArray@SettlementInfo@@@@YAXPAVUpgArray@SettlementInfo@@PAD@Z 1003e8f0 f i DipServer.obj
 0001:0003d960       ??$reg_class_auto@V_str@@@@YAXPAV_str@@PAD@Z 1003e960 f i DipServer.obj
 0001:0003d9d0       ??0DS_Requests@@QAE@XZ     1003e9d0 f   DipServer.obj
 0001:0003da50       ??0GroupExInfo@@QAE@XZ     1003ea50 f i DipServer.obj
 0001:0003dad0       ??0OneDS_Request@@QAE@XZ   1003ead0 f   DipServer.obj
 0001:0003db90       ??0SettlementInfo@@QAE@XZ  1003eb90 f i DipServer.obj
 0001:0003dd50       ??0UpgArray@SettlementInfo@@QAE@XZ 1003ed50 f i DipServer.obj
 0001:0003ddb0       ??1DS_Requests@@QAE@XZ     1003edb0 f   DipServer.obj
 0001:0003de90       ??1GroupExInfo@@UAE@XZ     1003ee90 f i DipServer.obj
 0001:0003def0       ??1OneDS_Request@@QAE@XZ   1003eef0 f   DipServer.obj
 0001:0003dfe0       ??1SettlementInfo@@UAE@XZ  1003efe0 f i DipServer.obj
 0001:0003e110       ??1UpgArray@SettlementInfo@@UAE@XZ 1003f110 f i DipServer.obj
 0001:0003e160       ??_EGroupExInfo@@UAEPAXI@Z 1003f160 f i DipServer.obj
 0001:0003e160       ??_GGroupExInfo@@UAEPAXI@Z 1003f160 f i DipServer.obj
 0001:0003e1d0       ??_GOneDS_Request@@QAEPAXI@Z 1003f1d0 f i DipServer.obj
 0001:0003e240       ??_ESettlementInfo@@UAEPAXI@Z 1003f240 f i DipServer.obj
 0001:0003e240       ??_GSettlementInfo@@UAEPAXI@Z 1003f240 f i DipServer.obj
 0001:0003e2b0       ??_EUpgArray@SettlementInfo@@UAEPAXI@Z 1003f2b0 f i DipServer.obj
 0001:0003e2b0       ??_GUpgArray@SettlementInfo@@UAEPAXI@Z 1003f2b0 f i DipServer.obj
 0001:0003e320       ??_E_BYTE@@UAEPAXI@Z       1003f320 f i DipServer.obj
 0001:0003e320       ??_G_BYTE@@UAEPAXI@Z       1003f320 f i DipServer.obj
 0001:0003e3a0       ??_E_str@@UAEPAXI@Z        1003f3a0 f i DipServer.obj
 0001:0003e3a0       ??_G_str@@UAEPAXI@Z        1003f3a0 f i DipServer.obj
 0001:0003e420       ?CheckDirectCasting@GroupExInfo@@UAE_NXZ 1003f420 f i DipServer.obj
 0001:0003e440       ?CheckDirectCasting@SettlementInfo@@UAE_NXZ 1003f440 f i DipServer.obj
 0001:0003e460       ?DS_CloseAll@@YAXXZ        1003f460 f   DipServer.obj
 0001:0003e4b0       ?DS_CloseAll@DS_Requests@@QAEXXZ 1003f4b0 f   DipServer.obj
 0001:0003e550       ?DS_CloseRequest@@YAXK@Z   1003f550 f   DipServer.obj
 0001:0003e5a0       ?DS_CloseRequest@DS_Requests@@QAEXK@Z 1003f5a0 f   DipServer.obj
 0001:0003e690       ?DS_GetRequestResult@@YAKKPAPADPAH@Z 1003f690 f   DipServer.obj
 0001:0003e6f0       ?DS_GetRequestResult@DS_Requests@@QAEKKPAPADPAH@Z 1003f6f0 f   DipServer.obj
 0001:0003e8a0       ?DS_Process@@YAXXZ         1003f8a0 f   DipServer.obj
 0001:0003e8f0       ?DS_Process@DS_Requests@@QAEXXZ 1003f8f0 f   DipServer.obj
 0001:0003efd0       ?DS_SendRequest@@YAKPADH@Z 1003ffd0 f   DipServer.obj
 0001:0003f020       ?DS_SendRequest@DS_Requests@@QAEKPADH@Z 10040020 f   DipServer.obj
 0001:0003f2b0       ?GetClassNameA@GroupExInfo@@UAEPBDXZ 100402b0 f i DipServer.obj
 0001:0003f2e0       ?GetClassNameA@SettlementInfo@@UAEPBDXZ 100402e0 f i DipServer.obj
 0001:0003f310       ?GetClassStorage@GroupExInfo@@UAEPAVOneClassStorage@@XZ 10040310 f i DipServer.obj
 0001:0003f3c0       ?GetClassStorage@SettlementInfo@@UAEPAVOneClassStorage@@XZ 100403c0 f i DipServer.obj
 0001:0003f470       ?GetExpansionRules@UpgArray@SettlementInfo@@UAEHXZ 10040470 f i DipServer.obj
 0001:0003f4a0       ?RegisterDipClasses@@YAXXZ 100404a0 f   DipServer.obj
 0001:0003f6c0       ?RegisterMembers@GroupExInfo@@UAEXXZ 100406c0 f i DipServer.obj
 0001:0003f8b0       ?RegisterMembers@SettlementInfo@@UAEXXZ 100408b0 f i DipServer.obj
 0001:00040650       ?new_element@GroupExInfo@@UAEPAVBaseClass@@XZ 10041650 f i DipServer.obj
 0001:00040880       ?new_element@SettlementInfo@@UAEPAVBaseClass@@XZ 10041880 f i DipServer.obj
 0001:00040ab0       _DllMain@12                10041ab0 f   DipServer.obj
 0001:00040ad0       ??$swap@G$0A@@std@@YAXAAG0@Z 10041ad0 f i DIP_SimpleBuilding.obj
 0001:00040b90       ??4BaseResources@@QAEAAV0@ABV0@@Z 10041b90 f i DIP_SimpleBuilding.obj
 0001:00040c50       ??4SetlUpgrade@@QAEAAV0@ABV0@@Z 10041c50 f i DIP_SimpleBuilding.obj
 0001:00040e00       ?CheckDipBuilding@@YAXEH@Z 10041e00 f   DIP_SimpleBuilding.obj
 0001:00040f30       ?Clear@?$ClassArray@VSetlUpgrade@@@@QAEXXZ 10041f30 f i DIP_SimpleBuilding.obj
 0001:00040fa0       ?CreateAbilityPage@DIP_SimpleBuilding@@QAEXXZ 10041fa0 f   DIP_SimpleBuilding.obj
 0001:00041b50       ?CreateRadialPosition@@YAXPAH0HHHHH@Z 10042b50 f   DIP_SimpleBuilding.obj
 0001:00041c70       ?Draw@SetlOneBrigAbilka@@QAEXXZ 10042c70 f   DIP_SimpleBuilding.obj
 0001:00041e00       ?Draw@SetlUpgrade@@QAEXPAVDialogsSystem@@HH@Z 10042e00 f   DIP_SimpleBuilding.obj
 0001:000422e0       ?Draw@SetlUpgrade@@QAEXXZ  100432e0 f   DIP_SimpleBuilding.obj
 0001:00042590       ?DrawSetlUpg@DIP_SimpleBuilding@@QAEXPAVDialogsSystem@@HH@Z 10043590 f   DIP_SimpleBuilding.obj
 0001:00042640       ?DrawSetlUpgrade@@YAXGPAVDialogsSystem@@HH@Z 10043640 f   DIP_SimpleBuilding.obj
 0001:000426b0       ?DrawSettlementInterface@DIP_SimpleBuilding@@QAEXHHHHHH@Z 100436b0 f   DIP_SimpleBuilding.obj
 0001:00042aa0       ?Free@DIP_SimpleBuilding@@UAEXXZ 10043aa0 f   DIP_SimpleBuilding.obj
 0001:00042b30       ?GetAmountOfPropositions@DIP_SimpleBuilding@@UAEHXZ 10043b30 f   DIP_SimpleBuilding.obj
 0001:00042b60       ?GetCenter@DIP_SimpleBuilding@@QAEXAAH0@Z 10043b60 f   DIP_SimpleBuilding.obj
 0001:00042c50       ?GetMainObj@DIP_SimpleBuilding@@QAEPAVOneObject@@XZ 10043c50 f   DIP_SimpleBuilding.obj
 0001:00042d30       ?GetNTribes@@YAGE@Z        10043d30 f   DIP_SimpleBuilding.obj
 0001:00042db0       ?GetNTribes@@YAGXZ         10043db0 f   DIP_SimpleBuilding.obj
 0001:00042dd0       ?GetPossibility@DIP_SimpleBuilding@@UAEKHPAD0@Z 10043dd0 f   DIP_SimpleBuilding.obj
 0001:00042ea0       ?GetSUBorderFileID@@YAHXZ  10043ea0 f   DIP_SimpleBuilding.obj
 0001:00042f10       ?GetSaveData@DIP_SimpleBuilding@@UAEHPAE_N@Z 10043f10 f   DIP_SimpleBuilding.obj
 0001:00043310       ?GetSetlFlagFileID@@YAHXZ  10044310 f   DIP_SimpleBuilding.obj
 0001:00043330       ?GetStorage@DIP_SimpleBuilding@@QAEPAVOneObject@@E@Z 10044330 f   DIP_SimpleBuilding.obj
 0001:00043400       ?GetTotalAmount@@YAHPAUGAMEOBJ@@@Z 10044400 f i DIP_SimpleBuilding.obj
 0001:00043460       ?GetTribeBigZoneRadius@@YAHG@Z 10044460 f   DIP_SimpleBuilding.obj
 0001:00043530       ?GetTribeCenter@@YA_NGAAH0@Z 10044530 f   DIP_SimpleBuilding.obj
 0001:000435a0       ?GetTribeDebugInfo@@YAXGAAH0@Z 100445a0 f   DIP_SimpleBuilding.obj
 0001:00043620       ?GetTribeGoods@@YAXGAAE00@Z 10044620 f   DIP_SimpleBuilding.obj
 0001:00043730       ?GetTribeID@@YAGPAVOneObject@@@Z 10044730 f   DIP_SimpleBuilding.obj
 0001:00043860       ?GetTribeOwner@@YAEG@Z     10044860 f   DIP_SimpleBuilding.obj
 0001:000438a0       ?GetTribeOwner@@YAEPAD@Z   100448a0 f   DIP_SimpleBuilding.obj
 0001:00043950       ?GetTribeOwner@@YAEPAUGAMEOBJ@@@Z 10044950 f   DIP_SimpleBuilding.obj
 0001:000439b0       ?Init@DIP_SimpleBuilding@@UAEXXZ 100449b0 f   DIP_SimpleBuilding.obj
 0001:00043a60       ?Init@DipCaravan@@QAEXG@Z  10044a60 f   DIP_SimpleBuilding.obj
 0001:00043ab0       ?Init@SetlOneBrigAbilka@@QAEXH@Z 10044ab0 f   DIP_SimpleBuilding.obj
 0001:00043af0       ?Init@SetlUpgrade@@QAEXHHPAVDString@@@Z 10044af0 f   DIP_SimpleBuilding.obj
 0001:00044040       ?InitThisTribe2@DIP_SimpleBuilding@@UAEXPAD000@Z 10045040 f   DIP_SimpleBuilding.obj
 0001:000441e0       ?InitThisTribe@DIP_SimpleBuilding@@UAEXPAD00@Z 100451e0 f   DIP_SimpleBuilding.obj
 0001:00046290       ?InsertUnitToGroup@@YAHPAUGAMEOBJ@@H@Z 10047290 f i DIP_SimpleBuilding.obj
 0001:000462f0       ?Load@DIP_SimpleBuilding@@QAEXPADPAVSettlementInfo@@@Z 100472f0 f   DIP_SimpleBuilding.obj
 0001:00046eb0       ?Load@SettlementInfo@@QAEXXZ 10047eb0 f   DIP_SimpleBuilding.obj
 0001:00046ed0       ?NullClick@@YA_NPAVSimpleDialog@@@Z 10047ed0 f   DIP_SimpleBuilding.obj
 0001:00046f20       ?PerformCommand@DIP_SimpleBuilding@@UAEXPADH@Z 10047f20 f   DIP_SimpleBuilding.obj
 0001:00048ad0       ?PerformFiring@DIP_SimpleBuilding@@QAEXXZ 10049ad0 f   DIP_SimpleBuilding.obj
 0001:00048de0       ?PerformKillers@DIP_SimpleBuilding@@QAEXXZ 10049de0 f   DIP_SimpleBuilding.obj
 0001:000490f0       ?PerformPossibility@DIP_SimpleBuilding@@UAEXK@Z 1004a0f0 f   DIP_SimpleBuilding.obj
 0001:000496e0       ?PerformProduceUnitsCommend@DIP_SimpleBuilding@@QAEXXZ 1004a6e0 f   DIP_SimpleBuilding.obj
 0001:000499d0       ?PerformRazvedka@DIP_SimpleBuilding@@QAEXXZ 1004a9d0 f   DIP_SimpleBuilding.obj
 0001:00049d80       ?PerformStorms@DIP_SimpleBuilding@@QAEXXZ 1004ad80 f   DIP_SimpleBuilding.obj
 0001:0004a090       ?PerformTomahawks@DIP_SimpleBuilding@@QAEXXZ 1004b090 f   DIP_SimpleBuilding.obj
 0001:0004a3b0       ?Process@DipCaravan@@QAEXXZ 1004b3b0 f   DIP_SimpleBuilding.obj
 0001:0004af50       ?Process@SetlUpgrade@@QAEXXZ 1004bf50 f   DIP_SimpleBuilding.obj
 0001:0004b0b0       ?ProcessDance@DIP_SimpleBuilding@@QAEXXZ 1004c0b0 f   DIP_SimpleBuilding.obj
 0001:0004b700       ?ProcessTribe@DIP_SimpleBuilding@@UAEXXZ 1004c700 f   DIP_SimpleBuilding.obj
 0001:0004f8e0       ?RegisterTribe@@YA_NPAUGAMEOBJ@@PAD@Z 100508e0 f   DIP_SimpleBuilding.obj
 0001:0004f9a0       ?Run@DipCaravan@@QAE_NEH@Z 100509a0 f   DIP_SimpleBuilding.obj
 0001:0004fa20       ?Run@SetlUpgrade@@QAE_NXZ  10050a20 f   DIP_SimpleBuilding.obj
 0001:0004fc40       ?RunSetlUpgrade@@YA_NPAVSimpleDialog@@@Z 10050c40 f   DIP_SimpleBuilding.obj
 0001:0004fcb0       ?Save@DIP_SimpleBuilding@@QAEXPAVSettlementInfo@@@Z 10050cb0 f   DIP_SimpleBuilding.obj
 0001:00050040       ?Save@SettlementInfo@@QAEXPAD@Z 10051040 f   DIP_SimpleBuilding.obj
 0001:00050200       ?SetSaveData@DIP_SimpleBuilding@@UAEXPAEH@Z 10051200 f   DIP_SimpleBuilding.obj
 0001:00050560       ?SetTribeOwner@@YA_NGE@Z   10051560 f   DIP_SimpleBuilding.obj
 0001:000505b0       ?SetUp@DIP_SimpleBuilding@@QAEXXZ 100515b0 f   DIP_SimpleBuilding.obj
 0001:00050aa0       ?ShowNoMoney@DIP_SimpleBuilding@@QAEXXZ 10051aa0 f   DIP_SimpleBuilding.obj
 0001:00050d30       ?isEmpty@DipCaravan@@QAE_NXZ 10051d30 f   DIP_SimpleBuilding.obj
 0001:00050db0       ?isFree@DipCaravan@@QAE_NXZ 10051db0 f   DIP_SimpleBuilding.obj
 0001:00050ff0       ?setlAddWorker@DIP_SimpleBuilding@@QAE_NEPAVOneObject@@@Z 10051ff0 f   DIP_SimpleBuilding.obj
 0001:00051090       ?setlAddWorkerIntrf@DIP_SimpleBuilding@@QAE_NEPAVOneObject@@@Z 10052090 f   DIP_SimpleBuilding.obj
 0001:00051240       ?setlFindNearStorages@DIP_SimpleBuilding@@QAEXXZ 10052240 f   DIP_SimpleBuilding.obj
 0001:00051410       ?setlGetNDeffenders@DIP_SimpleBuilding@@QAEH_N@Z 10052410 f   DIP_SimpleBuilding.obj
 0001:000514f0       ?setlGetWorkers@DIP_SimpleBuilding@@QAEHE@Z 100524f0 f   DIP_SimpleBuilding.obj
 0001:000515b0       ?setlGetWorkersFreePlacesIntrf@DIP_SimpleBuilding@@QAEHE@Z 100525b0 f   DIP_SimpleBuilding.obj
 0001:00051640       ?setlGetWorkersIntrf@DIP_SimpleBuilding@@QAEHE@Z 10052640 f   DIP_SimpleBuilding.obj
 0001:00051740       ?setlProcessCops@DIP_SimpleBuilding@@QAEXXZ 10052740 f   DIP_SimpleBuilding.obj
 0001:00051760       ?strstr@@YAPADQADQBD@Z     10052760 f i DIP_SimpleBuilding.obj
 0001:000517b0       ?vdf_GetAmountOfEnemySettlements@@YAHEH_NH@Z 100527b0 f   DIP_SimpleBuilding.obj
 0001:00051910       ?vdf_GetAmountOfPeasant@@YAHEH@Z 10052910 f   DIP_SimpleBuilding.obj
 0001:000519f0       ?vdf_GetAmountOfSettlements@@YAHEH_NH@Z 100529f0 f   DIP_SimpleBuilding.obj
 0001:00051b20       ?vdf_RunUpgInSettlement@@YAHEHHHH@Z 10052b20 f   DIP_SimpleBuilding.obj
 0001:00051d60       ___local_stdio_scanf_options 10052d60 f i DIP_SimpleBuilding.obj
 0001:00051d80       __vsscanf_l                10052d80 f i DIP_SimpleBuilding.obj
 0001:00051df0       _sscanf                    10052df0 f i DIP_SimpleBuilding.obj
 0001:00051e60       ??$?0$$V@?$_Compressed_pair@V?$allocator@PAUActiveArmy@@@std@@V?$_Vector_val@U?$_Simple_types@PAUActiveArmy@@@std@@@2@$00@std@@QAE@U_Zero_then_variadic_args_t@1@@Z 10052e60 f i Mind.obj
 0001:00051ec0       ??$?0$$V@?$_Compressed_pair@V?$allocator@PAVSquad@@@std@@V?$_Vector_val@U?$_Simple_types@PAVSquad@@@std@@@2@$00@std@@QAE@U_Zero_then_variadic_args_t@1@@Z 10052ec0 f i Mind.obj
 0001:00051f20       ??$?0PAUActiveArmy@@@?$allocator@U_Container_proxy@std@@@std@@QAE@ABV?$allocator@PAUActiveArmy@@@1@@Z 10052f20 f i Mind.obj
 0001:00051f50       ??$?0PAVSquad@@@?$allocator@U_Container_proxy@std@@@std@@QAE@ABV?$allocator@PAVSquad@@@1@@Z 10052f50 f i Mind.obj
 0001:00051f80       ??$_Adl_verify_range@V?$_Vector_iterator@V?$_Vector_val@U?$_Simple_types@PAUActiveArmy@@@std@@@std@@@std@@V12@@std@@YAXABV?$_Vector_iterator@V?$_Vector_val@U?$_Simple_types@PAUActiveArmy@@@std@@@std@@@0@0@Z 10052f80 f i Mind.obj
 0001:00051fd0       ??$_Adl_verify_range@V?$_Vector_iterator@V?$_Vector_val@U?$_Simple_types@PAVSquad@@@std@@@std@@@std@@V12@@std@@YAXABV?$_Vector_iterator@V?$_Vector_val@U?$_Simple_types@PAVSquad@@@std@@@std@@@0@0@Z 10052fd0 f i Mind.obj
 0001:00052020       ??$_Construct_in_place@PAUActiveArmy@@ABQAU1@@std@@YAXAAPAUActiveArmy@@ABQAU1@@Z 10053020 f i Mind.obj
 0001:000520b0       ??$_Construct_in_place@PAVSquad@@ABQAV1@@std@@YAXAAPAVSquad@@ABQAV1@@Z 100530b0 f i Mind.obj
 0001:00052140       ??$_Copy_memmove@PAPAUActiveArmy@@PAPAU1@@std@@YAPAPAUActiveArmy@@PAPAU1@00@Z 10053140 f i Mind.obj
 0001:00052200       ??$_Copy_memmove@PAPAVSquad@@PAPAV1@@std@@YAPAPAVSquad@@PAPAV1@00@Z 10053200 f i Mind.obj
 0001:000522c0       ??$_Debug_lt_pred@AAVGreatAA@@AAPAUActiveArmy@@AAPAU2@$0A@@std@@YA_NAAVGreatAA@@AAPAUActiveArmy@@1@Z 100532c0 f i Mind.obj
 0001:000523b0       ??$_Debug_lt_pred@AAVGreatSQD@@AAPAVSquad@@AAPAV2@$0A@@std@@YA_NAAVGreatSQD@@AAPAVSquad@@1@Z 100533b0 f i Mind.obj
 0001:000524a0       ??$_Destroy_range@V?$allocator@PAUActiveArmy@@@std@@@std@@YAXPAPAUActiveArmy@@QAPAU1@AAV?$allocator@PAUActiveArmy@@@0@@Z 100534a0 f i Mind.obj
 0001:000524c0       ??$_Destroy_range@V?$allocator@PAVSquad@@@std@@@std@@YAXPAPAVSquad@@QAPAV1@AAV?$allocator@PAVSquad@@@0@@Z 100534c0 f i Mind.obj
 0001:000524e0       ??$_Emplace_back@PAUActiveArmy@@@?$_Uninitialized_backout_al@V?$allocator@PAUActiveArmy@@@std@@@std@@QAEX$$QAPAUActiveArmy@@@Z 100534e0 f i Mind.obj
 0001:00052570       ??$_Emplace_back@PAVSquad@@@?$_Uninitialized_backout_al@V?$allocator@PAVSquad@@@std@@@std@@QAEX$$QAPAVSquad@@@Z 10053570 f i Mind.obj
 0001:00052600       ??$_Emplace_back_with_unused_capacity@ABQAUActiveArmy@@@?$vector@PAUActiveArmy@@V?$allocator@PAUActiveArmy@@@std@@@std@@AAEAAPAUActiveArmy@@ABQAU2@@Z 10053600 f i Mind.obj
 0001:000526b0       ??$_Emplace_back_with_unused_capacity@ABQAVSquad@@@?$vector@PAVSquad@@V?$allocator@PAVSquad@@@std@@@std@@AAEAAPAVSquad@@ABQAV2@@Z 100536b0 f i Mind.obj
 0001:00052760       ??$_Emplace_one_at_back@ABQAUActiveArmy@@@?$vector@PAUActiveArmy@@V?$allocator@PAUActiveArmy@@@std@@@std@@AAEAAPAUActiveArmy@@ABQAU2@@Z 10053760 f i Mind.obj
 0001:00052810       ??$_Emplace_one_at_back@ABQAVSquad@@@?$vector@PAVSquad@@V?$allocator@PAVSquad@@@std@@@std@@AAEAAPAVSquad@@ABQAV2@@Z 10053810 f i Mind.obj
 0001:000528c0       ??$_Emplace_reallocate@ABQAUActiveArmy@@@?$vector@PAUActiveArmy@@V?$allocator@PAUActiveArmy@@@std@@@std@@AAEPAPAUActiveArmy@@QAPAU2@ABQAU2@@Z 100538c0 f i Mind.obj
 0001:00052b90       ??$_Emplace_reallocate@ABQAVSquad@@@?$vector@PAVSquad@@V?$allocator@PAVSquad@@@std@@@std@@AAEPAPAVSquad@@QAPAV2@ABQAV2@@Z 10053b90 f i Mind.obj
 0001:00052e60       ??$_Get_size_of_n@$03@std@@YAII@Z 10053e60 f i Mind.obj
 0001:00052ed0       ??$_Get_unwrapped@AAV?$_Vector_iterator@V?$_Vector_val@U?$_Simple_types@PAUActiveArmy@@@std@@@std@@@std@@@std@@YA?A_TAAV?$_Vector_iterator@V?$_Vector_val@U?$_Simple_types@PAUActiveArmy@@@std@@@std@@@0@@Z 10053ed0 f i Mind.obj
 0001:00052f10       ??$_Get_unwrapped@AAV?$_Vector_iterator@V?$_Vector_val@U?$_Simple_types@PAVSquad@@@std@@@std@@@std@@@std@@YA?A_TAAV?$_Vector_iterator@V?$_Vector_val@U?$_Simple_types@PAVSquad@@@std@@@std@@@0@@Z 10053f10 f i Mind.obj
 0001:00052f50       ??$_Get_unwrapped@ABQAPAUActiveArmy@@@std@@YA?A_TABQAPAUActiveArmy@@@Z 10053f50 f i Mind.obj
 0001:00052f70       ??$_Get_unwrapped@ABQAPAVSquad@@@std@@YA?A_TABQAPAVSquad@@@Z 10053f70 f i Mind.obj
 0001:00052f90       ??$_Pass_fn@VGreatAA@@$0A@@std@@YA?AVGreatAA@@V1@@Z 10053f90 f i Mind.obj
 0001:00052fb0       ??$_Pass_fn@VGreatSQD@@$0A@@std@@YA?AVGreatSQD@@V1@@Z 10053fb0 f i Mind.obj
 0001:00052fd0       ??$_Pop_heap_hole_by_index@PAPAUActiveArmy@@PAU1@VGreatAA@@@std@@YAXPAPAUActiveArmy@@HH$$QAPAU1@VGreatAA@@@Z 10053fd0 f i Mind.obj
 0001:00053130       ??$_Pop_heap_hole_by_index@PAPAVSquad@@PAV1@VGreatSQD@@@std@@YAXPAPAVSquad@@HH$$QAPAV1@VGreatSQD@@@Z 10054130 f i Mind.obj
 0001:00053290       ??$_Pop_heap_hole_unchecked@PAPAUActiveArmy@@PAU1@VGreatAA@@@std@@YAXPAPAUActiveArmy@@00$$QAPAU1@VGreatAA@@@Z 10054290 f i Mind.obj
 0001:00053320       ??$_Pop_heap_hole_unchecked@PAPAVSquad@@PAV1@VGreatSQD@@@std@@YAXPAPAVSquad@@00$$QAPAV1@VGreatSQD@@@Z 10054320 f i Mind.obj
 0001:000533b0       ??$_Pop_heap_unchecked@PAPAUActiveArmy@@VGreatAA@@@std@@YAXPAPAUActiveArmy@@0VGreatAA@@@Z 100543b0 f i Mind.obj
 0001:00053490       ??$_Pop_heap_unchecked@PAPAVSquad@@VGreatSQD@@@std@@YAXPAPAVSquad@@0VGreatSQD@@@Z 10054490 f i Mind.obj
 0001:00053570       ??$_Push_heap_by_index@PAPAUActiveArmy@@PAU1@VGreatAA@@@std@@YAXPAPAUActiveArmy@@HH$$QAPAU1@VGreatAA@@@Z 10054570 f i Mind.obj
 0001:00053650       ??$_Push_heap_by_index@PAPAVSquad@@PAV1@VGreatSQD@@@std@@YAXPAPAVSquad@@HH$$QAPAV1@VGreatSQD@@@Z 10054650 f i Mind.obj
 0001:00053730       ??$_To_address@PAPAUActiveArmy@@@std@@YA?A_PABQAPAUActiveArmy@@@Z 10054730 f i Mind.obj
 0001:00053750       ??$_To_address@PAPAVSquad@@@std@@YA?A_PABQAPAVSquad@@@Z 10054750 f i Mind.obj
 0001:00053770       ??$_Unfancy@PAUActiveArmy@@@std@@YAPAPAUActiveArmy@@PAPAU1@@Z 10054770 f i Mind.obj
 0001:00053790       ??$_Unfancy@PAVSquad@@@std@@YAPAPAVSquad@@PAPAV1@@Z 10054790 f i Mind.obj
 0001:000537b0       ??$_Uninitialized_move@PAPAUActiveArmy@@V?$allocator@PAUActiveArmy@@@std@@@std@@YAPAPAUActiveArmy@@QAPAU1@0PAPAU1@AAV?$allocator@PAUActiveArmy@@@0@@Z 100547b0 f i Mind.obj
 0001:00053940       ??$_Uninitialized_move@PAPAVSquad@@V?$allocator@PAVSquad@@@std@@@std@@YAPAPAVSquad@@QAPAV1@0PAPAV1@AAV?$allocator@PAVSquad@@@0@@Z 10054940 f i Mind.obj
 0001:00053ad0       ??$_Voidify_iter@PAPAUActiveArmy@@@std@@YAPAXPAPAUActiveArmy@@@Z 10054ad0 f i Mind.obj
 0001:00053af0       ??$_Voidify_iter@PAPAVSquad@@@std@@YAPAXPAPAVSquad@@@Z 10054af0 f i Mind.obj
 0001:00053b10       ??$addressof@PAUActiveArmy@@@std@@YAPAPAUActiveArmy@@AAPAU1@@Z 10054b10 f i Mind.obj
 0001:00053b30       ??$addressof@PAVSquad@@@std@@YAPAPAVSquad@@AAPAV1@@Z 10054b30 f i Mind.obj
 0001:00053b50       ??$addressof@V?$_Vector_val@U?$_Simple_types@PAUActiveArmy@@@std@@@std@@@std@@YAPAV?$_Vector_val@U?$_Simple_types@PAUActiveArmy@@@std@@@0@AAV10@@Z 10054b50 f i Mind.obj
 0001:00053b70       ??$addressof@V?$_Vector_val@U?$_Simple_types@PAVSquad@@@std@@@std@@@std@@YAPAV?$_Vector_val@U?$_Simple_types@PAVSquad@@@std@@@0@AAV10@@Z 10054b70 f i Mind.obj
 0001:00053b90       ??$construct@PAUActiveArmy@@ABQAU1@@?$_Default_allocator_traits@V?$allocator@PAUActiveArmy@@@std@@@std@@SAXAAV?$allocator@PAUActiveArmy@@@1@QAPAUActiveArmy@@ABQAU3@@Z 10054b90 f i Mind.obj
 0001:00053c10       ??$construct@PAUActiveArmy@@PAU1@@?$_Default_allocator_traits@V?$allocator@PAUActiveArmy@@@std@@@std@@SAXAAV?$allocator@PAUActiveArmy@@@1@QAPAUActiveArmy@@$$QAPAU3@@Z 10054c10 f i Mind.obj
 0001:00053c90       ??$construct@PAVSquad@@ABQAV1@@?$_Default_allocator_traits@V?$allocator@PAVSquad@@@std@@@std@@SAXAAV?$allocator@PAVSquad@@@1@QAPAVSquad@@ABQAV3@@Z 10054c90 f i Mind.obj
 0001:00053d10       ??$construct@PAVSquad@@PAV1@@?$_Default_allocator_traits@V?$allocator@PAVSquad@@@std@@@std@@SAXAAV?$allocator@PAVSquad@@@1@QAPAVSquad@@$$QAPAV3@@Z 10054d10 f i Mind.obj
 0001:00053d90       ??$destroy@PAUActiveArmy@@@?$_Default_allocator_traits@V?$allocator@PAUActiveArmy@@@std@@@std@@SAXAAV?$allocator@PAUActiveArmy@@@1@QAPAUActiveArmy@@@Z 10054d90 f i Mind.obj
 0001:00053db0       ??$destroy@PAVSquad@@@?$_Default_allocator_traits@V?$allocator@PAVSquad@@@std@@@std@@SAXAAV?$allocator@PAVSquad@@@1@QAPAVSquad@@@Z 10054db0 f i Mind.obj
 0001:00053dd0       ??$emplace_back@ABQAUActiveArmy@@@?$vector@PAUActiveArmy@@V?$allocator@PAUActiveArmy@@@std@@@std@@QAE?A_TABQAUActiveArmy@@@Z 10054dd0 f i Mind.obj
 0001:00053e40       ??$emplace_back@ABQAVSquad@@@?$vector@PAVSquad@@V?$allocator@PAVSquad@@@std@@@std@@QAE?A_TABQAVSquad@@@Z 10054e40 f i Mind.obj
 0001:00053eb0       ??$forward@ABQAUActiveArmy@@@std@@YAABQAUActiveArmy@@ABQAU1@@Z 10054eb0 f i Mind.obj
 0001:00053ed0       ??$forward@ABQAVSquad@@@std@@YAABQAVSquad@@ABQAV1@@Z 10054ed0 f i Mind.obj
 0001:00053ef0       ??$forward@PAUActiveArmy@@@std@@YA$$QAPAUActiveArmy@@AAPAU1@@Z 10054ef0 f i Mind.obj
 0001:00053f10       ??$forward@PAVSquad@@@std@@YA$$QAPAVSquad@@AAPAV1@@Z 10054f10 f i Mind.obj
 0001:00053f30       ??$move@AAPAUActiveArmy@@@std@@YA$$QAPAUActiveArmy@@AAPAU1@@Z 10054f30 f i Mind.obj
 0001:00053f50       ??$move@AAPAVSquad@@@std@@YA$$QAPAVSquad@@AAPAV1@@Z 10054f50 f i Mind.obj
 0001:00053f70       ??$pop_heap@V?$_Vector_iterator@V?$_Vector_val@U?$_Simple_types@PAUActiveArmy@@@std@@@std@@@std@@VGreatAA@@@std@@YAXV?$_Vector_iterator@V?$_Vector_val@U?$_Simple_types@PAUActiveArmy@@@std@@@std@@@0@0VGreatAA@@@Z 10054f70 f i Mind.obj
 0001:00054070       ??$pop_heap@V?$_Vector_iterator@V?$_Vector_val@U?$_Simple_types@PAVSquad@@@std@@@std@@@std@@VGreatSQD@@@std@@YAXV?$_Vector_iterator@V?$_Vector_val@U?$_Simple_types@PAVSquad@@@std@@@std@@@0@0VGreatSQD@@@Z 10055070 f i Mind.obj
 0001:00054170       ??$push_heap@V?$_Vector_iterator@V?$_Vector_val@U?$_Simple_types@PAUActiveArmy@@@std@@@std@@@std@@VGreatAA@@@std@@YAXV?$_Vector_iterator@V?$_Vector_val@U?$_Simple_types@PAUActiveArmy@@@std@@@std@@@0@0VGreatAA@@@Z 10055170 f i Mind.obj
 0001:00054310       ??$push_heap@V?$_Vector_iterator@V?$_Vector_val@U?$_Simple_types@PAVSquad@@@std@@@std@@@std@@VGreatSQD@@@std@@YAXV?$_Vector_iterator@V?$_Vector_val@U?$_Simple_types@PAVSquad@@@std@@@std@@@0@0VGreatSQD@@@Z 10055310 f i Mind.obj
 0001:000544b0       ??0?$_Uninitialized_backout_al@V?$allocator@PAUActiveArmy@@@std@@@std@@QAE@PAPAUActiveArmy@@AAV?$allocator@PAUActiveArmy@@@1@@Z 100554b0 f i Mind.obj
 0001:00054500       ??0?$_Uninitialized_backout_al@V?$allocator@PAVSquad@@@std@@@std@@QAE@PAPAVSquad@@AAV?$allocator@PAVSquad@@@1@@Z 10055500 f i Mind.obj
 0001:00054550       ??0?$_Vector_const_iterator@V?$_Vector_val@U?$_Simple_types@PAUActiveArmy@@@std@@@std@@@std@@QAE@PAPAUActiveArmy@@PBU_Container_base12@1@@Z 10055550 f i Mind.obj
 0001:000545c0       ??0?$_Vector_const_iterator@V?$_Vector_val@U?$_Simple_types@PAVSquad@@@std@@@std@@@std@@QAE@PAPAVSquad@@PBU_Container_base12@1@@Z 100555c0 f i Mind.obj
 0001:00054630       ??0?$_Vector_iterator@V?$_Vector_val@U?$_Simple_types@PAUActiveArmy@@@std@@@std@@@std@@QAE@PAPAUActiveArmy@@PBU_Container_base12@1@@Z 10055630 f i Mind.obj
 0001:00054690       ??0?$_Vector_iterator@V?$_Vector_val@U?$_Simple_types@PAVSquad@@@std@@@std@@@std@@QAE@PAPAVSquad@@PBU_Container_base12@1@@Z 10055690 f i Mind.obj
 0001:000546f0       ??0?$_Vector_val@U?$_Simple_types@PAUActiveArmy@@@std@@@std@@QAE@XZ 100556f0 f i Mind.obj
 0001:00054770       ??0?$_Vector_val@U?$_Simple_types@PAVSquad@@@std@@@std@@QAE@XZ 10055770 f i Mind.obj
 0001:000547f0       ??0?$allocator@PAUActiveArmy@@@std@@QAE@XZ 100557f0 f i Mind.obj
 0001:00054810       ??0?$allocator@PAVSquad@@@std@@QAE@XZ 10055810 f i Mind.obj
 0001:00054830       ??0?$priority_queue@PAUActiveArmy@@V?$vector@PAUActiveArmy@@V?$allocator@PAUActiveArmy@@@std@@@std@@VGreatAA@@@std@@QAE@XZ 10055830 f i Mind.obj
 0001:00054890       ??0?$priority_queue@PAVSquad@@V?$vector@PAVSquad@@V?$allocator@PAVSquad@@@std@@@std@@VGreatSQD@@@std@@QAE@XZ 10055890 f i Mind.obj
 0001:000548f0       ??0?$vector@PAUActiveArmy@@V?$allocator@PAUActiveArmy@@@std@@@std@@QAE@XZ 100558f0 f i Mind.obj
 0001:000549b0       ??0?$vector@PAVSquad@@V?$allocator@PAVSquad@@@std@@@std@@QAE@XZ 100559b0 f i Mind.obj
 0001:00054a70       ??0Branch@@QAE@G@Z         10055a70 f   Mind.obj
 0001:00054aa0       ??0MWeapon@@QAE@G@Z        10055aa0 f   Mind.obj
 0001:00054ad0       ??0Mind@@QAE@XZ            10055ad0 f   Mind.obj
 0001:00054b20       ??1?$_Uninitialized_backout_al@V?$allocator@PAUActiveArmy@@@std@@@std@@QAE@XZ 10055b20 f i Mind.obj
 0001:00054b90       ??1?$_Uninitialized_backout_al@V?$allocator@PAVSquad@@@std@@@std@@QAE@XZ 10055b90 f i Mind.obj
 0001:00054c00       ??1?$_Vector_const_iterator@V?$_Vector_val@U?$_Simple_types@PAUActiveArmy@@@std@@@std@@@std@@QAE@XZ 10055c00 f i Mind.obj
 0001:00054c50       ??1?$_Vector_const_iterator@V?$_Vector_val@U?$_Simple_types@PAVSquad@@@std@@@std@@@std@@QAE@XZ 10055c50 f i Mind.obj
 0001:00054ca0       ??1?$_Vector_iterator@V?$_Vector_val@U?$_Simple_types@PAUActiveArmy@@@std@@@std@@@std@@QAE@XZ 10055ca0 f i Mind.obj
 0001:00054cf0       ??1?$_Vector_iterator@V?$_Vector_val@U?$_Simple_types@PAVSquad@@@std@@@std@@@std@@QAE@XZ 10055cf0 f i Mind.obj
 0001:00054d40       ??1?$priority_queue@PAUActiveArmy@@V?$vector@PAUActiveArmy@@V?$allocator@PAUActiveArmy@@@std@@@std@@VGreatAA@@@std@@QAE@XZ 10055d40 f i Mind.obj
 0001:00054d90       ??1?$priority_queue@PAVSquad@@V?$vector@PAVSquad@@V?$allocator@PAVSquad@@@std@@@std@@VGreatSQD@@@std@@QAE@XZ 10055d90 f i Mind.obj
 0001:00054de0       ??1?$vector@PAUActiveArmy@@V?$allocator@PAUActiveArmy@@@std@@@std@@QAE@XZ 10055de0 f i Mind.obj
 0001:00054ec0       ??1?$vector@PAVSquad@@V?$allocator@PAVSquad@@@std@@@std@@QAE@XZ 10055ec0 f i Mind.obj
 0001:00054fa0       ??1Mind@@QAE@XZ            10055fa0 f   Mind.obj
 0001:00055030       ??RGreatAA@@QAE_NPAUActiveArmy@@0@Z 10056030 f i Mind.obj
 0001:00055090       ??RGreatSQD@@QAE_NPAVSquad@@0@Z 10056090 f i Mind.obj
 0001:000550f0       ??_GMind@@QAEPAXI@Z        100560f0 f i Mind.obj
 0001:00055160       ?ActivateArmy@Mind@@QAEXPAUActiveArmy@@H@Z 10056160 f   Mind.obj
 0001:00055c00       ?ActivateMind@@YAXEH@Z     10056c00 f   Mind.obj
 0001:00055c70       ?AddSquad@Mind@@QAEGGG@Z   10056c70 f   Mind.obj
 0001:00055e00       ?Clear@ActiveArmy@@QAEXH@Z 10056e00 f   Mind.obj
 0001:00055eb0       ?Clear@Mind@@QAEXXZ        10056eb0 f   Mind.obj
 0001:00055f30       ?ClearMindData@@YAXXZ      10056f30 f   Mind.obj
 0001:00055fb0       ?CloseMind@@YAXXZ          10056fb0 f   Mind.obj
 0001:00055ff0       ?DeactivateMind@@YAXE@Z    10056ff0 f   Mind.obj
 0001:00056050       ?FindStepToObject@@YAHHPAFPAG1@Z 10057050 f   Mind.obj
 0001:00056100       ?FindTargetZone@Squad@@QAE_NPAFPAGAAG22@Z 10057100 f   Mind.obj
 0001:000562e0       ?Free@Mind@@QAEXXZ         100572e0 f   Mind.obj
 0001:00056360       ?GetArmyActorPower@Mind@@QAEHPAUActiveArmy@@@Z 10057360 f   Mind.obj
 0001:00056390       ?GetArmyMap@@YAXPAH0PAUActiveArmy@@AAH@Z 10057390 f   Mind.obj
 0001:00056880       ?GetArmyMap@@YAXPAUEnemy@@PAGPAF@Z 10057880 f   Mind.obj
 0001:00056e60       ?GlobalAttack@Mind@@QAEXXZ 10057e60 f   Mind.obj
 0001:00056f30       ?Init@Mind@@QAEXEH@Z       10057f30 f   Mind.obj
 0001:00057ce0       ?LoadMindData@@YAXPAEH@Z   10058ce0 f   Mind.obj
 0001:00057d00       ?MarkArmy@Mind@@QAEXXZ     10058d00 f   Mind.obj
 0001:00057e60       ?MindCheats@@YAXEPAD@Z     10058e60 f   Mind.obj
 0001:00058260       ?MoveToTop@Squad@@QAEXPAF@Z 10059260 f   Mind.obj
 0001:000589c0       ?Process0@Mind@@QAEXXZ     100599c0 f   Mind.obj
 0001:000599b0       ?Process1@Mind@@QAEXXZ     1005a9b0 f   Mind.obj
 0001:0005add0       ?Process2@Mind@@QAEXXZ     1005bdd0 f   Mind.obj
 0001:0005b740       ?Process3@Mind@@QAEXXZ     1005c740 f   Mind.obj
 0001:0005b880       ?Process@Mind@@QAEXXZ      1005c880 f   Mind.obj
 0001:0005bb20       ?ProcessCannons@Mind@@QAEXH@Z 1005cb20 f   Mind.obj
 0001:0005daa0       ?RefreshSquadInfo@Mind@@QAEXXZ 1005eaa0 f   Mind.obj
 0001:0005dd10       ?SaveMindData@@YAXPAPAEPAH@Z 1005ed10 f   Mind.obj
 0001:0005dd30       ?SetGameGoals@Mind@@QAEHXZ 1005ed30 f   Mind.obj
 0001:0005dfd0       ?SetLink0@Mind@@QAEXXZ     1005efd0 f   Mind.obj
 0001:0005e410       ?ShowVistrel@Mind@@QAEXXZ  1005f410 f i Mind.obj
 0001:0005e480       ?ShowWay@@YAXPADPAGH@Z     1005f480 f   Mind.obj
 0001:0005e620       ?_Calculate_growth@?$vector@PAUActiveArmy@@V?$allocator@PAUActiveArmy@@@std@@@std@@ABEII@Z 1005f620 f i Mind.obj
 0001:0005e6c0       ?_Calculate_growth@?$vector@PAVSquad@@V?$allocator@PAVSquad@@@std@@@std@@ABEII@Z 1005f6c0 f i Mind.obj
 0001:0005e760       ?_Change_array@?$vector@PAUActiveArmy@@V?$allocator@PAUActiveArmy@@@std@@@std@@AAEXQAPAUActiveArmy@@II@Z 1005f760 f i Mind.obj
 0001:0005e860       ?_Change_array@?$vector@PAVSquad@@V?$allocator@PAVSquad@@@std@@@std@@AAEXQAPAVSquad@@II@Z 1005f860 f i Mind.obj
 0001:0005e960       ?_Get_first@?$_Compressed_pair@V?$allocator@PAUActiveArmy@@@std@@V?$_Vector_val@U?$_Simple_types@PAUActiveArmy@@@std@@@2@$00@std@@QAEAAV?$allocator@PAUActiveArmy@@@2@XZ 1005f960 f i Mind.obj
 0001:0005e980       ?_Get_first@?$_Compressed_pair@V?$allocator@PAUActiveArmy@@@std@@V?$_Vector_val@U?$_Simple_types@PAUActiveArmy@@@std@@@2@$00@std@@QBEABV?$allocator@PAUActiveArmy@@@2@XZ 1005f980 f i Mind.obj
 0001:0005e9a0       ?_Get_first@?$_Compressed_pair@V?$allocator@PAVSquad@@@std@@V?$_Vector_val@U?$_Simple_types@PAVSquad@@@std@@@2@$00@std@@QAEAAV?$allocator@PAVSquad@@@2@XZ 1005f9a0 f i Mind.obj
 0001:0005e9c0       ?_Get_first@?$_Compressed_pair@V?$allocator@PAVSquad@@@std@@V?$_Vector_val@U?$_Simple_types@PAVSquad@@@std@@@2@$00@std@@QBEABV?$allocator@PAVSquad@@@2@XZ 1005f9c0 f i Mind.obj
 0001:0005e9e0       ?_Getal@?$vector@PAUActiveArmy@@V?$allocator@PAUActiveArmy@@@std@@@std@@AAEAAV?$allocator@PAUActiveArmy@@@2@XZ 1005f9e0 f i Mind.obj
 0001:0005ea30       ?_Getal@?$vector@PAUActiveArmy@@V?$allocator@PAUActiveArmy@@@std@@@std@@ABEABV?$allocator@PAUActiveArmy@@@2@XZ 1005fa30 f i Mind.obj
 0001:0005ea80       ?_Getal@?$vector@PAVSquad@@V?$allocator@PAVSquad@@@std@@@std@@AAEAAV?$allocator@PAVSquad@@@2@XZ 1005fa80 f i Mind.obj
 0001:0005ead0       ?_Getal@?$vector@PAVSquad@@V?$allocator@PAVSquad@@@std@@@std@@ABEABV?$allocator@PAVSquad@@@2@XZ 1005fad0 f i Mind.obj
 0001:0005eb20       ?_Orphan_range@?$vector@PAUActiveArmy@@V?$allocator@PAUActiveArmy@@@std@@@std@@ABEXPAPAUActiveArmy@@0@Z 1005fb20 f i Mind.obj
 0001:0005eb80       ?_Orphan_range@?$vector@PAVSquad@@V?$allocator@PAVSquad@@@std@@@std@@ABEXPAPAVSquad@@0@Z 1005fb80 f i Mind.obj
 0001:0005ebe0       ?_Orphan_range_locked@?$vector@PAUActiveArmy@@V?$allocator@PAUActiveArmy@@@std@@@std@@ABEXPAPAUActiveArmy@@0@Z 1005fbe0 f i Mind.obj
 0001:0005ecd0       ?_Orphan_range_locked@?$vector@PAVSquad@@V?$allocator@PAVSquad@@@std@@@std@@ABEXPAPAVSquad@@0@Z 1005fcd0 f i Mind.obj
 0001:0005edc0       ?_Orphan_range_unlocked@?$vector@PAUActiveArmy@@V?$allocator@PAUActiveArmy@@@std@@@std@@ABEXPAPAUActiveArmy@@0@Z 1005fdc0 f i Mind.obj
 0001:0005ee60       ?_Orphan_range_unlocked@?$vector@PAVSquad@@V?$allocator@PAVSquad@@@std@@@std@@ABEXPAPAVSquad@@0@Z 1005fe60 f i Mind.obj
 0001:0005ef00       ?_Release@?$_Uninitialized_backout_al@V?$allocator@PAUActiveArmy@@@std@@@std@@QAEPAPAUActiveArmy@@XZ 1005ff00 f i Mind.obj
 0001:0005ef30       ?_Release@?$_Uninitialized_backout_al@V?$allocator@PAVSquad@@@std@@@std@@QAEPAPAVSquad@@XZ 1005ff30 f i Mind.obj
 0001:0005ef60       ?_Tidy@?$vector@PAUActiveArmy@@V?$allocator@PAUActiveArmy@@@std@@@std@@AAEXXZ 1005ff60 f i Mind.obj
 0001:0005f090       ?_Tidy@?$vector@PAVSquad@@V?$allocator@PAVSquad@@@std@@@std@@AAEXXZ 10060090 f i Mind.obj
 0001:0005f1c0       ?_Unwrapped@?$_Vector_iterator@V?$_Vector_val@U?$_Simple_types@PAUActiveArmy@@@std@@@std@@@std@@QBEPAPAUActiveArmy@@XZ 100601c0 f i Mind.obj
 0001:0005f220       ?_Unwrapped@?$_Vector_iterator@V?$_Vector_val@U?$_Simple_types@PAVSquad@@@std@@@std@@@std@@QBEPAPAVSquad@@XZ 10060220 f i Mind.obj
 0001:0005f280       ?_Verify_range@std@@YAXABV?$_Vector_const_iterator@V?$_Vector_val@U?$_Simple_types@PAUActiveArmy@@@std@@@std@@@1@0@Z 10060280 f i Mind.obj
 0001:0005f3b0       ?_Verify_range@std@@YAXABV?$_Vector_const_iterator@V?$_Vector_val@U?$_Simple_types@PAVSquad@@@std@@@std@@@1@0@Z 100603b0 f i Mind.obj
 0001:0005f4e0       ?_Xlength@?$vector@PAUActiveArmy@@V?$allocator@PAUActiveArmy@@@std@@@std@@CAXXZ 100604e0 f i Mind.obj
 0001:0005f530       ?_Xlength@?$vector@PAVSquad@@V?$allocator@PAVSquad@@@std@@@std@@CAXXZ 10060530 f i Mind.obj
 0001:0005f580       ?allocate@?$allocator@PAUActiveArmy@@@std@@QAEPAPAUActiveArmy@@I@Z 10060580 f i Mind.obj
 0001:0005f5e0       ?allocate@?$allocator@PAVSquad@@@std@@QAEPAPAVSquad@@I@Z 100605e0 f i Mind.obj
 0001:0005f640       ?begin@?$vector@PAUActiveArmy@@V?$allocator@PAUActiveArmy@@@std@@@std@@QAE?AV?$_Vector_iterator@V?$_Vector_val@U?$_Simple_types@PAUActiveArmy@@@std@@@std@@@2@XZ 10060640 f i Mind.obj
 0001:0005f6c0       ?begin@?$vector@PAVSquad@@V?$allocator@PAVSquad@@@std@@@std@@QAE?AV?$_Vector_iterator@V?$_Vector_val@U?$_Simple_types@PAVSquad@@@std@@@std@@@2@XZ 100606c0 f i Mind.obj
 0001:0005f740       ?capacity@?$vector@PAUActiveArmy@@V?$allocator@PAUActiveArmy@@@std@@@std@@QBEIXZ 10060740 f i Mind.obj
 0001:0005f780       ?capacity@?$vector@PAVSquad@@V?$allocator@PAVSquad@@@std@@@std@@QBEIXZ 10060780 f i Mind.obj
 0001:0005f7c0       ?deallocate@?$allocator@PAUActiveArmy@@@std@@QAEXQAPAUActiveArmy@@I@Z 100607c0 f i Mind.obj
 0001:0005f890       ?deallocate@?$allocator@PAVSquad@@@std@@QAEXQAPAVSquad@@I@Z 10060890 f i Mind.obj
 0001:0005f960       ?empty@?$priority_queue@PAUActiveArmy@@V?$vector@PAUActiveArmy@@V?$allocator@PAUActiveArmy@@@std@@@std@@VGreatAA@@@std@@QBE_NXZ 10060960 f i Mind.obj
 0001:0005f9b0       ?empty@?$priority_queue@PAVSquad@@V?$vector@PAVSquad@@V?$allocator@PAVSquad@@@std@@@std@@VGreatSQD@@@std@@QBE_NXZ 100609b0 f i Mind.obj
 0001:0005fa00       ?empty@?$vector@PAUActiveArmy@@V?$allocator@PAUActiveArmy@@@std@@@std@@QBE_NXZ 10060a00 f i Mind.obj
 0001:0005fa60       ?empty@?$vector@PAVSquad@@V?$allocator@PAVSquad@@@std@@@std@@QBE_NXZ 10060a60 f i Mind.obj
 0001:0005fac0       ?end@?$vector@PAUActiveArmy@@V?$allocator@PAUActiveArmy@@@std@@@std@@QAE?AV?$_Vector_iterator@V?$_Vector_val@U?$_Simple_types@PAUActiveArmy@@@std@@@std@@@2@XZ 10060ac0 f i Mind.obj
 0001:0005fb40       ?end@?$vector@PAVSquad@@V?$allocator@PAVSquad@@@std@@@std@@QAE?AV?$_Vector_iterator@V?$_Vector_val@U?$_Simple_types@PAVSquad@@@std@@@std@@@2@XZ 10060b40 f i Mind.obj
 0001:0005fbc0       ?front@?$vector@PAUActiveArmy@@V?$allocator@PAUActiveArmy@@@std@@@std@@QBEABQAUActiveArmy@@XZ 10060bc0 f i Mind.obj
 0001:0005fc90       ?front@?$vector@PAVSquad@@V?$allocator@PAVSquad@@@std@@@std@@QBEABQAVSquad@@XZ 10060c90 f i Mind.obj
 0001:0005fd60       ?max_size@?$_Default_allocator_traits@V?$allocator@PAUActiveArmy@@@std@@@std@@SAIABV?$allocator@PAUActiveArmy@@@2@@Z 10060d60 f i Mind.obj
 0001:0005fd80       ?max_size@?$_Default_allocator_traits@V?$allocator@PAVSquad@@@std@@@std@@SAIABV?$allocator@PAVSquad@@@2@@Z 10060d80 f i Mind.obj
 0001:0005fda0       ?max_size@?$vector@PAUActiveArmy@@V?$allocator@PAUActiveArmy@@@std@@@std@@QBEIXZ 10060da0 f i Mind.obj
 0001:0005fe30       ?max_size@?$vector@PAVSquad@@V?$allocator@PAVSquad@@@std@@@std@@QBEIXZ 10060e30 f i Mind.obj
 0001:0005fec0       ?pop@?$priority_queue@PAUActiveArmy@@V?$vector@PAUActiveArmy@@V?$allocator@PAUActiveArmy@@@std@@@std@@VGreatAA@@@std@@QAEXXZ 10060ec0 f i Mind.obj
 0001:0005ff60       ?pop@?$priority_queue@PAVSquad@@V?$vector@PAVSquad@@V?$allocator@PAVSquad@@@std@@@std@@VGreatSQD@@@std@@QAEXXZ 10060f60 f i Mind.obj
 0001:00060000       ?pop_back@?$vector@PAUActiveArmy@@V?$allocator@PAUActiveArmy@@@std@@@std@@QAEXXZ 10061000 f i Mind.obj
 0001:00060160       ?pop_back@?$vector@PAVSquad@@V?$allocator@PAVSquad@@@std@@@std@@QAEXXZ 10061160 f i Mind.obj
 0001:000602c0       ?push@?$priority_queue@PAUActiveArmy@@V?$vector@PAUActiveArmy@@V?$allocator@PAUActiveArmy@@@std@@@std@@VGreatAA@@@std@@QAEXABQAUActiveArmy@@@Z 100612c0 f i Mind.obj
 0001:00060360       ?push@?$priority_queue@PAVSquad@@V?$vector@PAVSquad@@V?$allocator@PAVSquad@@@std@@@std@@VGreatSQD@@@std@@QAEXABQAVSquad@@@Z 10061360 f i Mind.obj
 0001:00060400       ?push_back@?$vector@PAUActiveArmy@@V?$allocator@PAUActiveArmy@@@std@@@std@@QAEXABQAUActiveArmy@@@Z 10061400 f i Mind.obj
 0001:00060460       ?push_back@?$vector@PAVSquad@@V?$allocator@PAVSquad@@@std@@@std@@QAEXABQAVSquad@@@Z 10061460 f i Mind.obj
 0001:000604c0       ?top@?$priority_queue@PAUActiveArmy@@V?$vector@PAUActiveArmy@@V?$allocator@PAUActiveArmy@@@std@@@std@@VGreatAA@@@std@@QBEABQAUActiveArmy@@XZ 100614c0 f i Mind.obj
 0001:00060510       ?top@?$priority_queue@PAVSquad@@V?$vector@PAVSquad@@V?$allocator@PAVSquad@@@std@@@std@@VGreatSQD@@@std@@QBEABQAVSquad@@XZ 10061510 f i Mind.obj
 0001:00060560       ??0ParsedRQ@@QAE@XZ        10061560 f   ParseRQ.obj
 0001:000605c0       ??1ParsedRQ@@QAE@XZ        100615c0 f   ParseRQ.obj
 0001:00060650       ?AddComm@ParsedRQ@@QAEXPAD@Z 10061650 f   ParseRQ.obj
 0001:000607f0       ?AddIntParam@ParsedRQ@@QAEXH@Z 100617f0 f   ParseRQ.obj
 0001:000608c0       ?AddParam@ParsedRQ@@QAEXPADH@Z 100618c0 f   ParseRQ.obj
 0001:00060a40       ?AddParamToCom@ParsedRQ@@QAEXHPADH@Z 10061a40 f   ParseRQ.obj
 0001:00060bc0       ?Clear@ParsedRQ@@QAEXXZ    10061bc0 f   ParseRQ.obj
 0001:00060d50       ?Compact@ParsedRQ@@QAEHPADH@Z 10061d50 f   ParseRQ.obj
 0001:00061020       ?DelComm@ParsedRQ@@QAEXH@Z 10062020 f   ParseRQ.obj
 0001:000611c0       ?Extract@ParsedRQ@@QAEXPADH@Z 100621c0 f   ParseRQ.obj
 0001:00061460       ?GetHVal@@YAHD@Z           10062460 f   ParseRQ.obj
 0001:000614d0       ?Parse@ParsedRQ@@QAEXPAD@Z 100624d0 f   ParseRQ.obj
 0001:00061900       ?UnParse@ParsedRQ@@QAEHPADH@Z 10062900 f   ParseRQ.obj
 0001:00061e70       ??0CPlayerScript@@QAE@XZ   10062e70 f i Script.obj
 0001:00061ec0       ??1CPlayerScript@@QAE@XZ   10062ec0 f i Script.obj
 0001:00061f50       ?AddProtect@CPlayerScript@@QAE_NG@Z 10062f50 f   Script.obj
 0001:00062000       ?Free@CPlayerScript@@QAEXXZ 10063000 f i Script.obj
 0001:00062080       ?Init@CPlayerScript@@QAEXXZ 10063080 f i Script.obj
 0001:000620e0       ?LoadScript@@YAXXZ         100630e0 f   Script.obj
 0001:00062990       ??0?$DynArray@UPulseBox@@$0P@@@QAE@XZ 10063990 f i Settlement.obj
 0001:000629e0       ??1?$DynArray@UPulseBox@@$0P@@@QAE@XZ 100639e0 f i Settlement.obj
 0001:00062a70       ??H?$DynArray@UPulseBox@@$0P@@@QAEPAUPulseBox@@H@Z 10063a70 f i Settlement.obj
 0001:00062b30       ?Add@?$DynArray@UPulseBox@@$0P@@@QAEHABUPulseBox@@@Z 10063b30 f i Settlement.obj
 0001:00062be0       ?AddPulseBox@@YAXHH@Z      10063be0 f   Settlement.obj
 0001:00062d20       ?Check@?$DynArray@UPulseBox@@$0P@@@QAEXH@Z 10063d20 f i Settlement.obj
 0001:00062e30       ?Clear@?$DynArray@UPulseBox@@$0P@@@QAEXXZ 10063e30 f i Settlement.obj
 0001:00062ec0       ?Del@?$DynArray@UPulseBox@@$0P@@@QAEXHH@Z 10063ec0 f i Settlement.obj
 0001:00062fc0       ?Draw@PulseBox@@QAE_NHH@Z  10063fc0 f   Settlement.obj
 0001:00063280       ?GetAmount@?$DynArray@UPulseBox@@$0P@@@QBEHXZ 10064280 f i Settlement.obj
 0001:000632b0       ?GetTopSelBrigID@@YAGXZ    100642b0 f   Settlement.obj
 0001:000632d0       ?InitSettlementInterface@@YAXXZ 100642d0 f   Settlement.obj
 0001:00063330       ?SI_Abilka_RClick@@YAXH@Z  10064330 f   Settlement.obj
 0001:00063510       ?SI_DrawMiniMap@@YAHHHHHHH@Z 10064510 f   Settlement.obj
 0001:00064260       ?SI_DrawOnMap@@YAHXZ       10065260 f   Settlement.obj
 0001:00064940       ?SI_PerformCommands@@YAXPADH@Z 10065940 f   Settlement.obj
 0001:00065130       ?SI_RClick@@YAXH@Z         10066130 f   Settlement.obj
 0001:00065250       ?SetTopSelBrigID@@YAXG@Z   10066250 f   Settlement.obj
 0001:00065270       ?SettlementInterface@@YAHHHHHHHH@Z 10066270 f   Settlement.obj
 0001:000653f0       ?dipf_SetSelOboz@@YAXPAVOneObject@@AAEAAH1@Z 100663f0 f   Settlement.obj
 0001:00065550       ?setlIsReinforce@@YA_NG_N@Z 10066550 f   Settlement.obj
 0001:00065631       ?_ExMalloc@@YAPAXH@Z       10066631 f   engine:engine.exe
 0001:00065637       ?_ExFree@@YAXPAX@Z         10066637 f   engine:engine.exe
 0001:0006563d       ?SmartAssert@@YAXPBDH0@Z   1006663d f   engine:engine.exe
 0001:00065643       ?pchar@DString@@QAEPADPBD@Z 10066643 f   engine:engine.exe
 0001:00065649       ??0DString@@QAE@XZ         10066649 f   engine:engine.exe
 0001:0006564f       ??1DString@@QAE@XZ         1006664f f   engine:engine.exe
 0001:00065655       ?Replace@DString@@QAAXPAD0ZZ 10066655 f   engine:engine.exe
 0001:0006565b       ?Free@DString@@QAEXXZ      1006665b f   engine:engine.exe
 0001:00065661       ?Assign@DString@@QAEXPAD@Z 10066661 f   engine:engine.exe
 0001:00065667       ?CheckDynPtr@@YAXPAX@Z     10066667 f   engine:engine.exe
 0001:0006566d       ?PushSmartLeak@@YAXAA_N@Z  1006666d f   engine:engine.exe
 0001:00065673       ?PopSmartLeak@@YAXAA_N@Z   10066673 f   engine:engine.exe
 0001:00065679       ?PrintError@@YAXPADZZ      10066679 f   engine:engine.exe
 0001:0006567f       ?WriteDWORD@BinStream@@QAEXK@Z 1006667f f   engine:engine.exe
 0001:00065685       ?ReadDWORD@BinStream@@QAEKXZ 10066685 f   engine:engine.exe
 0001:0006568b       ?GetElmPtr@OneClassMemberStorage@@QAEPAXPAX@Z 1006668b f   engine:engine.exe
 0001:00065691       ?Create@Enumerators@@QAEPAVEnumerator@@PBD@Z 10066691 f   engine:engine.exe
 0001:00065697       ?Get@Enumerators@@QAEPAVEnumerator@@PBD@Z 10066697 f   engine:engine.exe
 0001:0006569d       ?GetClass@ClassGarbage@@QAEPAVOneClassStorage@@PBD@Z 1006669d f   engine:engine.exe
 0001:000656a3       ?TestClassStorage@@YAXPAPAVOneClassStorage@@@Z 100666a3 f   engine:engine.exe
 0001:000656a9       ??4BaseClass@@QAEAAV0@ABV0@@Z 100666a9 f   engine:engine.exe
 0001:000656af       ??0BaseClass@@QAE@XZ       100666af f   engine:engine.exe
 0001:000656b5       ??1BaseClass@@UAE@XZ       100666b5 f   engine:engine.exe
 0001:000656bb       ?SetReadOnlyMode@BaseClass@@QAEXXZ 100666bb f   engine:engine.exe
 0001:000656c1       ?RegisterOneMember@BaseClass@@QAEXPAV1@PAXPBD12_NK@Z 100666c1 f   engine:engine.exe
 0001:000656c7       ??0BaseClass@@QAE@ABV0@@Z  100666c7 f   engine:engine.exe
 0001:000656cd       ??1_str@@UAE@XZ            100666cd f   engine:engine.exe
 0001:000656d3       ??0_str@@QAE@XZ            100666d3 f   engine:engine.exe
 0001:000656d9       ??4_str@@QAEAAV0@PBD@Z     100666d9 f   engine:engine.exe
 0001:000656df       ?SaveBin@_str@@UAEXPAX0PAVBinStream@@PAVEnumerator@@2@Z 100666df f   engine:engine.exe
 0001:000656e5       ?LoadBin@_str@@UAEXPAX0PAVBinStream@@PAVEnumerator@@@Z 100666e5 f   engine:engine.exe
 0001:000656eb       ??0_int@@QAE@XZ            100666eb f   engine:engine.exe
 0001:000656f1       ??1_int@@UAE@XZ            100666f1 f   engine:engine.exe
 0001:000656f7       ??0_bool@@QAE@XZ           100666f7 f   engine:engine.exe
 0001:000656fd       ??1_bool@@UAE@XZ           100666fd f   engine:engine.exe
 0001:00065703       ??0_byte_index@@QAE@XZ     10066703 f   engine:engine.exe
 0001:00065709       ??1_byte_index@@UAE@XZ     10066709 f   engine:engine.exe
 0001:0006570f       ?_getClassFromPalette@@YAPAVBaseClass@@PBD@Z 1006670f f   engine:engine.exe
 0001:00065715       ?reg_class_bc@@YAXPAVBaseClass@@PAD1_N@Z 10066715 f   engine:engine.exe
 0001:0006571b       ??0_textid@@QAE@XZ         1006671b f   engine:engine.exe
 0001:00065721       ??1_textid@@UAE@XZ         10066721 f   engine:engine.exe
 0001:00065727       ??0_gpfile@@QAE@XZ         10066727 f   engine:engine.exe
 0001:0006572d       ??1_gpfile@@UAE@XZ         1006672d f   engine:engine.exe
 0001:00065733       ?VitalError@@YAXPAD@Z      10066733 f   engine:engine.exe
 0001:00065739       ?GetThisElementView@BaseClass@@UAEPBDPBD@Z 10066739 f   engine:engine.exe
 0001:0006573f       ?DelElement@BaseClass@@UAE_NH@Z 1006673f f   engine:engine.exe
 0001:00065745       ?CheckDirectCasting@BaseClass@@UAE_NXZ 10066745 f   engine:engine.exe
 0001:0006574b       ?ExpandWith@BaseClass@@UAEHPBDPAX@Z 1006674b f   engine:engine.exe
 0001:00065751       ?GetExpansionRules@BaseClass@@UAEHXZ 10066751 f   engine:engine.exe
 0001:00065757       ?GetExpansionBaseClass@BaseClass@@UAEPBDXZ 10066757 f   engine:engine.exe
 0001:0006575d       ?ForceSimplification@BaseClass@@UAE_NXZ 1006675d f   engine:engine.exe
 0001:00065763       ?MoveElement@BaseClass@@UAE_NHD@Z 10066763 f   engine:engine.exe
 0001:00065769       ?AskParentForUsingExpansionClass@BaseClass@@UAE_NPAD0@Z 10066769 f   engine:engine.exe
 0001:0006576f       ?GetSource@BaseClass@@UAEPBDXZ 1006676f f   engine:engine.exe
 0001:00065775       ?EvaluateFunction@BaseClass@@UAEXXZ 10066775 f   engine:engine.exe
 0001:0006577b       ?CheckIfFunction@BaseClass@@UAE_NXZ 1006677b f   engine:engine.exe
 0001:00065781       ?call@BaseClass@@UAEXPAX0@Z 10066781 f   engine:engine.exe
 0001:00065787       ?GetSectionStatus@BaseClass@@UAEHXZ 10066787 f   engine:engine.exe
 0001:0006578d       ?SetSectionStatus@BaseClass@@UAEXH@Z 1006678d f   engine:engine.exe
 0001:00065793       ?GetClassMask@BaseClass@@UAEKXZ 10066793 f   engine:engine.exe
 0001:00065799       ?GetObjectNamePointer@BaseClass@@UAEPAV_str@@XZ 10066799 f   engine:engine.exe
 0001:0006579f       ?CheckIfObjectIsGlobal@BaseClass@@UAE_NXZ 1006679f f   engine:engine.exe
 0001:000657a5       ?GetObjectGlobalID@BaseClass@@UAEKXZ 100667a5 f   engine:engine.exe
 0001:000657ab       ?SetObjectGlobalID@BaseClass@@UAEXK@Z 100667ab f   engine:engine.exe
 0001:000657b1       ?GetParent@BaseClass@@UAEPAV1@XZ 100667b1 f   engine:engine.exe
 0001:000657b7       ?CheckCompartabilityWith@BaseClass@@UAE_NPBDH@Z 100667b7 f   engine:engine.exe
 0001:000657bd       ?ShouldSaveInShortForm@BaseClass@@UAE_NXZ 100667bd f   engine:engine.exe
 0001:000657c3       ?ProcessInEditor@BaseClass@@UAEXPAV1@@Z 100667c3 f   engine:engine.exe
 0001:000657c9       ?OnChangeMember@BaseClass@@UAE_NPAV1@PAX1PBD@Z 100667c9 f   engine:engine.exe
 0001:000657cf       ?SetEnumName@BaseClass@@UAEXPBD@Z 100667cf f   engine:engine.exe
 0001:000657d5       ?reset_class@_int@@UAEXPAX@Z 100667d5 f   engine:engine.exe
 0001:000657db       ?CheckCompartabilityWith@_int@@UAE_NPBDH@Z 100667db f   engine:engine.exe
 0001:000657e1       ?FullCopy@_int@@UAE_NPAX0PAVBaseClass@@00PAVCopyContex@@@Z 100667e1 f   engine:engine.exe
 0001:000657e7       ?new_element@_int@@UAEPAVBaseClass@@XZ 100667e7 f   engine:engine.exe
 0001:000657ed       ?GetClassStorage@_int@@UAEPAVOneClassStorage@@XZ 100667ed f   engine:engine.exe
 0001:000657f3       ?reset_class@_bool@@UAEXPAX@Z 100667f3 f   engine:engine.exe
 0001:000657f9       ?CheckCompartabilityWith@_bool@@UAE_NPBDH@Z 100667f9 f   engine:engine.exe
 0001:000657ff       ?FullCopy@_bool@@UAE_NPAX0PAVBaseClass@@00PAVCopyContex@@@Z 100667ff f   engine:engine.exe
 0001:00065805       ?new_element@_bool@@UAEPAVBaseClass@@XZ 10066805 f   engine:engine.exe
 0001:0006580b       ?GetClassStorage@_bool@@UAEPAVOneClassStorage@@XZ 1006680b f   engine:engine.exe
 0001:00065811       ?CheckCompartabilityWith@_byte_index@@UAE_NPBDH@Z 10066811 f   engine:engine.exe
 0001:00065817       ?Save@_byte_index@@UAEXAAVxmlQuote@@PAX1@Z 10066817 f   engine:engine.exe
 0001:0006581d       ?Load@_byte_index@@UAE_NAAVxmlQuote@@PAXPAVErrorPager@@1@Z 1006681d f   engine:engine.exe
 0001:00065823       ?GetClassNameA@_byte_index@@UAEPBDXZ 10066823 f   engine:engine.exe
 0001:00065829       ?reset_class@_byte_index@@UAEXPAX@Z 10066829 f   engine:engine.exe
 0001:0006582f       ?FullCopy@_byte_index@@UAE_NPAX0PAVBaseClass@@00PAVCopyContex@@@Z 1006682f f   engine:engine.exe
 0001:00065835       ?new_element@_byte_index@@UAEPAVBaseClass@@XZ 10066835 f   engine:engine.exe
 0001:0006583b       ?GetClassStorage@_byte_index@@UAEPAVOneClassStorage@@XZ 1006683b f   engine:engine.exe
 0001:00065841       ?CheckCompartabilityWith@_textid@@UAE_NPBDH@Z 10066841 f   engine:engine.exe
 0001:00065847       ?reset_class@_textid@@UAEXPAX@Z 10066847 f   engine:engine.exe
 0001:0006584d       ?new_element@_textid@@UAEPAVBaseClass@@XZ 1006684d f   engine:engine.exe
 0001:00065853       ?GetClassStorage@_textid@@UAEPAVOneClassStorage@@XZ 10066853 f   engine:engine.exe
 0001:00065859       ?CheckCompartabilityWith@_gpfile@@UAE_NPBDH@Z 10066859 f   engine:engine.exe
 0001:0006585f       ?FullCopy@_gpfile@@UAE_NPAX0PAVBaseClass@@00PAVCopyContex@@@Z 1006685f f   engine:engine.exe
 0001:00065865       ?SaveBin@_gpfile@@UAEXPAX0PAVBinStream@@PAVEnumerator@@2@Z 10066865 f   engine:engine.exe
 0001:0006586b       ?LoadBin@_gpfile@@UAEXPAX0PAVBinStream@@PAVEnumerator@@@Z 1006686b f   engine:engine.exe
 0001:00065871       ?new_element@_gpfile@@UAEPAVBaseClass@@XZ 10066871 f   engine:engine.exe
 0001:00065877       ?GetClassStorage@_gpfile@@UAEPAVOneClassStorage@@XZ 10066877 f   engine:engine.exe
 0001:0006587d       ?Save@_gpfile@@UAEXAAVxmlQuote@@PAX1@Z 1006687d f   engine:engine.exe
 0001:00065883       ?Load@_gpfile@@UAE_NAAVxmlQuote@@PAXPAVErrorPager@@1@Z 10066883 f   engine:engine.exe
 0001:00065889       ?GetClassNameA@_gpfile@@UAEPBDXZ 10066889 f   engine:engine.exe
 0001:0006588f       ?SaveBin@_byte_index@@UAEXPAX0PAVBinStream@@PAVEnumerator@@2@Z 1006688f f   engine:engine.exe
 0001:00065895       ?LoadBin@_byte_index@@UAEXPAX0PAVBinStream@@PAVEnumerator@@@Z 10066895 f   engine:engine.exe
 0001:0006589b       ?Save@_bool@@UAEXAAVxmlQuote@@PAX1@Z 1006689b f   engine:engine.exe
 0001:000658a1       ?Load@_bool@@UAE_NAAVxmlQuote@@PAXPAVErrorPager@@1@Z 100668a1 f   engine:engine.exe
 0001:000658a7       ?GetClassNameA@_bool@@UAEPBDXZ 100668a7 f   engine:engine.exe
 0001:000658ad       ?SaveBin@_bool@@UAEXPAX0PAVBinStream@@PAVEnumerator@@2@Z 100668ad f   engine:engine.exe
 0001:000658b3       ?LoadBin@_bool@@UAEXPAX0PAVBinStream@@PAVEnumerator@@@Z 100668b3 f   engine:engine.exe
 0001:000658b9       ?Save@_textid@@UAEXAAVxmlQuote@@PAX1@Z 100668b9 f   engine:engine.exe
 0001:000658bf       ?Load@_textid@@UAE_NAAVxmlQuote@@PAXPAVErrorPager@@1@Z 100668bf f   engine:engine.exe
 0001:000658c5       ?GetClassNameA@_textid@@UAEPBDXZ 100668c5 f   engine:engine.exe
 0001:000658cb       ?reset_class@BaseClass@@UAEXPAX@Z 100668cb f   engine:engine.exe
 0001:000658d1       ?Save@BaseClass@@UAEXAAVxmlQuote@@PAX1@Z 100668d1 f   engine:engine.exe
 0001:000658d7       ?Load@BaseClass@@UAE_NAAVxmlQuote@@PAXPAVErrorPager@@1@Z 100668d7 f   engine:engine.exe
 0001:000658dd       ?RegisterMembers@BaseClass@@UAEXXZ 100668dd f   engine:engine.exe
 0001:000658e3       ?GetAmountOfElements@BaseClass@@UAEHXZ 100668e3 f   engine:engine.exe
 0001:000658e9       ?GetElementID@BaseClass@@UAEPBDH@Z 100668e9 f   engine:engine.exe
 0001:000658ef       ?GetElementView@BaseClass@@UAEPBDHPBD@Z 100668ef f   engine:engine.exe
 0001:000658f5       ?GetElementClass@BaseClass@@UAEPAV1@H@Z 100668f5 f   engine:engine.exe
 0001:000658fb       ?GetElementPtr@BaseClass@@UAEPAXHPAX@Z 100668fb f   engine:engine.exe
 0001:00065901       ?GetElementExtraPtr@BaseClass@@UAEPAXH@Z 10066901 f   engine:engine.exe
 0001:00065907       ?LoadPostProcess@BaseClass@@UAEXPAX0@Z 10066907 f   engine:engine.exe
 0001:0006590d       ?ForceProperty@BaseClass@@UAE_NXZ 1006690d f   engine:engine.exe
 0001:00065913       ?FullCopy@BaseClass@@UAE_NPAX0PAV1@00PAVCopyContex@@@Z 10066913 f   engine:engine.exe
 0001:00065919       ?SaveBin@BaseClass@@UAEXPAX0PAVBinStream@@PAVEnumerator@@2@Z 10066919 f   engine:engine.exe
 0001:0006591f       ?LoadBin@BaseClass@@UAEXPAX0PAVBinStream@@PAVEnumerator@@@Z 1006691f f   engine:engine.exe
 0001:00065925       ?ReadFromFile@BaseClass@@UAE_NPBD@Z 10066925 f   engine:engine.exe
 0001:0006592b       ?SafeReadFromFile@BaseClass@@UAE_NPBD@Z 1006692b f   engine:engine.exe
 0001:00065931       ?WriteToFile@BaseClass@@UAE_NPBD@Z 10066931 f   engine:engine.exe
 0001:00065937       ?Copy@BaseClass@@UAE_NPAV1@_N@Z 10066937 f   engine:engine.exe
 0001:0006593d       ?GetAmountOfEditableElements@BaseClass@@UAEHPAXK@Z 1006693d f   engine:engine.exe
 0001:00065943       ?GetIndexOfEditableElement@BaseClass@@UAEHHPAXK@Z 10066943 f   engine:engine.exe
 0001:00065949       ?GetEditableElementClass@BaseClass@@UAEPAV1@HPAXK@Z 10066949 f   engine:engine.exe
 0001:0006594f       ?GetEditableElementData@BaseClass@@UAEPAXHPAXK@Z 1006694f f   engine:engine.exe
 0001:00065955       ?GetEditableElementExtra@BaseClass@@UAEPAXHPAXK@Z 10066955 f   engine:engine.exe
 0001:0006595b       ?GetEditableElementExpansionList@BaseClass@@UAE_NAAUClassExpParams@@HPAXKPAV1@PBD@Z 1006695b f   engine:engine.exe
 0001:00065961       ?CheckIfElementIsNode@BaseClass@@UAE_NHPAX@Z 10066961 f   engine:engine.exe
 0001:00065967       ?CheckIfEditableElementIsNode@BaseClass@@UAE_NHPAXK@Z 10066967 f   engine:engine.exe
 0001:0006596d       ?GetEditableElementName@BaseClass@@UAEPBDHPAXK@Z 1006696d f   engine:engine.exe
 0001:00065973       ?GetEditableElementView@BaseClass@@UAEPBDHPAXPBDK@Z 10066973 f   engine:engine.exe
 0001:00065979       ?GetElementMessageAndHintInEditor@BaseClass@@UAEXAAVDString@@0PAV1@PAD@Z 10066979 f   engine:engine.exe
 0001:0006597f       ?CheckIfElementReadOnly@BaseClass@@UAE_NHPAXK@Z 1006697f f   engine:engine.exe
 0001:00065985       ?CheckIfElementInvisible@BaseClass@@UAE_NHPAXK@Z 10066985 f   engine:engine.exe
 0001:0006598b       ?GetRealMaskedPosition@BaseClass@@UAEHH@Z 1006698b f   engine:engine.exe
 0001:00065991       ?SetParent@BaseClass@@UAEXPAV1@@Z 10066991 f   engine:engine.exe
 0001:00065997       ?GetClassPresentationMask@BaseClass@@UAE_NAAV_str@@PAX1PBDK@Z 10066997 f   engine:engine.exe
 0001:0006599d       ?Save@_int@@UAEXAAVxmlQuote@@PAX1@Z 1006699d f   engine:engine.exe
 0001:000659a3       ?Load@_int@@UAE_NAAVxmlQuote@@PAXPAVErrorPager@@1@Z 100669a3 f   engine:engine.exe
 0001:000659a9       ?GetClassNameA@_int@@UAEPBDXZ 100669a9 f   engine:engine.exe
 0001:000659af       ?SaveBin@_int@@UAEXPAX0PAVBinStream@@PAVEnumerator@@2@Z 100669af f   engine:engine.exe
 0001:000659b5       ?LoadBin@_int@@UAEXPAX0PAVBinStream@@PAVEnumerator@@@Z 100669b5 f   engine:engine.exe
 0001:000659bb       ?_ExRealloc@@YAPAXPAXH@Z   100669bb f   engine:engine.exe
 0001:000659c1       ??0DString@@QAE@PAD@Z      100669c1 f   engine:engine.exe
 0001:000659c7       ?ReadFromFile@DString@@QAEXPAD@Z 100669c7 f   engine:engine.exe
 0001:000659cd       ?WriteToFile@DString@@QAEXPAD@Z 100669cd f   engine:engine.exe
 0001:000659d3       ?Replace0@DString@@QAEXPAD0@Z 100669d3 f   engine:engine.exe
 0001:000659d9       ??4DString@@QAEAAV0@PBD@Z  100669d9 f   engine:engine.exe
 0001:000659df       ??YDString@@QAEAAV0@AAV0@@Z 100669df f   engine:engine.exe
 0001:000659e5       ?GetTextByID@@YAPADPAD@Z   100669e5 f   engine:engine.exe
 0001:000659eb       _ShowVictory               100669eb f   engine:engine.exe
 0001:000659f1       _LooseGame                 100669f1 f   engine:engine.exe
 0001:000659f7       _GetResource               100669f7 f   engine:engine.exe
 0001:000659fd       _AddResource               100669fd f   engine:engine.exe
 0001:00065a03       _GetMyNation               10066a03 f   engine:engine.exe
 0001:00065a09       _GetUnitIcon               10066a09 f   engine:engine.exe
 0001:00065a0f       ?GetMaxObject@@YAHXZ       10066a0f f   engine:engine.exe
 0001:00065a15       _GetOBJ                    10066a15 f   engine:engine.exe
 0001:00065a1b       ?SetObservMode@@YAXXZ      10066a1b f   engine:engine.exe
 0001:00065a21       ?SetNormalMode@@YAXXZ      10066a21 f   engine:engine.exe
 0001:00065a27       ?ShowFogOfWar@@YAXXZ       10066a27 f   engine:engine.exe
 0001:00065a2d       ?GetNMon@@YAHE@Z           10066a2d f   engine:engine.exe
 0001:00065a33       ?GetPressentMonsters@@YAXEPAH@Z 10066a33 f   engine:engine.exe
 0001:00065a39       ?GetListOfUpgradesForMon_Old@@YAXEGPAGHAAH@Z 10066a39 f   engine:engine.exe
 0001:00065a3f       ?GetNUpgrades@@YAHE@Z      10066a3f f   engine:engine.exe
 0001:00065a45       ?GetUnitMessage@@YAPADG@Z  10066a45 f   engine:engine.exe
 0001:00065a4b       ?GetUnitGPName@@YAPADGAAH0@Z 10066a4b f   engine:engine.exe
 0001:00065a51       ?GetAttackNFrame@@YAHGG@Z  10066a51 f   engine:engine.exe
 0001:00065a57       ?GetUpgradeIcon@@YAHG@Z    10066a57 f   engine:engine.exe
 0001:00065a5d       ?GetUpgHint@@YA_NEGPAD@Z   10066a5d f   engine:engine.exe
 0001:00065a63       _InitialUpgradeNew         10066a63 f   engine:engine.exe
 0001:00065a69       ?GetUpgCost@@YAXEGAAPAG@Z  10066a69 f   engine:engine.exe
 0001:00065a6f       ?CloseDipDialog@@YAXXZ     10066a6f f   engine:engine.exe
 0001:00065a75       ?GetUpgLevel@@YAHG@Z       10066a75 f   engine:engine.exe
 0001:00065a7b       ?GetPlayerName@@YAPADE@Z   10066a7b f   engine:engine.exe
 0001:00065a81       ?GetPlayerColor@@YAEG@Z    10066a81 f   engine:engine.exe
 0001:00065a87       ?GetMyPlayerColor@@YAEXZ   10066a87 f   engine:engine.exe
 0001:00065a8d       ?GetMyPlayerID@@YAEXZ      10066a8d f   engine:engine.exe
 0001:00065a93       ?GetMainChar@@YAHEGPAUSMainChar@@@Z 10066a93 f   engine:engine.exe
 0001:00065a99       ?GetWeaponIcon@@YAGG@Z     10066a99 f   engine:engine.exe
 0001:00065a9f       ?GetProtectIcon@@YAGG@Z    10066a9f f   engine:engine.exe
 0001:00065aa5       ?DetCannon@@YA_NG@Z        10066aa5 f   engine:engine.exe
 0001:00065aab       ?DetSheep@@YA_NG@Z         10066aab f   engine:engine.exe
 0001:00065ab1       ?GetNewUpg@@YAPAVNewUpgrade@@EG@Z 10066ab1 f   engine:engine.exe
 0001:00065ab7       ?SetDipDlgDX@@YAXH@Z       10066ab7 f   engine:engine.exe
 0001:00065abd       ?ActivateDipDialog@@YAXPAD@Z 10066abd f   engine:engine.exe
 0001:00065ac3       ?SendDipCommand@@YAXPADH@Z 10066ac3 f   engine:engine.exe
 0001:00065ac9       ?SetInfoStyle@@YAXEH@Z     10066ac9 f   engine:engine.exe
 0001:00065acf       ?Add@DString@@QAEXPBD@Z    10066acf f   engine:engine.exe
 0001:00065ad5       ??0xmlQuote@@QAE@XZ        10066ad5 f   engine:engine.exe
 0001:00065adb       ??1xmlQuote@@QAE@XZ        10066adb f   engine:engine.exe
 0001:00065ae1       ?Get_int@xmlQuote@@QAEHXZ  10066ae1 f   engine:engine.exe
 0001:00065ae7       ?Get_string@xmlQuote@@QAEPBDXZ 10066ae7 f   engine:engine.exe
 0001:00065aed       ?ReadFromFile@xmlQuote@@QAE_NPAD@Z 10066aed f   engine:engine.exe
 0001:00065af3       ?GetSubQuote@xmlQuote@@QAEPAV1@H@Z 10066af3 f   engine:engine.exe
 0001:00065af9       ?GetSubQuote@xmlQuote@@QAEPAV1@PAD@Z 10066af9 f   engine:engine.exe
 0001:00065aff       ?GetNSubQuotes@xmlQuote@@QAEHXZ 10066aff f   engine:engine.exe
 0001:00065b05       ?GetQuoteName@xmlQuote@@QAEPBDXZ 10066b05 f   engine:engine.exe
 0001:00065b0b       _RegisterUnitType          10066b0b f   engine:engine.exe
 0001:00065b11       _GetTotalAmount0           10066b11 f   engine:engine.exe
 0001:00065b17       _RegisterDynGroupEx        10066b17 f   engine:engine.exe
 0001:00065b1d       _GetUnitInfo               10066b1d f   engine:engine.exe
 0001:00065b23       _GetTSin                   10066b23 f   engine:engine.exe
 0001:00065b29       _GetTCos                   10066b29 f   engine:engine.exe
 0001:00065b2f       _OBJ_SendTo                10066b2f f   engine:engine.exe
 0001:00065b35       _GetRND_X                  10066b35 f   engine:engine.exe
 0001:00065b3b       _SGP_ComeIntoBuilding      10066b3b f   engine:engine.exe
 0001:00065b41       _DieUnit                   10066b41 f   engine:engine.exe
 0001:00065b47       _GetBuildingEntryPoint     10066b47 f   engine:engine.exe
 0001:00065b4d       _CheckLandLocking          10066b4d f   engine:engine.exe
 0001:00065b53       ?ProduceUnitTicks@@YA_NPAUGAMEOBJ@@00H@Z 10066b53 f   engine:engine.exe
 0001:00065b59       ?SetBirthCallback@@YAP6AHH@ZP6AHH@Z@Z 10066b59 f   engine:engine.exe
 0001:00065b5f       _DeleteDynGroup            10066b5f f   engine:engine.exe
 0001:00065b65       _AddOneUnitToGroup         10066b65 f   engine:engine.exe
 0001:00065b6b       ?getDir@@YAGHH@Z           10066b6b f   engine:engine.exe
 0001:00065b71       ?RotUnit@@YAXHDE@Z         10066b71 f   engine:engine.exe
 0001:00065b77       ?GetPeaceMode@@YA_NXZ      10066b77 f   engine:engine.exe
 0001:00065b7d       ?CheckNoCityLife@@YA_NXZ   10066b7d f   engine:engine.exe
 0001:00065b83       _GetAnimTime               10066b83 f   engine:engine.exe
 0001:00065b89       ?Ggetch@@YAHPAVGFILE@@@Z   10066b89 f   engine:engine.exe
 0001:00065b8f       ?Replace@DString@@QAEXPADH@Z 10066b8f f   engine:engine.exe
 0001:00065b95       _GetMaxAttRadius           10066b95 f   engine:engine.exe
 0001:00065b9b       _RegisterUnits             10066b9b f   engine:engine.exe
 0001:00065ba1       _RegisterZone              10066ba1 f   engine:engine.exe
 0001:00065ba7       _RegisterFormation         10066ba7 f   engine:engine.exe
 0001:00065bad       _GetTotalAmount1           10066bad f   engine:engine.exe
 0001:00065bb3       _CreateObject0             10066bb3 f   engine:engine.exe
 0001:00065bb9       _SetResource               10066bb9 f   engine:engine.exe
 0001:00065bbf       _GetGlobalTime             10066bbf f   engine:engine.exe
 0001:00065bc5       _GetNUnits                 10066bc5 f   engine:engine.exe
 0001:00065bcb       _RemoveGroup               10066bcb f   engine:engine.exe
 0001:00065bd1       _GetDiff                   10066bd1 f   engine:engine.exe
 0001:00065bd7       _SetGroupNMASK             10066bd7 f   engine:engine.exe
 0001:00065bdd       _GetNatNMASK               10066bdd f   engine:engine.exe
 0001:00065be3       _OBJ_SmartSendTo           10066be3 f   engine:engine.exe
 0001:00065be9       _CheckIfBuildingIsFired    10066be9 f   engine:engine.exe
 0001:00065bef       _GetGroupCharge            10066bef f   engine:engine.exe
 0001:00065bf5       _FilterUnitsByCategory     10066bf5 f   engine:engine.exe
 0001:00065bfb       _CreateNonFiredEnemyBuildingsTopList 10066bfb f   engine:engine.exe
 0001:00065c01       _FindNextZoneOnTheSafeWayToObject 10066c01 f   engine:engine.exe
 0001:00065c07       _FindNextZoneOnTheSafeWayToLimitedObject 10066c07 f   engine:engine.exe
 0001:00065c0d       _CheckIfNotBusy            10066c0d f   engine:engine.exe
 0001:00065c13       _GetGrpCenter              10066c13 f   engine:engine.exe
 0001:00065c19       _CreateDangerMap           10066c19 f   engine:engine.exe
 0001:00065c1f       _CreateDangerMapForStorm   10066c1f f   engine:engine.exe
 0001:00065c25       _CreateDangerMapForStormHard 10066c25 f   engine:engine.exe
 0001:00065c2b       _CreateDangerMapForFire    10066c2b f   engine:engine.exe
 0001:00065c31       _GetNZones                 10066c31 f   engine:engine.exe
 0001:00065c37       _GetTopDist                10066c37 f   engine:engine.exe
 0001:00065c3d       _SGP_MakeOneStepTo         10066c3d f   engine:engine.exe
 0001:00065c43       _SGP_MoveToPoint           10066c43 f   engine:engine.exe
 0001:00065c49       _CopyUnits                 10066c49 f   engine:engine.exe
 0001:00065c4f       _RemoveAttackingUnits      10066c4f f   engine:engine.exe
 0001:00065c55       _GetTargetObject           10066c55 f   engine:engine.exe
 0001:00065c5b       _GetTopZone                10066c5b f   engine:engine.exe
 0001:00065c61       _GrpAttackObject           10066c61 f   engine:engine.exe
 0001:00065c67       _GetTopZRealCoor           10066c67 f   engine:engine.exe
 0001:00065c6d       _GetListOfNearZones        10066c6d f   engine:engine.exe
 0001:00065c73       _GetZonesDist              10066c73 f   engine:engine.exe
 0001:00065c79       _CreateDangerMapWithoutPeasants 10066c79 f   engine:engine.exe
 0001:00065c7f       _CreateDangerMapForTom     10066c7f f   engine:engine.exe
 0001:00065c85       _AttackEnemyPeasantsInZone 10066c85 f   engine:engine.exe
 0001:00065c8b       _CreatePeasantsTopList     10066c8b f   engine:engine.exe
 0001:00065c91       _CreateTopListEnArmy       10066c91 f   engine:engine.exe
 0001:00065c97       _SetUnitsState             10066c97 f   engine:engine.exe
 0001:00065c9d       _GetZoneCoor               10066c9d f   engine:engine.exe
 0001:00065ca3       _InviteUnitIntoBuilding    10066ca3 f   engine:engine.exe
 0001:00065ca9       _GetAmountOfGroups         10066ca9 f   engine:engine.exe
 0001:00065caf       _GetGroupName              10066caf f   engine:engine.exe
 0001:00065cb5       _GetUnitGlobalInfo         10066cb5 f   engine:engine.exe
 0001:00065cbb       _DeleteUnitFromGroup       10066cbb f   engine:engine.exe
 0001:00065cc1       _CleanGroup                10066cc1 f   engine:engine.exe
 0001:00065cc7       _DeleteHiddenUnits         10066cc7 f   engine:engine.exe
 0001:00065ccd       _GetEnemyForce             10066ccd f   engine:engine.exe
 0001:00065cd3       _GetAlliesForce            10066cd3 f   engine:engine.exe
 0001:00065cd9       _CreateFriendBuildingsTopList 10066cd9 f   engine:engine.exe
 0001:00065cdf       _GetGroupForce             10066cdf f   engine:engine.exe
 0001:00065ce5       _AttackByTomahawks         10066ce5 f   engine:engine.exe
 0001:00065ceb       _AttackEnemyInZone2        10066ceb f   engine:engine.exe
 0001:00065cf1       _MakeOneShotToBuild        10066cf1 f   engine:engine.exe
 0001:00065cf7       _ArtAttackGroud            10066cf7 f   engine:engine.exe
 0001:00065cfd       _ArtAttackObject           10066cfd f   engine:engine.exe
 0001:00065d03       _GetLastFullWay            10066d03 f   engine:engine.exe
 0001:00065d09       _SetDangerMap              10066d09 f   engine:engine.exe
 0001:00065d0f       _SetAI_Guard               10066d0f f   engine:engine.exe
 0001:00065d15       _SetToInternalResourcesZero 10066d15 f   engine:engine.exe
 0001:00065d1b       _RemoveNearestUnit         10066d1b f   engine:engine.exe
 0001:00065d21       _GetBuildingOposit         10066d21 f   engine:engine.exe
 0001:00065d27       _isUnitAbsorber            10066d27 f   engine:engine.exe
 0001:00065d2d       _AddRandNew                10066d2d f   engine:engine.exe
 0001:00065d33       ?RunPF@@YAXHPBD@Z          10066d33 f   engine:engine.exe
 0001:00065d39       ?StopPF@@YAXH@Z            10066d39 f   engine:engine.exe
 0001:00065d3f       ?SetDrawOnMiniMapCallback@@YAP6AHHHHHHH@ZP6AHHHHHHH@Z@Z 10066d3f f   engine:engine.exe
 0001:00065d45       ?SetDrawOnMapCallback@@YAP6AHXZP6AHXZ@Z 10066d45 f   engine:engine.exe
 0001:00065d4b       ?GetPictureIndex@@YAHPAD@Z 10066d4b f   engine:engine.exe
 0001:00065d51       ?GetPolkByIndex@@YAPAVPolk@@H@Z 10066d51 f   engine:engine.exe
 0001:00065d57       ?CreatePolk@@YAHXZ         10066d57 f   engine:engine.exe
 0001:00065d5d       ?GetGroupHandle@@YAPAXH@Z  10066d5d f   engine:engine.exe
 0001:00065d63       ?GetExGroupInfo@@YAPAVGroupExInfo@@PAXKH@Z 10066d63 f   engine:engine.exe
 0001:00065d69       ?GetUnitsGroup@@YAPAVUnitsGroup@@PAUGAMEOBJ@@@Z 10066d69 f   engine:engine.exe
 0001:00065d6f       ?LogWarning@GameInterface@@SAXPBDZZ 10066d6f f   engine:engine.exe
 0001:00065d75       ?GetExchangeInterface@GameInterface@@SAPAVIExchangeInterface@@K@Z 10066d75 f   engine:engine.exe
 0001:00065d7b       _GetCurrentPurpose         10066d7b f   engine:engine.exe
 0001:00065d81       _LimitUnitsMotion          10066d81 f   engine:engine.exe
 0001:00065d87       ?maiSetGroupID@@YAXGE@Z    10066d87 f   engine:engine.exe
 0001:00065d8d       ?maiSetWayArray@@YAXXZ     10066d8d f   engine:engine.exe
 0001:00065d93       ?maiSetTargets@@YAXPAG@Z   10066d93 f   engine:engine.exe
 0001:00065d99       ?maiSetDangerMap@@YAXPAH@Z 10066d99 f   engine:engine.exe
 0001:00065d9f       ?maiGetDangIteration@@YAHXZ 10066d9f f   engine:engine.exe
 0001:00065da5       ?maiGetDangFear@@YAHXZ     10066da5 f   engine:engine.exe
 0001:00065dab       ?GetVit2Alex@@YA_NXZ       10066dab f   engine:engine.exe
 0001:00065db1       ?GetDirEx@@YAGHH@Z         10066db1 f   engine:engine.exe
 0001:00065db7       ?isAttBuild@@YA_NPAVOneObject@@@Z 10066db7 f   engine:engine.exe
 0001:00065dbd       ?SetMinEnemy@@YAXH@Z       10066dbd f   engine:engine.exe
 0001:00065dc3       ?CorrectPosition@@YA_NEAAH0@Z 10066dc3 f   engine:engine.exe
 0001:00065dc9       _SetStartPoint             10066dc9 f   engine:engine.exe
 0001:00065dcf       _UnitsCenter               10066dcf f   engine:engine.exe
 0001:00065dd5       ?RReset@@YAPAXPBD@Z        10066dd5 f   engine:engine.exe
 0001:00065ddb       ?RFileSize@@YAKPAX@Z       10066ddb f   engine:engine.exe
 0001:00065de1       ?RBlockRead@@YAKPAX0K@Z    10066de1 f   engine:engine.exe
 0001:00065de7       ?RClose@@YAXPAX@Z          10066de7 f   engine:engine.exe
 0001:00065ded       ?Add@Enumerator@@QAEXPAD@Z 10066ded f   engine:engine.exe
 0001:00065df3       ?GetAmount@Enumerator@@QAEHXZ 10066df3 f   engine:engine.exe
 0001:00065df9       ?reg_parent@@YAXPAVBaseClass@@0@Z 10066df9 f   engine:engine.exe
 0001:00065dff       ??0_BYTE@@QAE@XZ           10066dff f   engine:engine.exe
 0001:00065e05       ??1_BYTE@@UAE@XZ           10066e05 f   engine:engine.exe
 0001:00065e0b       ?reset_class@_str@@UAEXPAX@Z 10066e0b f   engine:engine.exe
 0001:00065e11       ?FullCopy@_str@@UAE_NPAX0PAVBaseClass@@00PAVCopyContex@@@Z 10066e11 f   engine:engine.exe
 0001:00065e17       ?new_element@_str@@UAEPAVBaseClass@@XZ 10066e17 f   engine:engine.exe
 0001:00065e1d       ?GetClassStorage@_str@@UAEPAVOneClassStorage@@XZ 10066e1d f   engine:engine.exe
 0001:00065e23       ?CheckCompartabilityWith@_BYTE@@UAE_NPBDH@Z 10066e23 f   engine:engine.exe
 0001:00065e29       ?reset_class@_BYTE@@UAEXPAX@Z 10066e29 f   engine:engine.exe
 0001:00065e2f       ?FullCopy@_BYTE@@UAE_NPAX0PAVBaseClass@@00PAVCopyContex@@@Z 10066e2f f   engine:engine.exe
 0001:00065e35       ?new_element@_BYTE@@UAEPAVBaseClass@@XZ 10066e35 f   engine:engine.exe
 0001:00065e3b       ?GetClassStorage@_BYTE@@UAEPAVOneClassStorage@@XZ 10066e3b f   engine:engine.exe
 0001:00065e41       ?Save@_str@@UAEXAAVxmlQuote@@PAX1@Z 10066e41 f   engine:engine.exe
 0001:00065e47       ?Load@_str@@UAE_NAAVxmlQuote@@PAXPAVErrorPager@@1@Z 10066e47 f   engine:engine.exe
 0001:00065e4d       ?GetClassNameA@_str@@UAEPBDXZ 10066e4d f   engine:engine.exe
 0001:00065e53       ?Save@_BYTE@@UAEXAAVxmlQuote@@PAX1@Z 10066e53 f   engine:engine.exe
 0001:00065e59       ?Load@_BYTE@@UAE_NAAVxmlQuote@@PAXPAVErrorPager@@1@Z 10066e59 f   engine:engine.exe
 0001:00065e5f       ?GetClassNameA@_BYTE@@UAEPBDXZ 10066e5f f   engine:engine.exe
 0001:00065e65       ?SaveBin@_BYTE@@UAEXPAX0PAVBinStream@@PAVEnumerator@@2@Z 10066e65 f   engine:engine.exe
 0001:00065e6b       ?LoadBin@_BYTE@@UAEXPAX0PAVBinStream@@PAVEnumerator@@@Z 10066e6b f   engine:engine.exe
 0001:00065e71       ?ShowString@@YAXHHPBDPAVRLCFont@@@Z 10066e71 f   engine:engine.exe
 0001:00065e77       ?Gopen@@YAPAVGFILE@@PAD0@Z 10066e77 f   engine:engine.exe
 0001:00065e7d       ?Gclose@@YAXPAVGFILE@@@Z   10066e7d f   engine:engine.exe
 0001:00065e83       ?PreLoadGPImage@GP_System@@QAEHPAD@Z 10066e83 f   engine:engine.exe
 0001:00065e89       ?LoadGP@GP_System@@QAE_NH@Z 10066e89 f   engine:engine.exe
 0001:00065e8f       ?isClear@DString@@QAE_NXZ  10066e8f f   engine:engine.exe
 0001:00065e95       ?ExtractWord@DString@@QAEXAAV1@@Z 10066e95 f   engine:engine.exe
 0001:00065e9b       ??0xmlQuote@@QAE@PAD@Z     10066e9b f   engine:engine.exe
 0001:00065ea1       ?Load@xmlQuote@@QAEHPAD@Z  10066ea1 f   engine:engine.exe
 0001:00065ea7       ?GetXMLSource@xmlQuote@@QAEHPAVDString@@H@Z 10066ea7 f   engine:engine.exe
 0001:00065ead       ?WriteToFile@xmlQuote@@QAEXPAD@Z 10066ead f   engine:engine.exe
 0001:00065eb3       ??0ErrorPager@@QAE@XZ      10066eb3 f   engine:engine.exe
 0001:00065eb9       ??1ErrorPager@@QAE@XZ      10066eb9 f   engine:engine.exe
 0001:00065ebf       ?addGPPicture@ParentFrame@@QAEPAVGPPicture@@PAVSimpleDialog@@HHHH@Z 10066ebf f   engine:engine.exe
 0001:00065ec5       ?AddCanvas@ParentFrame@@QAEPAVCanvas@@HHHH@Z 10066ec5 f   engine:engine.exe
 0001:00065ecb       ?AddLine@Canvas@@QAEXHHHHK@Z 10066ecb f   engine:engine.exe
 0001:00065ed1       ?FindUnits@GAMEOBJ@@QAEGGG@Z 10066ed1 f   engine:engine.exe
 0001:00065ed7       _GetUnitsAmount1           10066ed7 f   engine:engine.exe
 0001:00065edd       _SelectUnits               10066edd f   engine:engine.exe
 0001:00065ee3       _SelectUnits1              10066ee3 f   engine:engine.exe
 0001:00065ee9       _SelChangeNation           10066ee9 f   engine:engine.exe
 0001:00065eef       _SetLightSpot              10066eef f   engine:engine.exe
 0001:00065ef5       _ClearLightSpot            10066ef5 f   engine:engine.exe
 0001:00065efb       _ProduceUnitFast           10066efb f   engine:engine.exe
 0001:00065f01       _SetUnitInfo               10066f01 f   engine:engine.exe
 0001:00065f07       _MissErrorMessage          10066f07 f   engine:engine.exe
 0001:00065f0d       _EraseGroup                10066f0d f   engine:engine.exe
 0001:00065f13       _SetGroupStartNMASK        10066f13 f   engine:engine.exe
 0001:00065f19       _GetZoneR                  10066f19 f   engine:engine.exe
 0001:00065f1f       _GetMoneyString            10066f1f f   engine:engine.exe
 0001:00065f25       _AddUnitsInZoneToGroup     10066f25 f   engine:engine.exe
 0001:00065f2b       _SGP_RepairBuilding        10066f2b f   engine:engine.exe
 0001:00065f31       _SGP_TakeResourcesZone     10066f31 f   engine:engine.exe
 0001:00065f37       _GetInsideList             10066f37 f   engine:engine.exe
 0001:00065f3d       _ChangeUnitColor           10066f3d f   engine:engine.exe
 0001:00065f43       _GetAmountOfZones          10066f43 f   engine:engine.exe
 0001:00065f49       _GetZoneName               10066f49 f   engine:engine.exe
 0001:00065f4f       _InsertUnitToGroup         10066f4f f   engine:engine.exe
 0001:00065f55       ?AssignHint@@YAXPADH@Z     10066f55 f   engine:engine.exe
 0001:00065f5b       ?GetResourceName@@YAPADE@Z 10066f5b f   engine:engine.exe
 0001:00065f61       ?ProduceUnitAtLeast@@YA_NPAUGAMEOBJ@@00HH@Z 10066f61 f   engine:engine.exe
 0001:00065f67       _GetOrderType              10066f67 f   engine:engine.exe
 0001:00065f6d       _DeleteUnit                10066f6d f   engine:engine.exe
 0001:00065f73       _OBJ_LeaveMine             10066f73 f   engine:engine.exe
 0001:00065f79       _OBJ_ChangeNation          10066f79 f   engine:engine.exe
 0001:00065f7f       ?GetFreePlacesInBrig@@YAHEHHPAH00AAH1@Z 10066f7f f   engine:engine.exe
 0001:00065f85       ?FindNearestSklad@@YAGEEHH@Z 10066f85 f   engine:engine.exe
 0001:00065f8b       _GetMyRefNation            10066f8b f   engine:engine.exe
 0001:00065f91       ?CreateFormationFromGroup@@YAGEPAUGAMEOBJ@@HHE@Z 10066f91 f   engine:engine.exe
 0001:00065f97       ?AddExGroupInfo@@YA_NPADPAVGroupExInfo@@@Z 10066f97 f   engine:engine.exe
 0001:00065f9d       ?PlayerHasMore@BaseResources@@QAE_NE@Z 10066f9d f   engine:engine.exe
 0001:00065fa3       ?PlayerHasMorePerc@BaseResources@@QAE_NEE@Z 10066fa3 f   engine:engine.exe
 0001:00065fa9       ?GetMonsterID@@YAPADH@Z    10066fa9 f   engine:engine.exe
 0001:00065faf       ?PlayerStatistic_AddTotalRes@@YAXEEH@Z 10066faf f   engine:engine.exe
 0001:00065fb5       ?DeleteOrders@@YAXPAUGAMEOBJ@@@Z 10066fb5 f   engine:engine.exe
 0001:00065fbb       _OBJ_SetNotSelectable      10066fbb f   engine:engine.exe
 0001:00065fc1       _FillFormationFromGroup    10066fc1 f   engine:engine.exe
 0001:00065fc7       ?GetPlayerNMask@@YAGE@Z    10066fc7 f   engine:engine.exe
 0001:00065fcd       ?AddIconToPanel@@YAPAXHHHH@Z 10066fcd f   engine:engine.exe
 0001:00065fd3       ?AddHintToIcon@@YAXPAXPAD@Z 10066fd3 f   engine:engine.exe
 0001:00065fd9       ?AddProcToIcon@@YAXPAXP6AXH@ZH1H@Z 10066fd9 f   engine:engine.exe
 0001:00065fdf       ?AddStageToIcon@@YAXPAXHH@Z 10066fdf f   engine:engine.exe
 0001:00065fe5       ?GetAbilityByName@@YAHPAD@Z 10066fe5 f   engine:engine.exe
 0001:00065feb       ?GetAbilityMessage@@YAPADH@Z 10066feb f   engine:engine.exe
 0001:00065ff1       ?GetAbilitySprite@@YAXHAAH0@Z 10066ff1 f   engine:engine.exe
 0001:00065ff7       ?CopyBrigadeUnitsToGroup@@YAXEGPAVUnitsGroup@@@Z 10066ff7 f   engine:engine.exe
 0001:00065ffd       ?RemoveNotBrigadesUnit@@YAXPAVUnitsGroup@@0@Z 10066ffd f   engine:engine.exe
 0001:00066003       ?ProcessDeffenders@@YAXPAUGAMEOBJ@@EHHHH@Z 10067003 f   engine:engine.exe
 0001:00066009       _OBJ_GoToMineAlways        10067009 f   engine:engine.exe
 0001:0006600f       _RegisterZoneEx            1006700f f   engine:engine.exe
 0001:00066015       ?SetStuff@@YAXPAUGAMEOBJ@@G@Z 10067015 f   engine:engine.exe
 0001:0006601b       ?BrigDisbandOne@@YA_NEH@Z  1006701b f   engine:engine.exe
 0001:00066021       ?GetPortBranch@@YAGPAVOneObject@@@Z 10067021 f   engine:engine.exe
 0001:00066027       ?UnPress@@YAXXZ            10067027 f   engine:engine.exe
 0001:0006602d       ?fes_neSettlementCapture@@YAXE@Z 1006702d f   engine:engine.exe
 0001:00066033       ?AddPulseSquare@@YAXHH@Z   10067033 f   engine:engine.exe
 0001:00066039       ?GetAmountBrigsInZone@@YAHEPAUGAMEOBJ@@@Z 10067039 f   engine:engine.exe
 0001:0006603f       ?AddUnlimitedUnitsInZone@@YAHEGHHHPAUGAMEOBJ@@@Z 1006703f f   engine:engine.exe
 0001:00066045       ?SetStuff@@YAXGG@Z         10067045 f   engine:engine.exe
 0001:0006604b       ?CmdEraseObjIfOutOfScreen@@YAXH@Z 1006704b f   engine:engine.exe
 0001:00066051       ?isInCampaign@@YA_NXZ      10067051 f   engine:engine.exe
 0001:00066057       ?vf_SettlementUpgrade_EnableState@@YA_NXZ 10067057 f   engine:engine.exe
 0001:0006605d       ?GetCostString@@YAXEPAHPAD@Z 1006705d f   engine:engine.exe
 0001:00066063       ?PlayerStatistic_AddOnUpgradeRes@@YAXEEH@Z 10067063 f   engine:engine.exe
 0001:00066069       ?isMine@@YA_NPAVOneObject@@@Z 10067069 f   engine:engine.exe
 0001:0006606f       ?isStorage@@YA_NPAVOneObject@@@Z 1006706f f   engine:engine.exe
 0001:00066075       ?GetDistToCenterOfCity@@YAHEHH@Z 10067075 f   engine:engine.exe
 0001:0006607b       _ClearSelection            1006707b f   engine:engine.exe
 0001:00066081       _SetPlayerName             10067081 f   engine:engine.exe
 0001:00066087       _OBJ_AttackObj             10067087 f   engine:engine.exe
 0001:0006608d       _FindNextZoneOnTheSafeWay  1006708d f   engine:engine.exe
 0001:00066093       _GetNextZone               10067093 f   engine:engine.exe
 0001:00066099       _SetUnitsCollector         10067099 f   engine:engine.exe
 0001:0006609f       ?GetEnemyTopInfo@@YAXEPAH00@Z 1006709f f   engine:engine.exe
 0001:000660a5       ?CreateAGroup@@YAXEPAD@Z   100670a5 f   engine:engine.exe
 0001:000660ab       ?CreateAZone@@YAXPADHHH@Z  100670ab f   engine:engine.exe
 0001:000660b1       ?ClearAZones@@YAXXZ        100670b1 f   engine:engine.exe
 0001:000660b7       ?CreateArmyInfo@@YAXEPAH0H@Z 100670b7 f   engine:engine.exe
 0001:000660bd       ?GetGroupPower@@YAJPAUGAMEOBJ@@@Z 100670bd f   engine:engine.exe
 0001:000660c3       ?SetMapOfShooters@@YAXEPAH0@Z 100670c3 f   engine:engine.exe
 0001:000660c9       ?DetPeasant@@YA_NG@Z       100670c9 f   engine:engine.exe
 0001:000660cf       ?DetAbsorbeAbility@@YA_NGG@Z 100670cf f   engine:engine.exe
 0001:000660d5       ?DetArcher@@YA_NG@Z        100670d5 f   engine:engine.exe
 0001:000660db       ?EraseBrig@@YAXEG@Z        100670db f   engine:engine.exe
 0001:000660e1       _OBJ_GoToMine              100670e1 f   engine:engine.exe
 0001:000660e7       ?AddEnemyCaptBuildTopList@@YA_NPAGE@Z 100670e7 f   engine:engine.exe
 0001:000660ed       ?AddEnemyCenterTopList@@YA_NPAGE@Z 100670ed f   engine:engine.exe
 0001:000660f3       ?CreateDangerMapBattle@@YAXEPAHH0H@Z 100670f3 f   engine:engine.exe
 0001:000660f9       _CreateTopListEnArmyBtl    100670f9 f   engine:engine.exe
 0001:000660ff       _SetBuildingsCollector     100670ff f   engine:engine.exe
 0001:00066105       ?DetectAbsorber@@YA_NG@Z   10067105 f   engine:engine.exe
 0001:0006610b       ?DetShoot@@YA_NG@Z         1006710b f   engine:engine.exe
 0001:00066111       _RegisterUpgrade           10067111 f   engine:engine.exe
 0001:00066117       ?GetCurMissionMapName@@YAPADXZ 10067117 f   engine:engine.exe
 0001:0006611d       ?GetBattleArmyValue@@YAPAEXZ 1006711d f   engine:engine.exe
 0001:00066123       ?GetGPHeight@GP_System@@QAEHHH@Z 10067123 f   engine:engine.exe
 0001:00066129       ?GetGPWidth@GP_System@@QAEHHH@Z 10067129 f   engine:engine.exe
 0001:0006612f       ?DrawPicture@@YAXHHHHE@Z   1006712f f   engine:engine.exe
 0001:00066135       ?SetCurrentDiffuse@@YAXK@Z 10067135 f   engine:engine.exe
 0001:0006613b       ?GetNatColor@@YAKH@Z       1006713b f   engine:engine.exe
 0001:00066141       ?SetUnitInterfaceCallback@@YAP6AHHHHHHHH@ZP6AHHHHHHHH@Z@Z 10067141 f   engine:engine.exe
 0001:00066147       ?TransformToScreen@@YAXHHHAAM00@Z 10067147 f   engine:engine.exe
 0001:0006614d       ?AddAbilityToBrigade@@YAHEGH@Z 1006714d f   engine:engine.exe
 0001:00066153       ?GetSelectedList@@YAHEAAPAG@Z 10067153 f   engine:engine.exe
 0001:00066159       ?CreateBrigInZone@@YAHEHHGG@Z 10067159 f   engine:engine.exe
 0001:0006615f       _OBJ_Produce               1006715f f   engine:engine.exe
 0001:00066165       ?SelBrigadeExp@@YAXEEH@Z   10067165 f   engine:engine.exe
 0001:0006616b       ?SetOrderedStateForComplexObject@@YAXPAVOneObject@@H@Z 1006716b f   engine:engine.exe
 0001:00066171       ?GetRefNation@@YAHE@Z      10067171 f   engine:engine.exe
 0001:00066177       ?GetUnitVisibility@@YA_NG@Z 10067177 f   engine:engine.exe
 0001:0006617d       ?DrawBrigSign@@YAXEGHHH@Z  1006717d f   engine:engine.exe
 0001:00066183       ?GetXOnMiniMap@@YAHHH@Z    10067183 f   engine:engine.exe
 0001:00066189       ?GetYOnMiniMap@@YAHHH@Z    10067189 f   engine:engine.exe
 0001:0006618f       ?GetXOnMiniMapEx@@YAHHH@Z  1006718f f   engine:engine.exe
 0001:00066195       ?GetYOnMiniMapEx@@YAHHH@Z  10067195 f   engine:engine.exe
 0001:0006619b       ?GetNatColor@@YAKHH@Z      1006719b f   engine:engine.exe
 0001:000661a1       ?DrawColoredCircle@@YAXHHHHKKKK@Z 100671a1 f   engine:engine.exe
 0001:000661a7       _SXP_SetVar                100671a7 f   intexplorer:intExplorer.dll
 0001:000661ad       _SXP_GetVar                100671ad f   intexplorer:intExplorer.dll
 0001:000661b3       _GetTickCount@0            100671b3 f   kernel32:KERNEL32.dll
 0001:000661b9       _MessageBoxA@16            100671b9 f   user32:USER32.dll
 0001:000661bf       _GetKeyState@4             100671bf f   user32:USER32.dll
 0001:000661d0       ??3@YAXPAXI@Z              100671d0 f   LIBCMTD:delete_scalar_size.obj
 0001:000661f0       @_RTC_AllocaHelper@12      100671f0 f   LIBCMTD:stack.obj
 0001:00066230       @_RTC_CheckStackVars2@12   10067230 f   LIBCMTD:stack.obj
 0001:00066340       @_RTC_CheckStackVars@8     10067340 f   LIBCMTD:stack.obj
 0001:000663b0       __RTC_CheckEsp             100673b0 f   LIBCMTD:stack.obj
 0001:000663e0       __CRT_RTC_INIT             100673e0 f   LIBCMTD:init.obj
 0001:000663f0       __CRT_RTC_INITW            100673f0 f   LIBCMTD:init.obj
 0001:00066400       __RTC_InitBase             10067400 f   LIBCMTD:init.obj
 0001:00066440       __RTC_Shutdown             10067440 f   LIBCMTD:init.obj
 0001:00066460       ??1type_info@@UAE@XZ       10067460 f   LIBCMTD:std_type_info_static.obj
 0001:00066480       ??_Etype_info@@UAEPAXI@Z   10067480 f i LIBCMTD:std_type_info_static.obj
 0001:00066480       ??_Gtype_info@@UAEPAXI@Z   10067480 f i LIBCMTD:std_type_info_static.obj
 0001:000664c0       ??_M@YGXPAXIHP6EX0@Z@Z     100674c0 f   LIBCMTD:ehvecdtr.obj
 0001:000664f0       ??_M@YGXPAXIIP6EX0@Z@Z     100674f0 f   LIBCMTD:ehvecdtr.obj
 0001:00066650       ?__ArrayUnwind@@YGXPAXIIP6EX0@Z@Z 10067650 f   LIBCMTD:ehvecdtr.obj
 0001:00066730       ??_V@YAXPAXI@Z             10067730 f   LIBCMTD:delete_array_size.obj
 0001:00066750       ?configure_argv@__scrt_narrow_argv_policy@@SAHXZ 10067750 f i LIBCMTD:utility.obj
 0001:00066820       ?initialize_environment@__scrt_narrow_environment_policy@@SAHXZ 10067820 f i LIBCMTD:utility.obj
 0001:000668c0       _NtCurrentTeb              100678c0 f i LIBCMTD:utility.obj
 0001:000668d0       ___scrt_acquire_startup_lock 100678d0 f   LIBCMTD:utility.obj
 0001:00066930       ___scrt_dllmain_after_initialize_c 10067930 f   LIBCMTD:utility.obj
 0001:00066970       ___scrt_dllmain_before_initialize_c 10067970 f   LIBCMTD:utility.obj
 0001:000669a0       ___scrt_dllmain_crt_thread_attach 100679a0 f   LIBCMTD:utility.obj
 0001:000669e0       ___scrt_dllmain_crt_thread_detach 100679e0 f   LIBCMTD:utility.obj
 0001:00066a00       ___scrt_dllmain_exception_filter 10067a00 f   LIBCMTD:utility.obj
 0001:00066a60       ___scrt_dllmain_uninitialize_c 10067a60 f   LIBCMTD:utility.obj
 0001:00066aa0       ___scrt_dllmain_uninitialize_critical 10067aa0 f   LIBCMTD:utility.obj
 0001:00066ac0       ___scrt_initialize_crt     10067ac0 f   LIBCMTD:utility.obj
 0001:00066b20       ___scrt_initialize_onexit_tables 10067b20 f   LIBCMTD:utility.obj
 0001:00066c30       ___scrt_is_nonwritable_in_current_image 10067c30 f   LIBCMTD:utility.obj
 0001:00066db0       ___scrt_release_startup_lock 10067db0 f   LIBCMTD:utility.obj
 0001:00066de0       ___scrt_uninitialize_crt   10067de0 f   LIBCMTD:utility.obj
 0001:00066e30       __onexit                   10067e30 f   LIBCMTD:utility.obj
 0001:00066eb0       _at_quick_exit             10067eb0 f   LIBCMTD:utility.obj
 0001:00066f00       _atexit                    10067f00 f   LIBCMTD:utility.obj
 0001:00067090       __Init_thread_abort        10068090 f   LIBCMTD:thread_safe_statics.obj
 0001:000670c0       __Init_thread_footer       100680c0 f   LIBCMTD:thread_safe_statics.obj
 0001:00067120       __Init_thread_header       10068120 f   LIBCMTD:thread_safe_statics.obj
 0001:000671b0       __Init_thread_lock         100681b0 f   LIBCMTD:thread_safe_statics.obj
 0001:000671d0       __Init_thread_notify       100681d0 f   LIBCMTD:thread_safe_statics.obj
 0001:00067230       __Init_thread_unlock       10068230 f   LIBCMTD:thread_safe_statics.obj
 0001:00067250       __Init_thread_wait         10068250 f   LIBCMTD:thread_safe_statics.obj
 0001:00067300       @__security_check_cookie@4 10068300 f   LIBCMTD:secchk.obj
 0001:00067320       ?__scrt_initialize_type_info@@YAXXZ 10068320 f   LIBCMTD:tncleanup.obj
 0001:00067340       ?__scrt_uninitialize_type_info@@YAXXZ 10068340 f   LIBCMTD:tncleanup.obj
 0001:00067360       ___raise_securityfailure   10068360 f   LIBCMTD:gs_report.obj
 0001:000673a0       ___report_gsfailure        100683a0 f   LIBCMTD:gs_report.obj
 0001:000674f0       ___report_rangecheckfailure 100684f0 f   LIBCMTD:gs_report.obj
 0001:00067500       ___report_securityfailure  10068500 f   LIBCMTD:gs_report.obj
 0001:00067610       ___report_securityfailureEx 10068610 f   LIBCMTD:gs_report.obj
 0001:00067780       __alloca_probe             10068780 f   LIBCMTD:chkstk.obj
 0001:00067780       __chkstk                   10068780 f   LIBCMTD:chkstk.obj
 0001:00067870       ?_RTC_AllocaFailure@@YAXPAXPAU_RTC_ALLOCA_NODE@@H@Z 10068870 f   LIBCMTD:error.obj
 0001:00067990       ?_RTC_Failure@@YAXPAXH@Z   10068990 f   LIBCMTD:error.obj
 0001:00067a00       ?_RTC_StackFailure@@YAXPAXPBD@Z 10068a00 f   LIBCMTD:error.obj
 0001:00067eb0       __RTC_UninitUse            10068eb0 f   LIBCMTD:error.obj
 0001:00067f90       __vsprintf_s_l             10068f90 f i LIBCMTD:error.obj
 0001:00067fd0       _sprintf_s                 10068fd0 f i LIBCMTD:error.obj
 0001:00068000       ??_L@YGXPAXIHP6EX0@Z1@Z    10069000 f   LIBCMTD:ehvecctr.obj
 0001:00068030       ??_L@YGXPAXIIP6EX0@Z1@Z    10069030 f   LIBCMTD:ehvecctr.obj
 0001:00068720       __CRT_INIT@12              10069720 f   LIBCMTD:dll_dllmain.obj
 0001:00068740       __DllMainCRTStartup@12     10069740 f   LIBCMTD:dll_dllmain.obj
 0001:00068770       ?_RTC_GetErrorFunc@@YAP6AHHPBDH00ZZPBX@Z 10069770 f   LIBCMTD:userapi.obj
 0001:00068780       ?_RTC_GetErrorFuncW@@YAP6AHHPB_WH00ZZPBX@Z 10069780 f   LIBCMTD:userapi.obj
 0001:00068790       __RTC_GetErrDesc           10069790 f   LIBCMTD:userapi.obj
 0001:000687b0       __RTC_NumErrors            100697b0 f   LIBCMTD:userapi.obj
 0001:000687c0       __RTC_SetErrorFunc         100697c0 f   LIBCMTD:userapi.obj
 0001:000687f0       __RTC_SetErrorFuncW        100697f0 f   LIBCMTD:userapi.obj
 0001:00068820       __RTC_SetErrorType         10069820 f   LIBCMTD:userapi.obj
 0001:00068850       @_guard_check_icall_nop@4  10069850 f i LIBCMTD:guard_support.obj
 0001:00068860       _ReadNoFence               10069860 f i LIBCMTD:guard_support.obj
 0001:00068880       _ReadPointerNoFence        10069880 f i LIBCMTD:guard_support.obj
 0001:000688a0       ___castguard_check_failure_debugbreak 100698a0 f i LIBCMTD:guard_support.obj
 0001:000688c0       ___castguard_check_failure_fastfail 100698c0 f i LIBCMTD:guard_support.obj
 0001:000688f0       ___castguard_check_failure_nop 100698f0 f i LIBCMTD:guard_support.obj
 0001:00068900       ___castguard_check_failure_os_handled 10069900 f i LIBCMTD:guard_support.obj
 0001:000689b0       ___castguard_slow_path_check_debugbreak 100699b0 f i LIBCMTD:guard_support.obj
 0001:000689f0       ___castguard_slow_path_check_fastfail 100699f0 f i LIBCMTD:guard_support.obj
 0001:00068a40       ___castguard_slow_path_check_nop 10069a40 f i LIBCMTD:guard_support.obj
 0001:00068a50       ___castguard_slow_path_check_os_handled 10069a50 f i LIBCMTD:guard_support.obj
 0001:00068af0       __guard_icall_checks_enforced 10069af0 f i LIBCMTD:guard_support.obj
 0001:00068b30       ___isa_available_init      10069b30 f   LIBCMTD:cpu_disp.obj
 0001:00068f30       __get_startup_argv_mode    10069f30 f   LIBCMTD:argv_mode.obj
 0001:00068f40       ___scrt_is_ucrt_dll_in_use 10069f40 f   LIBCMTD:ucrt_detection.obj
 0001:00068f70       ___scrt_fastfail           10069f70 f   LIBCMTD:utility_desktop.obj
 0001:00069100       ___scrt_get_show_window_mode 1006a100 f   LIBCMTD:utility_desktop.obj
 0001:00069150       ___scrt_initialize_mta     1006a150 f   LIBCMTD:utility_desktop.obj
 0001:00069160       ___scrt_initialize_winrt   1006a160 f   LIBCMTD:utility_desktop.obj
 0001:00069170       ___scrt_is_managed_app     1006a170 f   LIBCMTD:utility_desktop.obj
 0001:00069220       ___scrt_set_unhandled_exception_filter 1006a220 f   LIBCMTD:utility_desktop.obj
 0001:00069240       ___scrt_exe_initialize_mta 1006a240 f   LIBCMTD:utility_desktop.obj
 0001:00069240       ___scrt_stub_for_initialize_mta 1006a240 f   LIBCMTD:utility_desktop.obj
 0001:00069250       ___scrt_unhandled_exception_filter@4 1006a250 f   LIBCMTD:utility_desktop.obj
 0001:000692f0       __crt_debugger_hook        1006a2f0 f   LIBCMTD:utility_desktop.obj
 0001:000698b0       ?_RTC_GetSrcLine@@YAHPAEPA_WKPAH1K@Z 1006a8b0 f   LIBCMTD:pdblkup.obj
 0001:00069d10       __except_handler4_noexcept 1006ad10 f   LIBCMTD:chandler4_noexcept.obj
 0001:00069e20       ___security_init_cookie    1006ae20 f   LIBCMTD:gs_support.obj
 0001:00069ec0       ___scrt_initialize_default_local_stdio_options 1006aec0 f   LIBCMTD:default_local_stdio_options.obj
 0001:00069f10       ___scrt_get_dyn_tls_init_callback 1006af10 f   LIBCMTD:dyn_tls_init.obj
 0001:00069f20       __RTC_Initialize           1006af20 f   LIBCMTD:initsect.obj
 0001:00069f60       __RTC_Terminate            1006af60 f   LIBCMTD:initsect.obj
 0001:00069fa0       ??0_Init_locks@std@@QAE@XZ 1006afa0 f   libcpmtd:xlock.obj
 0001:0006a020       ??0_Lockit@std@@QAE@H@Z    1006b020 f   libcpmtd:xlock.obj
 0001:0006a080       ??0_Lockit@std@@QAE@XZ     1006b080 f   libcpmtd:xlock.obj
 0001:0006a0d0       ??1_Init_locks@std@@QAE@XZ 1006b0d0 f   libcpmtd:xlock.obj
 0001:0006a150       ??1_Lockit@std@@QAE@XZ     1006b150 f   libcpmtd:xlock.obj
 0001:0006a1a0       ?_Init_locks_ctor@_Init_locks@std@@CAXPAV12@@Z 1006b1a0 f   libcpmtd:xlock.obj
 0001:0006a210       ?_Init_locks_dtor@_Init_locks@std@@CAXPAV12@@Z 1006b210 f   libcpmtd:xlock.obj
 0001:0006a280       ?_Lockit_ctor@_Lockit@std@@CAXPAV12@@Z 1006b280 f   libcpmtd:xlock.obj
 0001:0006a2b0       ?_Lockit_ctor@_Lockit@std@@CAXPAV12@H@Z 1006b2b0 f   libcpmtd:xlock.obj
 0001:0006a2f0       ?_Lockit_ctor@_Lockit@std@@SAXH@Z 1006b2f0 f   libcpmtd:xlock.obj
 0001:0006a330       ?_Lockit_dtor@_Lockit@std@@CAXPAV12@@Z 1006b330 f   libcpmtd:xlock.obj
 0001:0006a350       ?_Lockit_dtor@_Lockit@std@@SAXH@Z 1006b350 f   libcpmtd:xlock.obj
 0001:0006a390       __Lock_at_thread_exit_mutex 1006b390 f   libcpmtd:xlock.obj
 0001:0006a3c0       __Unlock_at_thread_exit_mutex 1006b3c0 f   libcpmtd:xlock.obj
 0001:0006a3f0       ??0bad_alloc@std@@QAE@XZ   1006b3f0 f i libcpmtd:xthrow.obj
 0001:0006a420       ??0bad_function_call@std@@QAE@ABV01@@Z 1006b420 f i libcpmtd:xthrow.obj
 0001:0006a450       ??0bad_function_call@std@@QAE@XZ 1006b450 f i libcpmtd:xthrow.obj
 0001:0006a480       ??0exception@std@@QAE@QBD@Z 1006b480 f i libcpmtd:xthrow.obj
 0001:0006a4e0       ??0exception@std@@QAE@XZ   1006b4e0 f i libcpmtd:xthrow.obj
 0001:0006a510       ??0invalid_argument@std@@QAE@ABV01@@Z 1006b510 f i libcpmtd:xthrow.obj
 0001:0006a540       ??0invalid_argument@std@@QAE@PBD@Z 1006b540 f i libcpmtd:xthrow.obj
 0001:0006a570       ??0length_error@std@@QAE@ABV01@@Z 1006b570 f i libcpmtd:xthrow.obj
 0001:0006a5a0       ??0length_error@std@@QAE@PBD@Z 1006b5a0 f i libcpmtd:xthrow.obj
 0001:0006a5d0       ??0logic_error@std@@QAE@ABV01@@Z 1006b5d0 f i libcpmtd:xthrow.obj
 0001:0006a600       ??0logic_error@std@@QAE@PBD@Z 1006b600 f i libcpmtd:xthrow.obj
 0001:0006a630       ??0out_of_range@std@@QAE@ABV01@@Z 1006b630 f i libcpmtd:xthrow.obj
 0001:0006a660       ??0out_of_range@std@@QAE@PBD@Z 1006b660 f i libcpmtd:xthrow.obj
 0001:0006a690       ??0overflow_error@std@@QAE@ABV01@@Z 1006b690 f i libcpmtd:xthrow.obj
 0001:0006a6c0       ??0overflow_error@std@@QAE@PBD@Z 1006b6c0 f i libcpmtd:xthrow.obj
 0001:0006a6f0       ??0regex_error@std@@QAE@ABV01@@Z 1006b6f0 f i libcpmtd:xthrow.obj
 0001:0006a730       ??0regex_error@std@@QAE@W4error_type@regex_constants@1@@Z 1006b730 f i libcpmtd:xthrow.obj
 0001:0006a780       ??0runtime_error@std@@QAE@ABV01@@Z 1006b780 f i libcpmtd:xthrow.obj
 0001:0006a7b0       ??0runtime_error@std@@QAE@PBD@Z 1006b7b0 f i libcpmtd:xthrow.obj
 0001:0006a7e0       ??1bad_function_call@std@@UAE@XZ 1006b7e0 f i libcpmtd:xthrow.obj
 0001:0006a800       ??1invalid_argument@std@@UAE@XZ 1006b800 f i libcpmtd:xthrow.obj
 0001:0006a820       ??1length_error@std@@UAE@XZ 1006b820 f i libcpmtd:xthrow.obj
 0001:0006a840       ??1logic_error@std@@UAE@XZ 1006b840 f i libcpmtd:xthrow.obj
 0001:0006a860       ??1out_of_range@std@@UAE@XZ 1006b860 f i libcpmtd:xthrow.obj
 0001:0006a880       ??1overflow_error@std@@UAE@XZ 1006b880 f i libcpmtd:xthrow.obj
 0001:0006a8a0       ??1regex_error@std@@UAE@XZ 1006b8a0 f i libcpmtd:xthrow.obj
 0001:0006a8c0       ??1runtime_error@std@@UAE@XZ 1006b8c0 f i libcpmtd:xthrow.obj
 0001:0006a8e0       ??_Ebad_function_call@std@@UAEPAXI@Z 1006b8e0 f i libcpmtd:xthrow.obj
 0001:0006a8e0       ??_Gbad_function_call@std@@UAEPAXI@Z 1006b8e0 f i libcpmtd:xthrow.obj
 0001:0006a920       ??_Einvalid_argument@std@@UAEPAXI@Z 1006b920 f i libcpmtd:xthrow.obj
 0001:0006a920       ??_Ginvalid_argument@std@@UAEPAXI@Z 1006b920 f i libcpmtd:xthrow.obj
 0001:0006a960       ??_Elength_error@std@@UAEPAXI@Z 1006b960 f i libcpmtd:xthrow.obj
 0001:0006a960       ??_Glength_error@std@@UAEPAXI@Z 1006b960 f i libcpmtd:xthrow.obj
 0001:0006a9a0       ??_Elogic_error@std@@UAEPAXI@Z 1006b9a0 f i libcpmtd:xthrow.obj
 0001:0006a9a0       ??_Glogic_error@std@@UAEPAXI@Z 1006b9a0 f i libcpmtd:xthrow.obj
 0001:0006a9e0       ??_Eout_of_range@std@@UAEPAXI@Z 1006b9e0 f i libcpmtd:xthrow.obj
 0001:0006a9e0       ??_Gout_of_range@std@@UAEPAXI@Z 1006b9e0 f i libcpmtd:xthrow.obj
 0001:0006aa20       ??_Eoverflow_error@std@@UAEPAXI@Z 1006ba20 f i libcpmtd:xthrow.obj
 0001:0006aa20       ??_Goverflow_error@std@@UAEPAXI@Z 1006ba20 f i libcpmtd:xthrow.obj
 0001:0006aa60       ??_Eregex_error@std@@UAEPAXI@Z 1006ba60 f i libcpmtd:xthrow.obj
 0001:0006aa60       ??_Gregex_error@std@@UAEPAXI@Z 1006ba60 f i libcpmtd:xthrow.obj
 0001:0006aaa0       ??_Eruntime_error@std@@UAEPAXI@Z 1006baa0 f i libcpmtd:xthrow.obj
 0001:0006aaa0       ??_Gruntime_error@std@@UAEPAXI@Z 1006baa0 f i libcpmtd:xthrow.obj
 0001:0006aae0       ?_Stringify@regex_error@std@@CAPBDW4error_type@regex_constants@2@@Z 1006bae0 f i libcpmtd:xthrow.obj
 0001:0006abe0       ?_Xbad_alloc@std@@YAXXZ    1006bbe0 f   libcpmtd:xthrow.obj
 0001:0006ac10       ?_Xbad_function_call@std@@YAXXZ 1006bc10 f   libcpmtd:xthrow.obj
 0001:0006ac40       ?_Xinvalid_argument@std@@YAXPBD@Z 1006bc40 f   libcpmtd:xthrow.obj
 0001:0006ac70       ?_Xlength_error@std@@YAXPBD@Z 1006bc70 f   libcpmtd:xthrow.obj
 0001:0006aca0       ?_Xout_of_range@std@@YAXPBD@Z 1006bca0 f   libcpmtd:xthrow.obj
 0001:0006acd0       ?_Xoverflow_error@std@@YAXPBD@Z 1006bcd0 f   libcpmtd:xthrow.obj
 0001:0006ad00       ?_Xregex_error@std@@YAXW4error_type@regex_constants@1@@Z 1006bd00 f   libcpmtd:xthrow.obj
 0001:0006ad30       ?_Xruntime_error@std@@YAXPBD@Z 1006bd30 f   libcpmtd:xthrow.obj
 0001:0006ad60       ?__empty_global_delete@@YAXPAX@Z 1006bd60 f i libcpmtd:xthrow.obj
 0001:0006ad70       ?__empty_global_delete@@YAXPAXI@Z 1006bd70 f i libcpmtd:xthrow.obj
 0001:0006ad80       ?__empty_global_delete@@YAXPAXIW4align_val_t@std@@@Z 1006bd80 f i libcpmtd:xthrow.obj
 0001:0006ad90       ?__empty_global_delete@@YAXPAXW4align_val_t@std@@@Z 1006bd90 f i libcpmtd:xthrow.obj
 0001:0006ada0       ?what@bad_function_call@std@@UBEPBDXZ 1006bda0 f i libcpmtd:xthrow.obj
 0001:0006adc0       __Mtxdst                   1006bdc0 f   libcpmtd:xmtx.obj
 0001:0006ade0       __Mtxinit                  1006bde0 f   libcpmtd:xmtx.obj
 0001:0006ae00       __Mtxlock                  1006be00 f   libcpmtd:xmtx.obj
 0001:0006ae20       __Mtxunlock                1006be20 f   libcpmtd:xmtx.obj
 0001:0006ae40       _memcpy                    1006be40 f   libvcruntimed:memcpy.obj
 0001:0006b520       _memmove                   1006c520 f   libvcruntimed:memmove.obj
 0001:0006bc00       _memset                    1006cc00 f   libvcruntimed:memset.obj
 0001:0006bdf0       ??$?RD@__crt_internal_free_policy@@QBEXQBD@Z 1006cdf0 f i libvcruntimed:std_type_info.obj
 0001:0006be20       ??$?RX@__crt_internal_free_policy@@QBEXQBX@Z 1006ce20 f i libvcruntimed:std_type_info.obj
 0001:0006be50       ??$__crt_interlocked_compare_exchange_pointer@$$CBDPAD$$T@@YAPBDPDSBDQAD$$T@Z 1006ce50 f i libvcruntimed:std_type_info.obj
 0001:0006be70       ??$__crt_interlocked_read_pointer@$$CBD@@YAPBDPDSBD@Z 1006ce70 f i libvcruntimed:std_type_info.obj
 0001:0006be90       ??0?$__crt_unique_heap_ptr@DU__crt_internal_free_policy@@@@QAE@QAD@Z 1006ce90 f i libvcruntimed:std_type_info.obj
 0001:0006beb0       ??0?$__crt_unique_heap_ptr@XU__crt_internal_free_policy@@@@QAE@QAX@Z 1006ceb0 f i libvcruntimed:std_type_info.obj
 0001:0006bed0       ??1?$__crt_unique_heap_ptr@DU__crt_internal_free_policy@@@@QAE@XZ 1006ced0 f i libvcruntimed:std_type_info.obj
 0001:0006bef0       ??1?$__crt_unique_heap_ptr@XU__crt_internal_free_policy@@@@QAE@XZ 1006cef0 f i libvcruntimed:std_type_info.obj
 0001:0006bf10       ??B?$__crt_unique_heap_ptr@DU__crt_internal_free_policy@@@@QBE_NXZ 1006cf10 f i libvcruntimed:std_type_info.obj
 0001:0006bf30       ??B?$__crt_unique_heap_ptr@XU__crt_internal_free_policy@@@@QBE_NXZ 1006cf30 f i libvcruntimed:std_type_info.obj
 0001:0006bfb0       ?__crt_interlocked_read_32@@YAHPDH@Z 1006cfb0 f i libvcruntimed:std_type_info.obj
 0001:0006bfd0       ?detach@?$__crt_unique_heap_ptr@XU__crt_internal_free_policy@@@@QAEPAXXZ 1006cfd0 f i libvcruntimed:std_type_info.obj
 0001:0006c000       ?get@?$__crt_unique_heap_ptr@DU__crt_internal_free_policy@@@@QBEPADXZ 1006d000 f i libvcruntimed:std_type_info.obj
 0001:0006c020       ?get@?$__crt_unique_heap_ptr@XU__crt_internal_free_policy@@@@QBEPAXXZ 1006d020 f i libvcruntimed:std_type_info.obj
 0001:0006c040       ?is_valid@?$__crt_unique_heap_ptr@DU__crt_internal_free_policy@@@@QBE_NXZ 1006d040 f i libvcruntimed:std_type_info.obj
 0001:0006c080       ?is_valid@?$__crt_unique_heap_ptr@XU__crt_internal_free_policy@@@@QBE_NXZ 1006d080 f i libvcruntimed:std_type_info.obj
 0001:0006c0c0       ?release@?$__crt_unique_heap_ptr@DU__crt_internal_free_policy@@@@QAEXXZ 1006d0c0 f i libvcruntimed:std_type_info.obj
 0001:0006c0f0       ?release@?$__crt_unique_heap_ptr@XU__crt_internal_free_policy@@@@QAEXXZ 1006d0f0 f i libvcruntimed:std_type_info.obj
 0001:0006c120       ___std_type_info_compare   1006d120 f   libvcruntimed:std_type_info.obj
 0001:0006c150       ___std_type_info_destroy_list 1006d150 f   libvcruntimed:std_type_info.obj
 0001:0006c1a0       ___std_type_info_hash      1006d1a0 f   libvcruntimed:std_type_info.obj
 0001:0006c210       ___std_type_info_name      1006d210 f   libvcruntimed:std_type_info.obj
 0001:0006c440       ??$?0AAViterator@TryBlockMap@__FrameHandler3@@AAV012@$0A@@?$pair@Viterator@TryBlockMap@__FrameHandler3@@V123@@std@@QAE@AAViterator@TryBlockMap@__FrameHandler3@@0@Z 1006d440 f i libvcruntimed:trnsctrl.obj
 0001:0006c4a0       ??$forward@AAViterator@TryBlockMap@__FrameHandler3@@@std@@YAAAViterator@TryBlockMap@__FrameHandler3@@AAV123@@Z 1006d4a0 f i libvcruntimed:trnsctrl.obj
 0001:0006c4b0       ??0iterator@TryBlockMap@__FrameHandler3@@QAE@AAV12@I@Z 1006d4b0 f i libvcruntimed:trnsctrl.obj
 0001:0006c4e0       ?GetRangeOfTrysToCheck@__FrameHandler3@@SA?AU?$pair@Viterator@TryBlockMap@__FrameHandler3@@V123@@std@@AAVTryBlockMap@1@HPAXPBU_s_FuncInfo@@H@Z 1006d4e0 f   libvcruntimed:trnsctrl.obj
 0001:0006c600       ?_CallCatchBlock2@@YAPAXPAUEHRegistrationNode@@PBU_s_FuncInfo@@PAXHK@Z 1006d600 f   libvcruntimed:trnsctrl.obj
 0001:0006c690       ?_CallSETranslator@@YAHPAUEHExceptionRecord@@PAUEHRegistrationNode@@PAX2PBU_s_FuncInfo@@H1@Z 1006d690 f   libvcruntimed:trnsctrl.obj
 0001:0006c7f0       ?_JumpToContinuation@@YGXPAXPAUEHRegistrationNode@@@Z 1006d7f0 f   libvcruntimed:trnsctrl.obj
 0001:0006c830       ?_UnwindNestedFrames@@YGXPAUEHRegistrationNode@@PAUEHExceptionRecord@@@Z 1006d830 f   libvcruntimed:trnsctrl.obj
 0001:0006c8a0       __CatchGuardHandler        1006d8a0 f   libvcruntimed:trnsctrl.obj
 0001:0006c900       __CreateFrameInfo          1006d900 f   libvcruntimed:trnsctrl.obj
 0001:0006c940       __FindAndUnlinkFrame       1006d940 f   libvcruntimed:trnsctrl.obj
 0001:0006c9d0       __TranslatorGuardHandler   1006d9d0 f   libvcruntimed:trnsctrl.obj
 0001:0006cab0       ___CxxFrameHandler         1006dab0 f   libvcruntimed:trnsctrl.obj
 0001:0006cb00       ___CxxFrameHandler2        1006db00 f   libvcruntimed:trnsctrl.obj
 0001:0006cb50       ___CxxFrameHandler3        1006db50 f   libvcruntimed:trnsctrl.obj
 0001:0006cba0       ___CxxLongjmpUnwind@4      1006dba0 f   libvcruntimed:trnsctrl.obj
 0001:0006cbf0       ??$?RD@__crt_public_free_policy@@QBEXQBD@Z 1006dbf0 f i libvcruntimed:std_exception.obj
 0001:0006cc10       ??0?$__crt_unique_heap_ptr@DU__crt_public_free_policy@@@@QAE@QAD@Z 1006dc10 f i libvcruntimed:std_exception.obj
 0001:0006cc30       ??1?$__crt_unique_heap_ptr@DU__crt_public_free_policy@@@@QAE@XZ 1006dc30 f i libvcruntimed:std_exception.obj
 0001:0006cc50       ??B?$__crt_unique_heap_ptr@DU__crt_public_free_policy@@@@QBE_NXZ 1006dc50 f i libvcruntimed:std_exception.obj
 0001:0006cc70       ?detach@?$__crt_unique_heap_ptr@DU__crt_public_free_policy@@@@QAEPADXZ 1006dc70 f i libvcruntimed:std_exception.obj
 0001:0006cca0       ?get@?$__crt_unique_heap_ptr@DU__crt_public_free_policy@@@@QBEPADXZ 1006dca0 f i libvcruntimed:std_exception.obj
 0001:0006ccc0       ?is_valid@?$__crt_unique_heap_ptr@DU__crt_public_free_policy@@@@QBE_NXZ 1006dcc0 f i libvcruntimed:std_exception.obj
 0001:0006cd00       ?release@?$__crt_unique_heap_ptr@DU__crt_public_free_policy@@@@QAEXXZ 1006dd00 f i libvcruntimed:std_exception.obj
 0001:0006cd30       ___std_exception_copy      1006dd30 f   libvcruntimed:std_exception.obj
 0001:0006ce60       ___std_exception_destroy   1006de60 f   libvcruntimed:std_exception.obj
 0001:0006cea0       __CxxThrowException@8      1006dea0 f   libvcruntimed:throw.obj
 0001:0006cf70       _strstr                    1006df70 f   libvcruntimed:strstr.obj
 0001:0006d280       ___DestructExceptionObject 1006e280 f   libvcruntimed:ehhelpers.obj
 0001:0006d3f0       ?_CallMemberFunction0@@YGXQAX0@Z 1006e3f0 f i libvcruntimed:ehhelpers.obj
 0001:0006d4c0       ?raw_name@type_info@@QBEPBDXZ 1006e4c0 f i libvcruntimed:ehhelpers.obj
 0001:0006d4e0       __IsExceptionObjectToBeDestroyed 1006e4e0 f   libvcruntimed:ehhelpers.obj
 0001:0006d530       __SetWinRTOutOfMemoryExceptionCallback 1006e530 f   libvcruntimed:ehhelpers.obj
 0001:0006d540       ___AdjustPointer           1006e540 f   libvcruntimed:ehhelpers.obj
 0001:0006d5a0       ___FrameUnwindFilter       1006e5a0 f   libvcruntimed:ehhelpers.obj
 0001:0006d650       ___GetPlatformExceptionInfo 1006e650 f   libvcruntimed:ehhelpers.obj
 0001:0006d6f0       ___current_exception       1006e6f0 f   libvcruntimed:ehhelpers.obj
 0001:0006d700       ___current_exception_context 1006e700 f   libvcruntimed:ehhelpers.obj
 0001:0006d710       ___processing_throw        1006e710 f   libvcruntimed:ehhelpers.obj
 0001:0006d720       ___std_terminate           1006e720 f   libvcruntimed:ehhelpers.obj
 0001:0006d730       __is_exception_typeof      1006e730 f   libvcruntimed:ehhelpers.obj
 0001:0006d8c0       __except_handler4          1006e8c0 f   libvcruntimed:chandler4.obj
 0001:0006db20       ___vcrt_initialize         1006eb20 f   libvcruntimed:initialization.obj
 0001:0006db60       ___vcrt_thread_attach      1006eb60 f   libvcruntimed:initialization.obj
 0001:0006db80       ___vcrt_thread_detach      1006eb80 f   libvcruntimed:initialization.obj
 0001:0006dba0       ___vcrt_uninitialize       1006eba0 f   libvcruntimed:initialization.obj
 0001:0006dbc0       ___vcrt_uninitialize_critical 1006ebc0 f   libvcruntimed:initialization.obj
 0001:0006dbe0       ___vcrt_GetModuleFileNameW 1006ebe0 f   libvcruntimed:winapi_thunks.obj
 0001:0006dc00       ___vcrt_GetModuleHandleW   1006ec00 f   libvcruntimed:winapi_thunks.obj
 0001:0006dc20       ___vcrt_LoadLibraryExW     1006ec20 f   libvcruntimed:winapi_thunks.obj
 0001:0006dc40       ??$?0$00@DName@@QAE@PBDU?$StringLifeSelector@$00@@@Z 1006ec40 f i libvcruntimed:undname.obj
 0001:0006dcb0       ??$?0$00@pcharNode@@QAE@PBDHU?$StringLifeSelector@$00@@@Z 1006ecb0 f i libvcruntimed:undname.obj
 0001:0006dcf0       ??$?0$01@DName@@QAE@PBDU?$StringLifeSelector@$01@@@Z 1006ecf0 f i libvcruntimed:undname.obj
 0001:0006dd60       ??$?0$01@pcharNode@@QAE@PBDHU?$StringLifeSelector@$01@@@Z 1006ed60 f i libvcruntimed:undname.obj
 0001:0006de00       ??$?0$0A@@DName@@QAE@PBDU?$StringLifeSelector@$0A@@@@Z 1006ee00 f i libvcruntimed:undname.obj
 0001:0006de70       ??$?0$0A@@pcharNode@@QAE@PBDHU?$StringLifeSelector@$0A@@@@Z 1006ee70 f i libvcruntimed:undname.obj
 0001:0006df10       ??$?0_K$0A@@?$optional@_K@std@@QAE@$$QA_K@Z 1006ef10 f i libvcruntimed:undname.obj
 0001:0006df60       ??$?0_K@?$_Optional_construct_base@_K@std@@QAE@Uin_place_t@1@$$QA_K@Z 1006ef60 f i libvcruntimed:undname.obj
 0001:0006df90       ??$?0_K@?$_Optional_destruct_base@_K$00@std@@QAE@Uin_place_t@1@$$QA_K@Z 1006ef90 f i libvcruntimed:undname.obj
 0001:0006dfd0       ??$append@VDNameNode@@@DName@@AAEXPBVDNameNode@@@Z 1006efd0 f i libvcruntimed:undname.obj
 0001:0006e080       ??$append@VDNameStatusNode@@@DName@@AAEXPBVDNameStatusNode@@@Z 1006f080 f i libvcruntimed:undname.obj
 0001:0006e130       ??$append@VcharNode@@@DName@@AAEXPBVcharNode@@@Z 1006f130 f i libvcruntimed:undname.obj
 0001:0006e1e0       ??$append@VpDNameNode@@@DName@@AAEXPBVpDNameNode@@@Z 1006f1e0 f i libvcruntimed:undname.obj
 0001:0006e290       ??$append@VpcharNode@@@DName@@AAEXPBVpcharNode@@@Z 1006f290 f i libvcruntimed:undname.obj
 0001:0006e340       ??$doPchar@$00@DName@@AAEXPBDH@Z 1006f340 f i libvcruntimed:undname.obj
 0001:0006e490       ??$doPchar@$01@DName@@AAEXPBDH@Z 1006f490 f i libvcruntimed:undname.obj
 0001:0006e5e0       ??$doPchar@$0A@@DName@@AAEXPBDH@Z 1006f5e0 f i libvcruntimed:undname.obj
 0001:0006e730       ??$forward@_K@std@@YA$$QA_KAA_K@Z 1006f730 f i libvcruntimed:undname.obj
 0001:0006e8a0       ??$size@D$04@std@@YAIAAY04$$CBD@Z 1006f8a0 f i libvcruntimed:undname.obj
 0001:0006e8b0       ??0?$_Optional_construct_base@_K@std@@QAE@XZ 1006f8b0 f i libvcruntimed:undname.obj
 0001:0006e8d0       ??0?$_Optional_destruct_base@_K$00@std@@QAE@XZ 1006f8d0 f i libvcruntimed:undname.obj
 0001:0006e900       ??0?$optional@_K@std@@QAE@XZ 1006f900 f i libvcruntimed:undname.obj
 0001:0006e920       ??0Block@_HeapManager@@QAE@XZ 1006f920 f i libvcruntimed:undname.obj
 0001:0006e940       ??0DName@@QAE@AAPBDD@Z     1006f940 f   libvcruntimed:undname.obj
 0001:0006eb10       ??0DName@@QAE@ABUStringLiteral@@@Z 1006fb10 f   libvcruntimed:undname.obj
 0001:0006eb70       ??0DName@@QAE@ABV0@@Z      1006fb70 f i libvcruntimed:undname.obj
 0001:0006eba0       ??0DName@@QAE@D@Z          1006fba0 f   libvcruntimed:undname.obj
 0001:0006ebe0       ??0DName@@QAE@PAV0@@Z      1006fbe0 f   libvcruntimed:undname.obj
 0001:0006ecc0       ??0DName@@QAE@W4DNameStatus@@@Z 1006fcc0 f   libvcruntimed:undname.obj
 0001:0006ed80       ??0DName@@QAE@XZ           1006fd80 f i libvcruntimed:undname.obj
 0001:0006edb0       ??0DName@@QAE@_J@Z         1006fdb0 f   libvcruntimed:undname.obj
 0001:0006eed0       ??0DName@@QAE@_K@Z         1006fed0 f   libvcruntimed:undname.obj
 0001:0006efa0       ??0DNameNode@@IAE@XZ       1006ffa0 f i libvcruntimed:undname.obj
 0001:0006efc0       ??0Replicator@@QAE@XZ      1006ffc0 f i libvcruntimed:undname.obj
 0001:0006f010       ??0UnDecorator@@QAE@PBDP6APADJ@ZK@Z 10070010 f i libvcruntimed:undname.obj
 0001:0006f0b0       ??0_Nontrivial_dummy_type@std@@QAE@XZ 100700b0 f i libvcruntimed:undname.obj
 0001:0006f0d0       ??0charNode@@QAE@D@Z       100700d0 f i libvcruntimed:undname.obj
 0001:0006f110       ??0pDNameNode@@QAE@PAVDName@@@Z 10070110 f   libvcruntimed:undname.obj
 0001:0006f190       ??0pairNode@@QAE@PBVDNameNode@@0@Z 10070190 f i libvcruntimed:undname.obj
 0001:0006f200       ??2@YAPAXIAAV_HeapManager@@H@Z 10070200 f   libvcruntimed:undname.obj
 0001:0006f250       ??4DName@@QAEAAV0@ABUStringLiteral@@@Z 10070250 f   libvcruntimed:undname.obj
 0001:0006f2a0       ??4DName@@QAEAAV0@ABV0@@Z  100702a0 f   libvcruntimed:undname.obj
 0001:0006f2d0       ??4DName@@QAEAAV0@D@Z      100702d0 f i libvcruntimed:undname.obj
 0001:0006f310       ??4DName@@QAEAAV0@PAV0@@Z  10070310 f   libvcruntimed:undname.obj
 0001:0006f3d0       ??4DName@@QAEAAV0@W4DNameStatus@@@Z 100703d0 f   libvcruntimed:undname.obj
 0001:0006f470       ??AReplicator@@QBE?AVDName@@H@Z 10070470 f   libvcruntimed:undname.obj
 0001:0006f4f0       ??B?$optional@_K@std@@QBE_NXZ 100704f0 f i libvcruntimed:undname.obj
 0001:0006f510       ??D?$_Optional_construct_base@_K@std@@QGAEAA_KXZ 10070510 f i libvcruntimed:undname.obj
 0001:0006f590       ??H@YA?AVDName@@ABUStringLiteral@@ABV0@@Z 10070590 f i libvcruntimed:undname.obj
 0001:0006f5d0       ??H@YA?AVDName@@DABV0@@Z   100705d0 f i libvcruntimed:undname.obj
 0001:0006f610       ??H@YA?AVDName@@W4DNameStatus@@ABV0@@Z 10070610 f i libvcruntimed:undname.obj
 0001:0006f650       ??HDName@@QBE?AV0@ABUStringLiteral@@@Z 10070650 f   libvcruntimed:undname.obj
 0001:0006f6a0       ??HDName@@QBE?AV0@ABV0@@Z  100706a0 f   libvcruntimed:undname.obj
 0001:0006f6f0       ??HDName@@QBE?AV0@D@Z      100706f0 f   libvcruntimed:undname.obj
 0001:0006f740       ??HDName@@QBE?AV0@PAV0@@Z  10070740 f   libvcruntimed:undname.obj
 0001:0006f790       ??HDName@@QBE?AV0@W4DNameStatus@@@Z 10070790 f   libvcruntimed:undname.obj
 0001:0006f7e0       ??HStringLiteral@@QBE?AU0@H@Z 100707e0 f i libvcruntimed:undname.obj
 0001:0006f820       ??YDName@@QAEAAV0@ABUStringLiteral@@@Z 10070820 f   libvcruntimed:undname.obj
 0001:0006f8e0       ??YDName@@QAEAAV0@ABV0@@Z  100708e0 f   libvcruntimed:undname.obj
 0001:0006f9a0       ??YDName@@QAEAAV0@D@Z      100709a0 f   libvcruntimed:undname.obj
 0001:0006fa40       ??YDName@@QAEAAV0@PAV0@@Z  10070a40 f   libvcruntimed:undname.obj
 0001:0006fb20       ??YDName@@QAEAAV0@W4DNameStatus@@@Z 10070b20 f   libvcruntimed:undname.obj
 0001:0006fba0       ??YReplicator@@QAEAAV0@ABVDName@@@Z 10070ba0 f   libvcruntimed:undname.obj
 0001:0006fc50       ??_5DName@@QAEAAV0@ABV0@@Z 10070c50 f   libvcruntimed:undname.obj
 0001:0006fcc0       ??__K_l@@YA?AUStringLiteral@@PBDI@Z 10070cc0 f i libvcruntimed:undname.obj
 0001:0006fcf0       ?Constructor@_HeapManager@@QAEXP6APAXI@ZP6AXPAX@Z@Z 10070cf0 f i libvcruntimed:undname.obj
 0001:0006fd40       ?Destructor@_HeapManager@@QAEXXZ 10070d40 f i libvcruntimed:undname.obj
 0001:0006fde0       ?UScore@UnDecorator@@SA?AUStringLiteral@@W4Tokens@@@Z 10070de0 f   libvcruntimed:undname.obj
 0001:0006fe40       ?composeDeclaration@UnDecorator@@CA?AVDName@@ABV2@@Z 10070e40 f i libvcruntimed:undname.obj
 0001:00072590       ?dbGetString@DName@@QBEPADXZ 10073590 f   libvcruntimed:undname.obj
 0001:000725c0       ?doAccessSpecifiers@UnDecorator@@SAHXZ 100735c0 f i libvcruntimed:undname.obj
 0001:000725f0       ?doAllocationLanguage@UnDecorator@@SAHXZ 100735f0 f i libvcruntimed:undname.obj
 0001:00072620       ?doAllocationModel@UnDecorator@@SAHXZ 10073620 f i libvcruntimed:undname.obj
 0001:00072650       ?doEcsu@UnDecorator@@SAHXZ 10073650 f i libvcruntimed:undname.obj
 0001:00072680       ?doEllipsis@UnDecorator@@SAHXZ 10073680 f i libvcruntimed:undname.obj
 0001:000726b0       ?doFunctionReturns@UnDecorator@@SAHXZ 100736b0 f i libvcruntimed:undname.obj
 0001:000726e0       ?doMSKeywords@UnDecorator@@SAHXZ 100736e0 f i libvcruntimed:undname.obj
 0001:00072710       ?doMemberTypes@UnDecorator@@SAHXZ 10073710 f i libvcruntimed:undname.obj
 0001:00072740       ?doNameOnly@UnDecorator@@SAHXZ 10073740 f i libvcruntimed:undname.obj
 0001:00072760       ?doNoIdentCharCheck@UnDecorator@@SAHXZ 10073760 f i libvcruntimed:undname.obj
 0001:00072780       ?doPchar@DName@@AAEXD@Z    10073780 f   libvcruntimed:undname.obj
 0001:00072810       ?doPtr64@UnDecorator@@SAHXZ 10073810 f i libvcruntimed:undname.obj
 0001:00072840       ?doRestrictionSpec@UnDecorator@@SAHXZ 10073840 f i libvcruntimed:undname.obj
 0001:00072870       ?doThisTypes@UnDecorator@@SAHXZ 10073870 f i libvcruntimed:undname.obj
 0001:000728b0       ?doThrowTypes@UnDecorator@@SAHXZ 100738b0 f i libvcruntimed:undname.obj
 0001:000728e0       ?doTypeOnly@UnDecorator@@SAHXZ 100738e0 f i libvcruntimed:undname.obj
 0001:00072900       ?doUnderScore@UnDecorator@@SAHXZ 10073900 f i libvcruntimed:undname.obj
 0001:00072930       ?getAddressOf@UnDecorator@@CA?AVDName@@XZ 10073930 f   libvcruntimed:undname.obj
 0001:000729d0       ?getArgumentList@UnDecorator@@CA?AVDName@@XZ 100739d0 f   libvcruntimed:undname.obj
 0001:00072b70       ?getArgumentTypes@UnDecorator@@CA?AVDName@@XZ 10073b70 f   libvcruntimed:undname.obj
 0001:00072db0       ?getArrayAccess@UnDecorator@@CA?AVDName@@XZ 10073db0 f   libvcruntimed:undname.obj
 0001:00072e70       ?getArrayObject@UnDecorator@@CA?AVDName@@XZ 10073e70 f   libvcruntimed:undname.obj
 0001:00072f90       ?getArrayType@UnDecorator@@CA?AVDName@@ABV2@@Z 10073f90 f i libvcruntimed:undname.obj
 0001:000732d0       ?getBasedType@UnDecorator@@CA?AVDName@@XZ 100742d0 f   libvcruntimed:undname.obj
 0001:00073400       ?getBasicDataType@UnDecorator@@CA?AVDName@@ABV2@@Z 10074400 f   libvcruntimed:undname.obj
 0001:00074040       ?getCHPEName@UnDecorator@@QAEPADPADH@Z 10075040 f i libvcruntimed:undname.obj
 0001:00074200       ?getCallIndex@UnDecorator@@CA?AVDName@@XZ 10075200 f i libvcruntimed:undname.obj
 0001:00074220       ?getCallingConvention@UnDecorator@@CA?AVDName@@XZ 10075220 f   libvcruntimed:undname.obj
 0001:00074510       ?getDataIndirectType@UnDecorator@@CA?AVDName@@ABV2@W4IndirectionKind@@0H@Z 10075510 f   libvcruntimed:undname.obj
 0001:00075070       ?getDataIndirectType@UnDecorator@@CA?AVDName@@XZ 10076070 f i libvcruntimed:undname.obj
 0001:000750c0       ?getDataType@UnDecorator@@CA?AVDName@@PAV2@@Z 100760c0 f   libvcruntimed:undname.obj
 0001:00075250       ?getDecoratedName@UnDecorator@@CA?AVDName@@XZ 10076250 f   libvcruntimed:undname.obj
 0001:00075790       ?getDimension@UnDecorator@@CA?AVDName@@_N@Z 10076790 f   libvcruntimed:undname.obj
 0001:00075a90       ?getDispatchTarget@UnDecorator@@CA?AVDName@@XZ 10076a90 f   libvcruntimed:undname.obj
 0001:00075b60       ?getDisplacement@UnDecorator@@CA?AVDName@@XZ 10076b60 f i libvcruntimed:undname.obj
 0001:00075b80       ?getECSUDataType@UnDecorator@@CA?AVDName@@XZ 10076b80 f   libvcruntimed:undname.obj
 0001:00075e70       ?getECSUName@UnDecorator@@CA?AVDName@@XZ 10076e70 f i libvcruntimed:undname.obj
 0001:00075e90       ?getEnumType@UnDecorator@@CA?AVDName@@XZ 10076e90 f i libvcruntimed:undname.obj
 0001:000760c0       ?getExtendedDataIndirectType@UnDecorator@@CA?AVDName@@AAW4IndirectionKind@@AA_NH@Z 100770c0 f   libvcruntimed:undname.obj
 0001:000763a0       ?getExternalDataType@UnDecorator@@CA?AVDName@@ABV2@@Z 100773a0 f i libvcruntimed:undname.obj
 0001:00076460       ?getFloatingPoint@UnDecorator@@CA?AVDName@@H@Z 10077460 f   libvcruntimed:undname.obj
 0001:000765f0       ?getFunctionIndirectType@UnDecorator@@CA?AVDName@@ABV2@@Z 100775f0 f   libvcruntimed:undname.obj
 0001:00076c10       ?getGuardNumber@UnDecorator@@CA?AVDName@@XZ 10077c10 f i libvcruntimed:undname.obj
 0001:00076c30       ?getLastChar@DName@@QBEDXZ 10077c30 f i libvcruntimed:undname.obj
 0001:00076c80       ?getLastChar@DNameStatusNode@@UBEDXZ 10077c80 f i libvcruntimed:undname.obj
 0001:00076cc0       ?getLastChar@charNode@@UBEDXZ 10077cc0 f i libvcruntimed:undname.obj
 0001:00076ce0       ?getLastChar@pDNameNode@@UBEDXZ 10077ce0 f i libvcruntimed:undname.obj
 0001:00076d20       ?getLastChar@pairNode@@UBEDXZ 10077d20 f i libvcruntimed:undname.obj
 0001:00076da0       ?getLastChar@pcharNode@@UBEDXZ 10077da0 f i libvcruntimed:undname.obj
 0001:00076de0       ?getLexicalFrame@UnDecorator@@CA?AVDName@@XZ 10077de0 f i libvcruntimed:undname.obj
 0001:00076e30       ?getMemberAccess@UnDecorator@@CA?AVDName@@XZ 10077e30 f   libvcruntimed:undname.obj
 0001:00076ee0       ?getMemoryWithBuffer@_HeapManager@@QAEPAXI@Z 10077ee0 f   libvcruntimed:undname.obj
 0001:00077000       ?getMemoryWithoutBuffer@_HeapManager@@QAEPAXI@Z 10078000 f   libvcruntimed:undname.obj
 0001:00077050       ?getNoexcept@UnDecorator@@CA?AVDName@@XZ 10078050 f   libvcruntimed:undname.obj
 0001:000770f0       ?getNumberOfDimensions@UnDecorator@@CAHXZ 100780f0 f   libvcruntimed:undname.obj
 0001:00077230       ?getOperatorName@UnDecorator@@CA?AVDName@@_NPA_N@Z 10078230 f i libvcruntimed:undname.obj
 0001:00077ff0       ?getPointerToMember@UnDecorator@@CA?AVDName@@XZ 10078ff0 f   libvcruntimed:undname.obj
 0001:00078120       ?getPointerType@UnDecorator@@CA?AVDName@@ABV2@0@Z 10079120 f i libvcruntimed:undname.obj
 0001:00078150       ?getPointerTypeArray@UnDecorator@@CA?AVDName@@ABV2@0@Z 10079150 f i libvcruntimed:undname.obj
 0001:00078180       ?getPrimaryDataType@UnDecorator@@CA?AVDName@@ABV2@@Z 10079180 f   libvcruntimed:undname.obj
 0001:00078730       ?getPtrRefDataType@UnDecorator@@CA?AVDName@@ABV2@H@Z 10079730 f   libvcruntimed:undname.obj
 0001:00078a80       ?getPtrRefType@UnDecorator@@CA?AVDName@@ABV2@0W4IndirectionKind@@@Z 10079a80 f   libvcruntimed:undname.obj
 0001:00078c60       ?getReferenceType@UnDecorator@@CA?AVDName@@ABV2@0W4IndirectionKind@@@Z 10079c60 f i libvcruntimed:undname.obj
 0001:00078c90       ?getRestrictionSpec@UnDecorator@@CA?AVDName@@XZ 10079c90 f   libvcruntimed:undname.obj
 0001:00078ec0       ?getReturnType@UnDecorator@@CA?AVDName@@PAV2@@Z 10079ec0 f   libvcruntimed:undname.obj
 0001:00078f20       ?getScope@UnDecorator@@CA?AVDName@@XZ 10079f20 f   libvcruntimed:undname.obj
 0001:00079610       ?getScopedName@UnDecorator@@CA?AVDName@@XZ 1007a610 f   libvcruntimed:undname.obj
 0001:000797b0       ?getSignedDimension@UnDecorator@@CA?AVDName@@XZ 1007a7b0 f   libvcruntimed:undname.obj
 0001:00079850       ?getStorageConvention@UnDecorator@@CA?AVDName@@XZ 1007a850 f i libvcruntimed:undname.obj
 0001:00079870       ?getString@DName@@QBEPADPAD0@Z 1007a870 f i libvcruntimed:undname.obj
 0001:000798e0       ?getString@DName@@QBEPADPADH@Z 1007a8e0 f i libvcruntimed:undname.obj
 0001:00079990       ?getString@DNameStatusNode@@UBEPADPAD0@Z 1007a990 f i libvcruntimed:undname.obj
 0001:000799d0       ?getString@charNode@@UBEPADPAD0@Z 1007a9d0 f i libvcruntimed:undname.obj
 0001:00079a10       ?getString@pDNameNode@@UBEPADPAD0@Z 1007aa10 f i libvcruntimed:undname.obj
 0001:00079a60       ?getString@pairNode@@UBEPADPAD0@Z 1007aa60 f i libvcruntimed:undname.obj
 0001:00079b10       ?getString@pcharNode@@UBEPADPAD0@Z 1007ab10 f i libvcruntimed:undname.obj
 0001:00079b50       ?getStringEncoding@UnDecorator@@CA?AVDName@@W4PrefixKind@@H@Z 1007ab50 f   libvcruntimed:undname.obj
 0001:00079ca0       ?getStringHelper@@YAPADPADPBD1H@Z 1007aca0 f i libvcruntimed:undname.obj
 0001:00079cf0       ?getStringObject@UnDecorator@@CA?AVDName@@XZ 1007acf0 f   libvcruntimed:undname.obj
 0001:00079dc0       ?getSymbolName@UnDecorator@@CA?AVDName@@XZ 1007adc0 f i libvcruntimed:undname.obj
 0001:00079e70       ?getTemplateArgumentList@UnDecorator@@CA?AVDName@@XZ 1007ae70 f   libvcruntimed:undname.obj
 0001:0007a210       ?getTemplateName@UnDecorator@@CA?AVDName@@_N@Z 1007b210 f   libvcruntimed:undname.obj
 0001:0007a440       ?getTemplateNonTypeArgument@UnDecorator@@CA?AVDName@@XZ 1007b440 f   libvcruntimed:undname.obj
 0001:0007ac20       ?getTemplateTypeArgument@UnDecorator@@CA?AVDName@@XZ 1007bc20 f   libvcruntimed:undname.obj
 0001:0007ae40       ?getThisType@UnDecorator@@CA?AVDName@@XZ 1007be40 f i libvcruntimed:undname.obj
 0001:0007ae90       ?getThrowTypes@UnDecorator@@CA?AVDName@@XZ 1007be90 f   libvcruntimed:undname.obj
 0001:0007aee0       ?getTypeEncoding@UnDecorator@@CAHXZ 1007bee0 f i libvcruntimed:undname.obj
 0001:0007bc50       ?getUndecoratedName@UnDecorator@@QAEPADPADH@Z 1007cc50 f i libvcruntimed:undname.obj
 0001:0007be00       ?getUnionObject@UnDecorator@@CA?AVDName@@XZ 1007ce00 f   libvcruntimed:undname.obj
 0001:0007bf10       ?getVCallThunkType@UnDecorator@@CA?AVDName@@XZ 1007cf10 f i libvcruntimed:undname.obj
 0001:0007bfa0       ?getValue@UnDecorator@@CA?AV?$optional@_K@std@@XZ 1007cfa0 f   libvcruntimed:undname.obj
 0001:0007c090       ?getValueObject@UnDecorator@@CA?AVDName@@XZ 1007d090 f   libvcruntimed:undname.obj
 0001:0007c2e0       ?getVbTableType@UnDecorator@@CA?AVDName@@ABV2@@Z 1007d2e0 f i libvcruntimed:undname.obj
 0001:0007c300       ?getVdispMapType@UnDecorator@@CA?AVDName@@ABV2@@Z 1007d300 f i libvcruntimed:undname.obj
 0001:0007c3b0       ?getVfTableType@UnDecorator@@CA?AVDName@@ABV2@@Z 1007d3b0 f i libvcruntimed:undname.obj
 0001:0007c630       ?getZName@UnDecorator@@CA?AVDName@@_N0@Z 1007d630 f   libvcruntimed:undname.obj
 0001:0007ca40       ?haveTemplateParameters@UnDecorator@@SAHXZ 1007da40 f i libvcruntimed:undname.obj
 0001:0007ca60       ?isArray@DName@@QBEHXZ     1007da60 f i libvcruntimed:undname.obj
 0001:0007ca80       ?isComArray@DName@@QBEHXZ  1007da80 f i libvcruntimed:undname.obj
 0001:0007caa0       ?isEmpty@DName@@QBEHXZ     1007daa0 f i libvcruntimed:undname.obj
 0001:0007cae0       ?isFull@Replicator@@QBEHXZ 1007dae0 f i libvcruntimed:undname.obj
 0001:0007cb20       ?isNoTE@DName@@QBEHXZ      1007db20 f i libvcruntimed:undname.obj
 0001:0007cb40       ?isPinPtr@DName@@QBEHXZ    1007db40 f i libvcruntimed:undname.obj
 0001:0007cb60       ?isPtrRef@DName@@QBEHXZ    1007db60 f i libvcruntimed:undname.obj
 0001:0007cb80       ?isUDC@DName@@QBEHXZ       1007db80 f i libvcruntimed:undname.obj
 0001:0007cbd0       ?isUDTThunk@DName@@QBEHXZ  1007dbd0 f i libvcruntimed:undname.obj
 0001:0007cc20       ?isVCallThunk@DName@@QBEHXZ 1007dc20 f i libvcruntimed:undname.obj
 0001:0007cc40       ?isValid@DName@@QBEHXZ     1007dc40 f i libvcruntimed:undname.obj
 0001:0007cc80       ?length@DName@@QBEHXZ      1007dc80 f i libvcruntimed:undname.obj
 0001:0007ccd0       ?length@DNameStatusNode@@UBEHXZ 1007dcd0 f i libvcruntimed:undname.obj
 0001:0007ccf0       ?length@charNode@@UBEHXZ   1007dcf0 f i libvcruntimed:undname.obj
 0001:0007cd10       ?length@pDNameNode@@UBEHXZ 1007dd10 f i libvcruntimed:undname.obj
 0001:0007cd50       ?length@pairNode@@UBEHXZ   1007dd50 f i libvcruntimed:undname.obj
 0001:0007cde0       ?length@pcharNode@@UBEHXZ  1007dde0 f i libvcruntimed:undname.obj
 0001:0007ce00       ?make@DNameStatusNode@@SAPBV1@W4DNameStatus@@@Z 1007de00 f i libvcruntimed:undname.obj
 0001:0007ce40       ?parseDecoratedName@UnDecorator@@CA?AVDName@@XZ 1007de40 f   libvcruntimed:undname.obj
 0001:0007d030       ?raw_length@DNameStatusNode@@UBEHXZ 1007e030 f i libvcruntimed:undname.obj
 0001:0007d050       ?raw_length@charNode@@UBEHXZ 1007e050 f i libvcruntimed:undname.obj
 0001:0007d070       ?raw_length@pDNameNode@@UBEHXZ 1007e070 f i libvcruntimed:undname.obj
 0001:0007d090       ?raw_length@pairNode@@UBEHXZ 1007e090 f i libvcruntimed:undname.obj
 0001:0007d0b0       ?raw_length@pcharNode@@UBEHXZ 1007e0b0 f i libvcruntimed:undname.obj
 0001:0007d0d0       ?setIsArray@DName@@QAEXXZ  1007e0d0 f i libvcruntimed:undname.obj
 0001:0007d100       ?setIsComArray@DName@@QAEXXZ 1007e100 f i libvcruntimed:undname.obj
 0001:0007d130       ?setIsNoTE@DName@@QAEXXZ   1007e130 f i libvcruntimed:undname.obj
 0001:0007d160       ?setIsPinPtr@DName@@QAEXXZ 1007e160 f i libvcruntimed:undname.obj
 0001:0007d190       ?setIsUDC@DName@@QAEXXZ    1007e190 f i libvcruntimed:undname.obj
 0001:0007d1d0       ?setIsVCallThunk@DName@@QAEXXZ 1007e1d0 f i libvcruntimed:undname.obj
 0001:0007d200       ?setPtrRef@DName@@QAEAAV1@XZ 1007e200 f i libvcruntimed:undname.obj
 0001:0007d230       ?status@DName@@QBE?AW4DNameStatus@@XZ 1007e230 f i libvcruntimed:undname.obj
 0001:0007d350       ___unDName                 1007e350 f   libvcruntimed:undname.obj
 0001:0007d390       ___unDNameEx               1007e390 f   libvcruntimed:undname.obj
 0001:0007d490       _snprintf                  1007e490 f i libvcruntimed:undname.obj
 0001:0007d4e0       _unDNameGenerateCHPE       1007e4e0 f   libvcruntimed:undname.obj
 0001:0007d560       _vsnprintf                 1007e560 f i libvcruntimed:undname.obj
 0001:0007d5d0       ??$?RU__vcrt_ptd@@@__crt_internal_free_policy@@QBEXQBU__vcrt_ptd@@@Z 1007e5d0 f i libvcruntimed:per_thread_data.obj
 0001:0007d600       ??0?$__crt_unique_heap_ptr@U__vcrt_ptd@@U__crt_internal_free_policy@@@@QAE@QAU__vcrt_ptd@@@Z 1007e600 f i libvcruntimed:per_thread_data.obj
 0001:0007d640       ??1?$__crt_unique_heap_ptr@U__vcrt_ptd@@U__crt_internal_free_policy@@@@QAE@XZ 1007e640 f i libvcruntimed:per_thread_data.obj
 0001:0007d680       ??B?$__crt_unique_heap_ptr@U__vcrt_ptd@@U__crt_internal_free_policy@@@@QBE_NXZ 1007e680 f i libvcruntimed:per_thread_data.obj
 0001:0007d6a0       ?detach@?$__crt_unique_heap_ptr@U__vcrt_ptd@@U__crt_internal_free_policy@@@@QAEPAU__vcrt_ptd@@XZ 1007e6a0 f i libvcruntimed:per_thread_data.obj
 0001:0007d6d0       ?get@?$__crt_unique_heap_ptr@U__vcrt_ptd@@U__crt_internal_free_policy@@@@QBEPAU__vcrt_ptd@@XZ 1007e6d0 f i libvcruntimed:per_thread_data.obj
 0001:0007d6f0       ?is_valid@?$__crt_unique_heap_ptr@U__vcrt_ptd@@U__crt_internal_free_policy@@@@QBE_NXZ 1007e6f0 f i libvcruntimed:per_thread_data.obj
 0001:0007d730       ?release@?$__crt_unique_heap_ptr@U__vcrt_ptd@@U__crt_internal_free_policy@@@@QAEXXZ 1007e730 f i libvcruntimed:per_thread_data.obj
 0001:0007d790       ___vcrt_freefls@4          1007e790 f   libvcruntimed:per_thread_data.obj
 0001:0007d7c0       ___vcrt_freeptd            1007e7c0 f   libvcruntimed:per_thread_data.obj
 0001:0007d830       ___vcrt_getptd             1007e830 f   libvcruntimed:per_thread_data.obj
 0001:0007d860       ___vcrt_getptd_noexit      1007e860 f   libvcruntimed:per_thread_data.obj
 0001:0007da10       ___vcrt_getptd_noinit      1007ea10 f   libvcruntimed:per_thread_data.obj
 0001:0007da80       ___vcrt_initialize_ptd     1007ea80 f   libvcruntimed:per_thread_data.obj
 0001:0007dae0       ___vcrt_uninitialize_ptd   1007eae0 f   libvcruntimed:per_thread_data.obj
 0001:0007e940       ??$TypeMatchHelper@V__FrameHandler3@@@@YAHPBU_s_HandlerType@@PBU_s_CatchableType@@PBU_s_ThrowInfo@@@Z 1007f940 f i libvcruntimed:frame.obj
 0001:0007ea50       ??$__InternalCxxFrameHandler@V__FrameHandler3@@@@YA?AW4_EXCEPTION_DISPOSITION@@PAUEHExceptionRecord@@PAUEHRegistrationNode@@PAU_CONTEXT@@PAXPBU_s_FuncInfo@@H1E@Z 1007fa50 f i libvcruntimed:frame.obj
 0001:0007ec80       ??0HandlerMap@__FrameHandler3@@QAE@PBU_s_TryBlockMapEntry@@II@Z 1007fc80 f i libvcruntimed:frame.obj
 0001:0007ecb0       ??0TryBlockMap@__FrameHandler3@@QAE@PBU_s_FuncInfo@@I@Z 1007fcb0 f i libvcruntimed:frame.obj
 0001:0007ece0       ??0bad_exception@std@@QAE@ABV01@@Z 1007fce0 f i libvcruntimed:frame.obj
 0001:0007ed10       ??0bad_exception@std@@QAE@XZ 1007fd10 f i libvcruntimed:frame.obj
 0001:0007ed40       ??0iterator@HandlerMap@__FrameHandler3@@QAE@AAV12@I@Z 1007fd40 f i libvcruntimed:frame.obj
 0001:0007ed70       ??1bad_exception@std@@UAE@XZ 1007fd70 f i libvcruntimed:frame.obj
 0001:0007ed90       ??8iterator@HandlerMap@__FrameHandler3@@QBE_NABV012@@Z 1007fd90 f i libvcruntimed:frame.obj
 0001:0007edd0       ??8type_info@@QBE_NABV0@@Z 1007fdd0 f i libvcruntimed:frame.obj
 0001:0007ee50       ??9iterator@HandlerMap@__FrameHandler3@@QBE_NABV012@@Z 1007fe50 f i libvcruntimed:frame.obj
 0001:0007eea0       ??Diterator@HandlerMap@__FrameHandler3@@QAE?BU_s_HandlerType@@XZ 1007fea0 f i libvcruntimed:frame.obj
 0001:0007eef0       ??Diterator@TryBlockMap@__FrameHandler3@@QAE?BU_s_TryBlockMapEntry@@XZ 1007fef0 f i libvcruntimed:frame.obj
 0001:0007ef50       ??Eiterator@HandlerMap@__FrameHandler3@@QAEAAV012@XZ 1007ff50 f i libvcruntimed:frame.obj
 0001:0007ef80       ??Eiterator@TryBlockMap@__FrameHandler3@@QAEAAV012@XZ 1007ff80 f i libvcruntimed:frame.obj
 0001:0007efb0       ??Miterator@TryBlockMap@__FrameHandler3@@QBE_NABV012@@Z 1007ffb0 f i libvcruntimed:frame.obj
 0001:0007eff0       ??_Ebad_exception@std@@UAEPAXI@Z 1007fff0 f i libvcruntimed:frame.obj
 0001:0007eff0       ??_Gbad_exception@std@@UAEPAXI@Z 1007fff0 f i libvcruntimed:frame.obj
 0001:0007f030       ?BuildCatchObject@__FrameHandler3@@SAXPAUEHExceptionRecord@@PAXPBU_s_HandlerType@@PBU_s_CatchableType@@@Z 10080030 f   libvcruntimed:frame.obj
 0001:0007f060       ?BuildCatchObjectHelper@__FrameHandler3@@SAHPAUEHExceptionRecord@@PAXPBU_s_HandlerType@@PBU_s_CatchableType@@@Z 10080060 f   libvcruntimed:frame.obj
 0001:0007f4e0       ?FrameUnwindToEmptyState@__FrameHandler3@@SAXPAUEHRegistrationNode@@PAXPBU_s_FuncInfo@@@Z 100804e0 f   libvcruntimed:frame.obj
 0001:0007f510       ?FrameUnwindToState@__FrameHandler3@@SAXPAUEHRegistrationNode@@PAXPBU_s_FuncInfo@@H@Z 10080510 f   libvcruntimed:frame.obj
 0001:0007f6f0       ?GetMaxState@__FrameHandler3@@SAHPAXPBU_s_FuncInfo@@@Z 100806f0 f i libvcruntimed:frame.obj
 0001:0007f840       ?TypeMatch@__FrameHandler3@@SAHPBU_s_HandlerType@@PBU_s_CatchableType@@PBU_s_ThrowInfo@@@Z 10080840 f   libvcruntimed:frame.obj
 0001:0007f860       ?_CallMemberFunction1@@YGXQAX00@Z 10080860 f i libvcruntimed:frame.obj
 0001:0007f890       ?_CallMemberFunction2@@YGXQAX00H@Z 10080890 f i libvcruntimed:frame.obj
 0001:0007f8c0       ?begin@HandlerMap@__FrameHandler3@@QAE?AViterator@12@XZ 100808c0 f i libvcruntimed:frame.obj
 0001:0007f8f0       ?end@HandlerMap@__FrameHandler3@@QAE?AViterator@12@XZ 100808f0 f i libvcruntimed:frame.obj
 0001:0007f920       ?getESTypes@__FrameHandler3@@SAPBU_s_ESTypeList@@PBU_s_FuncInfo@@@Z 10080920 f i libvcruntimed:frame.obj
 0001:0007f930       ?getLastEntry@HandlerMap@__FrameHandler3@@QAEPBU_s_HandlerType@@XZ 10080930 f i libvcruntimed:frame.obj
 0001:0007f960       ?getMagicNum@__FrameHandler3@@SAIPBU_s_FuncInfo@@@Z 10080960 f i libvcruntimed:frame.obj
 0001:0007f980       ?getNumTryBlocks@TryBlockMap@__FrameHandler3@@QAEIXZ 10080980 f i libvcruntimed:frame.obj
 0001:0007f9a0       ?isEHs@__FrameHandler3@@SA_NPBU_s_FuncInfo@@@Z 100809a0 f i libvcruntimed:frame.obj
 0001:0007f9d0       ?isNoExcept@__FrameHandler3@@SA_NPBU_s_FuncInfo@@@Z 100809d0 f i libvcruntimed:frame.obj
 0001:0007fa00       ___BuildCatchObject        10080a00 f   libvcruntimed:frame.obj
 0001:0007fa30       ___BuildCatchObjectHelper  10080a30 f   libvcruntimed:frame.obj
 0001:0007fa60       ___TypeMatch               10080a60 f   libvcruntimed:frame.obj
 0001:0007fa80       ___vcrt_EncodePointer      10080a80 f i libvcruntimed:frame.obj
 0001:0007faa0       __CallSettingFrame@12      10080aa0 f   libvcruntimed:lowhelpr.obj
 0001:0007fac7       __NLG_Return               10080ac7     libvcruntimed:lowhelpr.obj
 0001:0007fb10       ___except_validate_context_record 10080b10 f   libvcruntimed:jbcxrval.obj
 0001:0007fb70       ___except_validate_jump_buffer 10080b70 f   libvcruntimed:jbcxrval.obj
 0001:0007fb90       ___except_validate_jump_buffer_common 10080b90 f i libvcruntimed:jbcxrval.obj
 0001:0007fc00       _strchr                    10080c00 f   libvcruntimed:strchr.obj
 0001:0007fc6e       ___from_strstr_to_strchr   10080c6e     libvcruntimed:strchr.obj
 0001:0007fd80       __local_unwind4            10080d80 f   libvcruntimed:exsup4.obj
 0001:0007feb0       __seh_longjmp_unwind4@4    10080eb0 f   libvcruntimed:exsup4.obj
 0001:0007fef0       @_EH4_CallFilterFunc@8     10080ef0 f   libvcruntimed:exsup4.obj
 0001:0007ff10       @_EH4_TransferToHandler@8  10080f10 f   libvcruntimed:exsup4.obj
 0001:0007ff30       @_EH4_GlobalUnwind2@8      10080f30 f   libvcruntimed:exsup4.obj
 0001:0007ff50       @_EH4_LocalUnwind@16       10080f50 f   libvcruntimed:exsup4.obj
 0001:0007ff70       ___vcrt_initialize_locks   10080f70 f   libvcruntimed:locks.obj
 0001:0007ffe0       ___vcrt_lock               10080fe0 f   libvcruntimed:locks.obj
 0001:00080000       ___vcrt_uninitialize_locks 10081000 f   libvcruntimed:locks.obj
 0001:00080060       ___vcrt_unlock             10081060 f   libvcruntimed:locks.obj
 0001:00080080       ??$__crt_interlocked_exchange_pointer@$$A6AXXZP6AXXZ@@YAP6AXXZPDS6AXXZQ6AXXZ@Z 10081080 f i libvcruntimed:purevirt.obj
 0001:00080090       ??$__crt_interlocked_read_pointer@$$A6AXXZ@@YAP6AXXZPDS6AXXZ@Z 10081090 f i libvcruntimed:purevirt.obj
 0001:000800b0       __get_purecall_handler     100810b0 f   libvcruntimed:purevirt.obj
 0001:000800d0       __purecall                 100810d0 f   libvcruntimed:purevirt.obj
 0001:00080110       __set_purecall_handler     10081110 f   libvcruntimed:purevirt.obj
 0001:00080130       ??$__crt_interlocked_exchange_pointer@UHINSTANCE__@@PAU1@@@YAPAUHINSTANCE__@@PDSAU0@QAU0@@Z 10081130 f i libvcruntimed:winapi_downlevel.obj
 0001:00080140       ??$__crt_interlocked_exchange_pointer@UHINSTANCE__@@PAX@@YAPAUHINSTANCE__@@PDSAU0@QAX@Z 10081140 f i libvcruntimed:winapi_downlevel.obj
 0001:00080150       ??$__crt_interlocked_exchange_pointer@XPAX@@YAPAXPDSAXQAX@Z 10081150 f i libvcruntimed:winapi_downlevel.obj
 0001:00080160       ??$__crt_interlocked_read_pointer@UHINSTANCE__@@@@YAPAUHINSTANCE__@@PDSAU0@@Z 10081160 f i libvcruntimed:winapi_downlevel.obj
 0001:00080180       ??$__crt_interlocked_read_pointer@X@@YAPAXPDSAX@Z 10081180 f i libvcruntimed:winapi_downlevel.obj
 0001:00080650       ___vcrt_FlsAlloc           10081650 f   libvcruntimed:winapi_downlevel.obj
 0001:000806a0       ___vcrt_FlsFree            100816a0 f   libvcruntimed:winapi_downlevel.obj
 0001:000806f0       ___vcrt_FlsGetValue        100816f0 f   libvcruntimed:winapi_downlevel.obj
 0001:00080740       ___vcrt_FlsSetValue        10081740 f   libvcruntimed:winapi_downlevel.obj
 0001:000807a0       ___vcrt_InitializeCriticalSectionEx 100817a0 f   libvcruntimed:winapi_downlevel.obj
 0001:00080830       __get_unexpected           10081830 f   libvcruntimed:unexpected.obj
 0001:00080850       _set_unexpected            10081850 f   libvcruntimed:unexpected.obj
 0001:00080890       _unexpected                10081890 f   libvcruntimed:unexpected.obj
 0001:000808d0       ?GetCurrentState@__FrameHandler3@@SAHPAUEHRegistrationNode@@PAXPBU_s_FuncInfo@@@Z 100818d0 f   libvcruntimed:ehstate.obj
 0001:00080910       ?SetState@__FrameHandler3@@SAXPAUEHRegistrationNode@@PBU_s_FuncInfo@@H@Z 10081910 f   libvcruntimed:ehstate.obj
 0001:00080930       __global_unwind2           10081930 f   libvcruntimed:exsup.obj
 0001:000809c0       __local_unwind2            100819c0 f   libvcruntimed:exsup.obj
 0001:00080a80       __abnormal_termination     10081a80 f   libvcruntimed:exsup.obj
 0001:00080ac0       __NLG_Notify1              10081ac0 f   libvcruntimed:exsup.obj
 0001:00080ad0       __NLG_Notify               10081ad0 f   libvcruntimed:exsup.obj
 0001:00080ae7       __NLG_Dispatch             10081ae7     libvcruntimed:exsup.obj
 0001:00080ae7       __NLG_Dispatch2            10081ae7     libvcruntimed:exsup.obj
 0001:00080b00       __NLG_Call                 10081b00 f   libvcruntimed:exsup.obj
 0001:00080b02       __NLG_Return2              10081b02     libvcruntimed:exsup.obj
 0001:00080b10       ??$?0ABV?$stream_output_adapter@D@__crt_stdio_output@@AB_KABQBDAAV__crt_cached_ptd_host@@ABQAD@?$format_validation_base@DV?$stream_output_adapter@D@__crt_stdio_output@@@__crt_stdio_output@@IAE@ABV?$stream_output_adapter@D@1@AB_KABQBDAAV__crt_cached_ptd_host@@ABQAD@Z 10081b10 f i libucrtd:output.obj
 0001:00080b50       ??$?0ABV?$stream_output_adapter@D@__crt_stdio_output@@AB_KABQBDAAV__crt_cached_ptd_host@@ABQAD@?$positional_parameter_base@DV?$stream_output_adapter@D@__crt_stdio_output@@@__crt_stdio_output@@IAE@ABV?$stream_output_adapter@D@1@AB_KABQBDAAV__crt_cached_ptd_host@@ABQAD@Z 10081b50 f i libucrtd:output.obj
 0001:00080be0       ??$?0ABV?$stream_output_adapter@D@__crt_stdio_output@@AB_KABQBDAAV__crt_cached_ptd_host@@ABQAD@?$standard_base@DV?$stream_output_adapter@D@__crt_stdio_output@@@__crt_stdio_output@@IAE@ABV?$stream_output_adapter@D@1@AB_KABQBDAAV__crt_cached_ptd_host@@ABQAD@Z 10081be0 f i libucrtd:output.obj
 0001:00080c40       ??$?0ABV?$stream_output_adapter@_W@__crt_stdio_output@@AB_KABQB_WAAV__crt_cached_ptd_host@@ABQAD@?$format_validation_base@_WV?$stream_output_adapter@_W@__crt_stdio_output@@@__crt_stdio_output@@IAE@ABV?$stream_output_adapter@_W@1@AB_KABQB_WAAV__crt_cached_ptd_host@@ABQAD@Z 10081c40 f i libucrtd:output.obj
 0001:00080c80       ??$?0ABV?$stream_output_adapter@_W@__crt_stdio_output@@AB_KABQB_WAAV__crt_cached_ptd_host@@ABQAD@?$positional_parameter_base@_WV?$stream_output_adapter@_W@__crt_stdio_output@@@__crt_stdio_output@@IAE@ABV?$stream_output_adapter@_W@1@AB_KABQB_WAAV__crt_cached_ptd_host@@ABQAD@Z 10081c80 f i libucrtd:output.obj
 0001:00080d10       ??$?0ABV?$stream_output_adapter@_W@__crt_stdio_output@@AB_KABQB_WAAV__crt_cached_ptd_host@@ABQAD@?$standard_base@_WV?$stream_output_adapter@_W@__crt_stdio_output@@@__crt_stdio_output@@IAE@ABV?$stream_output_adapter@_W@1@AB_KABQB_WAAV__crt_cached_ptd_host@@ABQAD@Z 10081d10 f i libucrtd:output.obj
 0001:00080d70       ??$?0ABV?$string_output_adapter@D@__crt_stdio_output@@AB_KABQBDAAV__crt_cached_ptd_host@@ABQAD@?$format_validation_base@DV?$string_output_adapter@D@__crt_stdio_output@@@__crt_stdio_output@@IAE@ABV?$string_output_adapter@D@1@AB_KABQBDAAV__crt_cached_ptd_host@@ABQAD@Z 10081d70 f i libucrtd:output.obj
 0001:00080db0       ??$?0ABV?$string_output_adapter@D@__crt_stdio_output@@AB_KABQBDAAV__crt_cached_ptd_host@@ABQAD@?$positional_parameter_base@DV?$string_output_adapter@D@__crt_stdio_output@@@__crt_stdio_output@@IAE@ABV?$string_output_adapter@D@1@AB_KABQBDAAV__crt_cached_ptd_host@@ABQAD@Z 10081db0 f i libucrtd:output.obj
 0001:00080e40       ??$?0ABV?$string_output_adapter@D@__crt_stdio_output@@AB_KABQBDAAV__crt_cached_ptd_host@@ABQAD@?$standard_base@DV?$string_output_adapter@D@__crt_stdio_output@@@__crt_stdio_output@@IAE@ABV?$string_output_adapter@D@1@AB_KABQBDAAV__crt_cached_ptd_host@@ABQAD@Z 10081e40 f i libucrtd:output.obj
 0001:00080ea0       ??$?0ABV?$string_output_adapter@_W@__crt_stdio_output@@AB_KABQB_WAAV__crt_cached_ptd_host@@ABQAD@?$format_validation_base@_WV?$string_output_adapter@_W@__crt_stdio_output@@@__crt_stdio_output@@IAE@ABV?$string_output_adapter@_W@1@AB_KABQB_WAAV__crt_cached_ptd_host@@ABQAD@Z 10081ea0 f i libucrtd:output.obj
 0001:00080ee0       ??$?0ABV?$string_output_adapter@_W@__crt_stdio_output@@AB_KABQB_WAAV__crt_cached_ptd_host@@ABQAD@?$positional_parameter_base@_WV?$string_output_adapter@_W@__crt_stdio_output@@@__crt_stdio_output@@IAE@ABV?$string_output_adapter@_W@1@AB_KABQB_WAAV__crt_cached_ptd_host@@ABQAD@Z 10081ee0 f i libucrtd:output.obj
 0001:00080f70       ??$?0ABV?$string_output_adapter@_W@__crt_stdio_output@@AB_KABQB_WAAV__crt_cached_ptd_host@@ABQAD@?$standard_base@_WV?$string_output_adapter@_W@__crt_stdio_output@@@__crt_stdio_output@@IAE@ABV?$string_output_adapter@_W@1@AB_KABQB_WAAV__crt_cached_ptd_host@@ABQAD@Z 10081f70 f i libucrtd:output.obj
 0001:00081750       ??$__crt_interlocked_read@J@@YAJPDJ@Z 10082750 f i libucrtd:output.obj
 0001:00081770       ??$_tcstol_internal@DPAPAD$0A@@@YAJAAV__crt_cached_ptd_host@@QBDQAPADH@Z 10082770 f i libucrtd:output.obj
 0001:000817c0       ??$_tcstol_internal@_WPAPA_W$0A@@@YAJAAV__crt_cached_ptd_host@@QB_WQAPA_WH@Z 100827c0 f i libucrtd:output.obj
 0001:00085360       ??$count@D@formatting_buffer@__crt_stdio_output@@QBEIXZ 10086360 f i libucrtd:output.obj
 0001:000853b0       ??$count@_W@formatting_buffer@__crt_stdio_output@@QBEIXZ 100863b0 f i libucrtd:output.obj
 0001:00085400       ??$data@D@formatting_buffer@__crt_stdio_output@@QAEPADXZ 10086400 f i libucrtd:output.obj
 0001:00085450       ??$data@_W@formatting_buffer@__crt_stdio_output@@QAEPA_WXZ 10086450 f i libucrtd:output.obj
 0001:000854a0       ??$ensure_buffer_is_big_enough@D@formatting_buffer@__crt_stdio_output@@QAE_NIAAV__crt_cached_ptd_host@@@Z 100864a0 f i libucrtd:output.obj
 0001:000855d0       ??$ensure_buffer_is_big_enough@_W@formatting_buffer@__crt_stdio_output@@QAE_NIAAV__crt_cached_ptd_host@@@Z 100865d0 f i libucrtd:output.obj
 0001:00085700       ??$extract_argument_from_va_list@C_J@?$positional_parameter_base@DV?$stream_output_adapter@D@__crt_stdio_output@@@__crt_stdio_output@@IAE_NAA_J@Z 10086700 f i libucrtd:output.obj
 0001:000858c0       ??$extract_argument_from_va_list@C_J@?$positional_parameter_base@DV?$string_output_adapter@D@__crt_stdio_output@@@__crt_stdio_output@@IAE_NAA_J@Z 100868c0 f i libucrtd:output.obj
 0001:00085a80       ??$extract_argument_from_va_list@C_J@?$positional_parameter_base@_WV?$stream_output_adapter@_W@__crt_stdio_output@@@__crt_stdio_output@@IAE_NAA_J@Z 10086a80 f i libucrtd:output.obj
 0001:00085c40       ??$extract_argument_from_va_list@C_J@?$positional_parameter_base@_WV?$string_output_adapter@_W@__crt_stdio_output@@@__crt_stdio_output@@IAE_NAA_J@Z 10086c40 f i libucrtd:output.obj
 0001:00085e00       ??$extract_argument_from_va_list@C_J@?$standard_base@DV?$stream_output_adapter@D@__crt_stdio_output@@@__crt_stdio_output@@IAE_NAA_J@Z 10086e00 f i libucrtd:output.obj
 0001:00085e40       ??$extract_argument_from_va_list@C_J@?$standard_base@DV?$string_output_adapter@D@__crt_stdio_output@@@__crt_stdio_output@@IAE_NAA_J@Z 10086e40 f i libucrtd:output.obj
 0001:00085e80       ??$extract_argument_from_va_list@C_J@?$standard_base@_WV?$stream_output_adapter@_W@__crt_stdio_output@@@__crt_stdio_output@@IAE_NAA_J@Z 10086e80 f i libucrtd:output.obj
 0001:00085ec0       ??$extract_argument_from_va_list@C_J@?$standard_base@_WV?$string_output_adapter@_W@__crt_stdio_output@@@__crt_stdio_output@@IAE_NAA_J@Z 10086ec0 f i libucrtd:output.obj
 0001:00085f00       ??$extract_argument_from_va_list@E_J@?$positional_parameter_base@DV?$stream_output_adapter@D@__crt_stdio_output@@@__crt_stdio_output@@IAE_NAA_J@Z 10086f00 f i libucrtd:output.obj
 0001:000860c0       ??$extract_argument_from_va_list@E_J@?$positional_parameter_base@DV?$string_output_adapter@D@__crt_stdio_output@@@__crt_stdio_output@@IAE_NAA_J@Z 100870c0 f i libucrtd:output.obj
 0001:00086280       ??$extract_argument_from_va_list@E_J@?$positional_parameter_base@_WV?$stream_output_adapter@_W@__crt_stdio_output@@@__crt_stdio_output@@IAE_NAA_J@Z 10087280 f i libucrtd:output.obj
 0001:00086440       ??$extract_argument_from_va_list@E_J@?$positional_parameter_base@_WV?$string_output_adapter@_W@__crt_stdio_output@@@__crt_stdio_output@@IAE_NAA_J@Z 10087440 f i libucrtd:output.obj
 0001:00086600       ??$extract_argument_from_va_list@E_J@?$standard_base@DV?$stream_output_adapter@D@__crt_stdio_output@@@__crt_stdio_output@@IAE_NAA_J@Z 10087600 f i libucrtd:output.obj
 0001:00086640       ??$extract_argument_from_va_list@E_J@?$standard_base@DV?$string_output_adapter@D@__crt_stdio_output@@@__crt_stdio_output@@IAE_NAA_J@Z 10087640 f i libucrtd:output.obj
 0001:00086680       ??$extract_argument_from_va_list@E_J@?$standard_base@_WV?$stream_output_adapter@_W@__crt_stdio_output@@@__crt_stdio_output@@IAE_NAA_J@Z 10087680 f i libucrtd:output.obj
 0001:000866c0       ??$extract_argument_from_va_list@E_J@?$standard_base@_WV?$string_output_adapter@_W@__crt_stdio_output@@@__crt_stdio_output@@IAE_NAA_J@Z 100876c0 f i libucrtd:output.obj
 0001:00086700       ??$extract_argument_from_va_list@F_J@?$positional_parameter_base@DV?$stream_output_adapter@D@__crt_stdio_output@@@__crt_stdio_output@@IAE_NAA_J@Z 10087700 f i libucrtd:output.obj
 0001:000868c0       ??$extract_argument_from_va_list@F_J@?$positional_parameter_base@DV?$string_output_adapter@D@__crt_stdio_output@@@__crt_stdio_output@@IAE_NAA_J@Z 100878c0 f i libucrtd:output.obj
 0001:00086a80       ??$extract_argument_from_va_list@F_J@?$positional_parameter_base@_WV?$stream_output_adapter@_W@__crt_stdio_output@@@__crt_stdio_output@@IAE_NAA_J@Z 10087a80 f i libucrtd:output.obj
 0001:00086c40       ??$extract_argument_from_va_list@F_J@?$positional_parameter_base@_WV?$string_output_adapter@_W@__crt_stdio_output@@@__crt_stdio_output@@IAE_NAA_J@Z 10087c40 f i libucrtd:output.obj
 0001:00086e00       ??$extract_argument_from_va_list@F_J@?$standard_base@DV?$stream_output_adapter@D@__crt_stdio_output@@@__crt_stdio_output@@IAE_NAA_J@Z 10087e00 f i libucrtd:output.obj
 0001:00086e40       ??$extract_argument_from_va_list@F_J@?$standard_base@DV?$string_output_adapter@D@__crt_stdio_output@@@__crt_stdio_output@@IAE_NAA_J@Z 10087e40 f i libucrtd:output.obj
 0001:00086e80       ??$extract_argument_from_va_list@F_J@?$standard_base@_WV?$stream_output_adapter@_W@__crt_stdio_output@@@__crt_stdio_output@@IAE_NAA_J@Z 10087e80 f i libucrtd:output.obj
 0001:00086ec0       ??$extract_argument_from_va_list@F_J@?$standard_base@_WV?$string_output_adapter@_W@__crt_stdio_output@@@__crt_stdio_output@@IAE_NAA_J@Z 10087ec0 f i libucrtd:output.obj
 0001:00086f00       ??$extract_argument_from_va_list@GD@?$positional_parameter_base@DV?$stream_output_adapter@D@__crt_stdio_output@@@__crt_stdio_output@@IAE_NAAD@Z 10087f00 f i libucrtd:output.obj
 0001:000870b0       ??$extract_argument_from_va_list@GD@?$positional_parameter_base@DV?$string_output_adapter@D@__crt_stdio_output@@@__crt_stdio_output@@IAE_NAAD@Z 100880b0 f i libucrtd:output.obj
 0001:00087260       ??$extract_argument_from_va_list@GD@?$standard_base@DV?$stream_output_adapter@D@__crt_stdio_output@@@__crt_stdio_output@@IAE_NAAD@Z 10088260 f i libucrtd:output.obj
 0001:00087290       ??$extract_argument_from_va_list@GD@?$standard_base@DV?$string_output_adapter@D@__crt_stdio_output@@@__crt_stdio_output@@IAE_NAAD@Z 10088290 f i libucrtd:output.obj
 0001:000872c0       ??$extract_argument_from_va_list@G_J@?$positional_parameter_base@DV?$stream_output_adapter@D@__crt_stdio_output@@@__crt_stdio_output@@IAE_NAA_J@Z 100882c0 f i libucrtd:output.obj
 0001:00087480       ??$extract_argument_from_va_list@G_J@?$positional_parameter_base@DV?$string_output_adapter@D@__crt_stdio_output@@@__crt_stdio_output@@IAE_NAA_J@Z 10088480 f i libucrtd:output.obj
 0001:00087640       ??$extract_argument_from_va_list@G_J@?$positional_parameter_base@_WV?$stream_output_adapter@_W@__crt_stdio_output@@@__crt_stdio_output@@IAE_NAA_J@Z 10088640 f i libucrtd:output.obj
 0001:00087800       ??$extract_argument_from_va_list@G_J@?$positional_parameter_base@_WV?$string_output_adapter@_W@__crt_stdio_output@@@__crt_stdio_output@@IAE_NAA_J@Z 10088800 f i libucrtd:output.obj
 0001:000879c0       ??$extract_argument_from_va_list@G_J@?$standard_base@DV?$stream_output_adapter@D@__crt_stdio_output@@@__crt_stdio_output@@IAE_NAA_J@Z 100889c0 f i libucrtd:output.obj
 0001:00087a00       ??$extract_argument_from_va_list@G_J@?$standard_base@DV?$string_output_adapter@D@__crt_stdio_output@@@__crt_stdio_output@@IAE_NAA_J@Z 10088a00 f i libucrtd:output.obj
 0001:00087a40       ??$extract_argument_from_va_list@G_J@?$standard_base@_WV?$stream_output_adapter@_W@__crt_stdio_output@@@__crt_stdio_output@@IAE_NAA_J@Z 10088a40 f i libucrtd:output.obj
 0001:00087a80       ??$extract_argument_from_va_list@G_J@?$standard_base@_WV?$string_output_adapter@_W@__crt_stdio_output@@@__crt_stdio_output@@IAE_NAA_J@Z 10088a80 f i libucrtd:output.obj
 0001:00087ac0       ??$extract_argument_from_va_list@H_J@?$positional_parameter_base@DV?$stream_output_adapter@D@__crt_stdio_output@@@__crt_stdio_output@@IAE_NAA_J@Z 10088ac0 f i libucrtd:output.obj
 0001:00087c80       ??$extract_argument_from_va_list@H_J@?$positional_parameter_base@DV?$string_output_adapter@D@__crt_stdio_output@@@__crt_stdio_output@@IAE_NAA_J@Z 10088c80 f i libucrtd:output.obj
 0001:00087e40       ??$extract_argument_from_va_list@H_J@?$positional_parameter_base@_WV?$stream_output_adapter@_W@__crt_stdio_output@@@__crt_stdio_output@@IAE_NAA_J@Z 10088e40 f i libucrtd:output.obj
 0001:00088000       ??$extract_argument_from_va_list@H_J@?$positional_parameter_base@_WV?$string_output_adapter@_W@__crt_stdio_output@@@__crt_stdio_output@@IAE_NAA_J@Z 10089000 f i libucrtd:output.obj
 0001:000881c0       ??$extract_argument_from_va_list@H_J@?$standard_base@DV?$stream_output_adapter@D@__crt_stdio_output@@@__crt_stdio_output@@IAE_NAA_J@Z 100891c0 f i libucrtd:output.obj
 0001:00088200       ??$extract_argument_from_va_list@H_J@?$standard_base@DV?$string_output_adapter@D@__crt_stdio_output@@@__crt_stdio_output@@IAE_NAA_J@Z 10089200 f i libucrtd:output.obj
 0001:00088240       ??$extract_argument_from_va_list@H_J@?$standard_base@_WV?$stream_output_adapter@_W@__crt_stdio_output@@@__crt_stdio_output@@IAE_NAA_J@Z 10089240 f i libucrtd:output.obj
 0001:00088280       ??$extract_argument_from_va_list@H_J@?$standard_base@_WV?$string_output_adapter@_W@__crt_stdio_output@@@__crt_stdio_output@@IAE_NAA_J@Z 10089280 f i libucrtd:output.obj
 0001:000882c0       ??$extract_argument_from_va_list@I_J@?$positional_parameter_base@DV?$stream_output_adapter@D@__crt_stdio_output@@@__crt_stdio_output@@IAE_NAA_J@Z 100892c0 f i libucrtd:output.obj
 0001:00088480       ??$extract_argument_from_va_list@I_J@?$positional_parameter_base@DV?$string_output_adapter@D@__crt_stdio_output@@@__crt_stdio_output@@IAE_NAA_J@Z 10089480 f i libucrtd:output.obj
 0001:00088640       ??$extract_argument_from_va_list@I_J@?$positional_parameter_base@_WV?$stream_output_adapter@_W@__crt_stdio_output@@@__crt_stdio_output@@IAE_NAA_J@Z 10089640 f i libucrtd:output.obj
 0001:00088800       ??$extract_argument_from_va_list@I_J@?$positional_parameter_base@_WV?$string_output_adapter@_W@__crt_stdio_output@@@__crt_stdio_output@@IAE_NAA_J@Z 10089800 f i libucrtd:output.obj
 0001:000889c0       ??$extract_argument_from_va_list@I_J@?$standard_base@DV?$stream_output_adapter@D@__crt_stdio_output@@@__crt_stdio_output@@IAE_NAA_J@Z 100899c0 f i libucrtd:output.obj
 0001:00088a00       ??$extract_argument_from_va_list@I_J@?$standard_base@DV?$string_output_adapter@D@__crt_stdio_output@@@__crt_stdio_output@@IAE_NAA_J@Z 10089a00 f i libucrtd:output.obj
 0001:00088a40       ??$extract_argument_from_va_list@I_J@?$standard_base@_WV?$stream_output_adapter@_W@__crt_stdio_output@@@__crt_stdio_output@@IAE_NAA_J@Z 10089a40 f i libucrtd:output.obj
 0001:00088a80       ??$extract_argument_from_va_list@I_J@?$standard_base@_WV?$string_output_adapter@_W@__crt_stdio_output@@@__crt_stdio_output@@IAE_NAA_J@Z 10089a80 f i libucrtd:output.obj
 0001:00088ac0       ??$extract_argument_from_va_list@PADPAD@?$positional_parameter_base@DV?$stream_output_adapter@D@__crt_stdio_output@@@__crt_stdio_output@@IAE_NAAPAD@Z 10089ac0 f i libucrtd:output.obj
 0001:00088c70       ??$extract_argument_from_va_list@PADPAD@?$positional_parameter_base@DV?$string_output_adapter@D@__crt_stdio_output@@@__crt_stdio_output@@IAE_NAAPAD@Z 10089c70 f i libucrtd:output.obj
 0001:00088e20       ??$extract_argument_from_va_list@PADPAD@?$positional_parameter_base@_WV?$stream_output_adapter@_W@__crt_stdio_output@@@__crt_stdio_output@@IAE_NAAPAD@Z 10089e20 f i libucrtd:output.obj
 0001:00088fe0       ??$extract_argument_from_va_list@PADPAD@?$positional_parameter_base@_WV?$string_output_adapter@_W@__crt_stdio_output@@@__crt_stdio_output@@IAE_NAAPAD@Z 10089fe0 f i libucrtd:output.obj
 0001:000891a0       ??$extract_argument_from_va_list@PADPAD@?$standard_base@DV?$stream_output_adapter@D@__crt_stdio_output@@@__crt_stdio_output@@IAE_NAAPAD@Z 1008a1a0 f i libucrtd:output.obj
 0001:000891d0       ??$extract_argument_from_va_list@PADPAD@?$standard_base@DV?$string_output_adapter@D@__crt_stdio_output@@@__crt_stdio_output@@IAE_NAAPAD@Z 1008a1d0 f i libucrtd:output.obj
 0001:00089200       ??$extract_argument_from_va_list@PADPAD@?$standard_base@_WV?$stream_output_adapter@_W@__crt_stdio_output@@@__crt_stdio_output@@IAE_NAAPAD@Z 1008a200 f i libucrtd:output.obj
 0001:00089230       ??$extract_argument_from_va_list@PADPAD@?$standard_base@_WV?$string_output_adapter@_W@__crt_stdio_output@@@__crt_stdio_output@@IAE_NAAPAD@Z 1008a230 f i libucrtd:output.obj
 0001:00089260       ??$extract_argument_from_va_list@PAUansi_string@?1??type_case_Z@?$output_processor@DV?$stream_output_adapter@D@__crt_stdio_output@@V?$format_validation_base@DV?$stream_output_adapter@D@__crt_stdio_output@@@2@@__crt_stdio_output@@AAE_NXZ@PAU1?1??234@AAE_NXZ@@?$standard_base@DV?$stream_output_adapter@D@__crt_stdio_output@@@__crt_stdio_output@@IAE_NAAPAUansi_string@?1??type_case_Z@?$output_processor@DV?$stream_output_adapter@D@__crt_stdio_output@@V?$format_validation_base@DV?$stream_output_adapter@D@__crt_stdio_output@@@2@@1@AAE_NXZ@@Z 1008a260 f i libucrtd:output.obj
 0001:00089290       ??$extract_argument_from_va_list@PAUansi_string@?1??type_case_Z@?$output_processor@DV?$stream_output_adapter@D@__crt_stdio_output@@V?$positional_parameter_base@DV?$stream_output_adapter@D@__crt_stdio_output@@@2@@__crt_stdio_output@@AAE_NXZ@PAU1?1??234@AAE_NXZ@@?$positional_parameter_base@DV?$stream_output_adapter@D@__crt_stdio_output@@@__crt_stdio_output@@IAE_NAAPAUansi_string@?1??type_case_Z@?$output_processor@DV?$stream_output_adapter@D@__crt_stdio_output@@V?$positional_parameter_base@DV?$stream_output_adapter@D@__crt_stdio_output@@@2@@1@AAE_NXZ@@Z 1008a290 f i libucrtd:output.obj
 0001:00089440       ??$extract_argument_from_va_list@PAUansi_string@?1??type_case_Z@?$output_processor@DV?$stream_output_adapter@D@__crt_stdio_output@@V?$positional_parameter_base@DV?$stream_output_adapter@D@__crt_stdio_output@@@2@@__crt_stdio_output@@AAE_NXZ@PAU1?1??234@AAE_NXZ@@?$standard_base@DV?$stream_output_adapter@D@__crt_stdio_output@@@__crt_stdio_output@@IAE_NAAPAUansi_string@?1??type_case_Z@?$output_processor@DV?$stream_output_adapter@D@__crt_stdio_output@@V?$positional_parameter_base@DV?$stream_output_adapter@D@__crt_stdio_output@@@2@@1@AAE_NXZ@@Z 1008a440 f i libucrtd:output.obj
 0001:00089470       ??$extract_argument_from_va_list@PAUansi_string@?1??type_case_Z@?$output_processor@DV?$stream_output_adapter@D@__crt_stdio_output@@V?$standard_base@DV?$stream_output_adapter@D@__crt_stdio_output@@@2@@__crt_stdio_output@@AAE_NXZ@PAU1?1??234@AAE_NXZ@@?$standard_base@DV?$stream_output_adapter@D@__crt_stdio_output@@@__crt_stdio_output@@IAE_NAAPAUansi_string@?1??type_case_Z@?$output_processor@DV?$stream_output_adapter@D@__crt_stdio_output@@V?$standard_base@DV?$stream_output_adapter@D@__crt_stdio_output@@@2@@1@AAE_NXZ@@Z 1008a470 f i libucrtd:output.obj
 0001:000894a0       ??$extract_argument_from_va_list@PAUansi_string@?1??type_case_Z@?$output_processor@DV?$string_output_adapter@D@__crt_stdio_output@@V?$format_validation_base@DV?$string_output_adapter@D@__crt_stdio_output@@@2@@__crt_stdio_output@@AAE_NXZ@PAU1?1??234@AAE_NXZ@@?$standard_base@DV?$string_output_adapter@D@__crt_stdio_output@@@__crt_stdio_output@@IAE_NAAPAUansi_string@?1??type_case_Z@?$output_processor@DV?$string_output_adapter@D@__crt_stdio_output@@V?$format_validation_base@DV?$string_output_adapter@D@__crt_stdio_output@@@2@@1@AAE_NXZ@@Z 1008a4a0 f i libucrtd:output.obj
 0001:000894d0       ??$extract_argument_from_va_list@PAUansi_string@?1??type_case_Z@?$output_processor@DV?$string_output_adapter@D@__crt_stdio_output@@V?$positional_parameter_base@DV?$string_output_adapter@D@__crt_stdio_output@@@2@@__crt_stdio_output@@AAE_NXZ@PAU1?1??234@AAE_NXZ@@?$positional_parameter_base@DV?$string_output_adapter@D@__crt_stdio_output@@@__crt_stdio_output@@IAE_NAAPAUansi_string@?1??type_case_Z@?$output_processor@DV?$string_output_adapter@D@__crt_stdio_output@@V?$positional_parameter_base@DV?$string_output_adapter@D@__crt_stdio_output@@@2@@1@AAE_NXZ@@Z 1008a4d0 f i libucrtd:output.obj
 0001:00089680       ??$extract_argument_from_va_list@PAUansi_string@?1??type_case_Z@?$output_processor@DV?$string_output_adapter@D@__crt_stdio_output@@V?$positional_parameter_base@DV?$string_output_adapter@D@__crt_stdio_output@@@2@@__crt_stdio_output@@AAE_NXZ@PAU1?1??234@AAE_NXZ@@?$standard_base@DV?$string_output_adapter@D@__crt_stdio_output@@@__crt_stdio_output@@IAE_NAAPAUansi_string@?1??type_case_Z@?$output_processor@DV?$string_output_adapter@D@__crt_stdio_output@@V?$positional_parameter_base@DV?$string_output_adapter@D@__crt_stdio_output@@@2@@1@AAE_NXZ@@Z 1008a680 f i libucrtd:output.obj
 0001:000896b0       ??$extract_argument_from_va_list@PAUansi_string@?1??type_case_Z@?$output_processor@DV?$string_output_adapter@D@__crt_stdio_output@@V?$standard_base@DV?$string_output_adapter@D@__crt_stdio_output@@@2@@__crt_stdio_output@@AAE_NXZ@PAU1?1??234@AAE_NXZ@@?$standard_base@DV?$string_output_adapter@D@__crt_stdio_output@@@__crt_stdio_output@@IAE_NAAPAUansi_string@?1??type_case_Z@?$output_processor@DV?$string_output_adapter@D@__crt_stdio_output@@V?$standard_base@DV?$string_output_adapter@D@__crt_stdio_output@@@2@@1@AAE_NXZ@@Z 1008a6b0 f i libucrtd:output.obj
 0001:000896e0       ??$extract_argument_from_va_list@PAUansi_string@?1??type_case_Z@?$output_processor@_WV?$stream_output_adapter@_W@__crt_stdio_output@@V?$format_validation_base@_WV?$stream_output_adapter@_W@__crt_stdio_output@@@2@@__crt_stdio_output@@AAE_NXZ@PAU1?1??234@AAE_NXZ@@?$standard_base@_WV?$stream_output_adapter@_W@__crt_stdio_output@@@__crt_stdio_output@@IAE_NAAPAUansi_string@?1??type_case_Z@?$output_processor@_WV?$stream_output_adapter@_W@__crt_stdio_output@@V?$format_validation_base@_WV?$stream_output_adapter@_W@__crt_stdio_output@@@2@@1@AAE_NXZ@@Z 1008a6e0 f i libucrtd:output.obj
 0001:00089710       ??$extract_argument_from_va_list@PAUansi_string@?1??type_case_Z@?$output_processor@_WV?$stream_output_adapter@_W@__crt_stdio_output@@V?$positional_parameter_base@_WV?$stream_output_adapter@_W@__crt_stdio_output@@@2@@__crt_stdio_output@@AAE_NXZ@PAU1?1??234@AAE_NXZ@@?$positional_parameter_base@_WV?$stream_output_adapter@_W@__crt_stdio_output@@@__crt_stdio_output@@IAE_NAAPAUansi_string@?1??type_case_Z@?$output_processor@_WV?$stream_output_adapter@_W@__crt_stdio_output@@V?$positional_parameter_base@_WV?$stream_output_adapter@_W@__crt_stdio_output@@@2@@1@AAE_NXZ@@Z 1008a710 f i libucrtd:output.obj
 0001:000898d0       ??$extract_argument_from_va_list@PAUansi_string@?1??type_case_Z@?$output_processor@_WV?$stream_output_adapter@_W@__crt_stdio_output@@V?$positional_parameter_base@_WV?$stream_output_adapter@_W@__crt_stdio_output@@@2@@__crt_stdio_output@@AAE_NXZ@PAU1?1??234@AAE_NXZ@@?$standard_base@_WV?$stream_output_adapter@_W@__crt_stdio_output@@@__crt_stdio_output@@IAE_NAAPAUansi_string@?1??type_case_Z@?$output_processor@_WV?$stream_output_adapter@_W@__crt_stdio_output@@V?$positional_parameter_base@_WV?$stream_output_adapter@_W@__crt_stdio_output@@@2@@1@AAE_NXZ@@Z 1008a8d0 f i libucrtd:output.obj
 0001:00089900       ??$extract_argument_from_va_list@PAUansi_string@?1??type_case_Z@?$output_processor@_WV?$stream_output_adapter@_W@__crt_stdio_output@@V?$standard_base@_WV?$stream_output_adapter@_W@__crt_stdio_output@@@2@@__crt_stdio_output@@AAE_NXZ@PAU1?1??234@AAE_NXZ@@?$standard_base@_WV?$stream_output_adapter@_W@__crt_stdio_output@@@__crt_stdio_output@@IAE_NAAPAUansi_string@?1??type_case_Z@?$output_processor@_WV?$stream_output_adapter@_W@__crt_stdio_output@@V?$standard_base@_WV?$stream_output_adapter@_W@__crt_stdio_output@@@2@@1@AAE_NXZ@@Z 1008a900 f i libucrtd:output.obj
 0001:00089930       ??$extract_argument_from_va_list@PAUansi_string@?1??type_case_Z@?$output_processor@_WV?$string_output_adapter@_W@__crt_stdio_output@@V?$format_validation_base@_WV?$string_output_adapter@_W@__crt_stdio_output@@@2@@__crt_stdio_output@@AAE_NXZ@PAU1?1??234@AAE_NXZ@@?$standard_base@_WV?$string_output_adapter@_W@__crt_stdio_output@@@__crt_stdio_output@@IAE_NAAPAUansi_string@?1??type_case_Z@?$output_processor@_WV?$string_output_adapter@_W@__crt_stdio_output@@V?$format_validation_base@_WV?$string_output_adapter@_W@__crt_stdio_output@@@2@@1@AAE_NXZ@@Z 1008a930 f i libucrtd:output.obj
 0001:00089960       ??$extract_argument_from_va_list@PAUansi_string@?1??type_case_Z@?$output_processor@_WV?$string_output_adapter@_W@__crt_stdio_output@@V?$positional_parameter_base@_WV?$string_output_adapter@_W@__crt_stdio_output@@@2@@__crt_stdio_output@@AAE_NXZ@PAU1?1??234@AAE_NXZ@@?$positional_parameter_base@_WV?$string_output_adapter@_W@__crt_stdio_output@@@__crt_stdio_output@@IAE_NAAPAUansi_string@?1??type_case_Z@?$output_processor@_WV?$string_output_adapter@_W@__crt_stdio_output@@V?$positional_parameter_base@_WV?$string_output_adapter@_W@__crt_stdio_output@@@2@@1@AAE_NXZ@@Z 1008a960 f i libucrtd:output.obj
 0001:00089b20       ??$extract_argument_from_va_list@PAUansi_string@?1??type_case_Z@?$output_processor@_WV?$string_output_adapter@_W@__crt_stdio_output@@V?$positional_parameter_base@_WV?$string_output_adapter@_W@__crt_stdio_output@@@2@@__crt_stdio_output@@AAE_NXZ@PAU1?1??234@AAE_NXZ@@?$standard_base@_WV?$string_output_adapter@_W@__crt_stdio_output@@@__crt_stdio_output@@IAE_NAAPAUansi_string@?1??type_case_Z@?$output_processor@_WV?$string_output_adapter@_W@__crt_stdio_output@@V?$positional_parameter_base@_WV?$string_output_adapter@_W@__crt_stdio_output@@@2@@1@AAE_NXZ@@Z 1008ab20 f i libucrtd:output.obj
 0001:00089b50       ??$extract_argument_from_va_list@PAUansi_string@?1??type_case_Z@?$output_processor@_WV?$string_output_adapter@_W@__crt_stdio_output@@V?$standard_base@_WV?$string_output_adapter@_W@__crt_stdio_output@@@2@@__crt_stdio_output@@AAE_NXZ@PAU1?1??234@AAE_NXZ@@?$standard_base@_WV?$string_output_adapter@_W@__crt_stdio_output@@@__crt_stdio_output@@IAE_NAAPAUansi_string@?1??type_case_Z@?$output_processor@_WV?$string_output_adapter@_W@__crt_stdio_output@@V?$standard_base@_WV?$string_output_adapter@_W@__crt_stdio_output@@@2@@1@AAE_NXZ@@Z 1008ab50 f i libucrtd:output.obj
 0001:00089b80       ??$extract_argument_from_va_list@PAXPAX@?$positional_parameter_base@DV?$stream_output_adapter@D@__crt_stdio_output@@@__crt_stdio_output@@IAE_NAAPAX@Z 1008ab80 f i libucrtd:output.obj
 0001:00089d30       ??$extract_argument_from_va_list@PAXPAX@?$positional_parameter_base@DV?$string_output_adapter@D@__crt_stdio_output@@@__crt_stdio_output@@IAE_NAAPAX@Z 1008ad30 f i libucrtd:output.obj
 0001:00089ee0       ??$extract_argument_from_va_list@PAXPAX@?$positional_parameter_base@_WV?$stream_output_adapter@_W@__crt_stdio_output@@@__crt_stdio_output@@IAE_NAAPAX@Z 1008aee0 f i libucrtd:output.obj
 0001:0008a0a0       ??$extract_argument_from_va_list@PAXPAX@?$positional_parameter_base@_WV?$string_output_adapter@_W@__crt_stdio_output@@@__crt_stdio_output@@IAE_NAAPAX@Z 1008b0a0 f i libucrtd:output.obj
 0001:0008a260       ??$extract_argument_from_va_list@PAXPAX@?$standard_base@DV?$stream_output_adapter@D@__crt_stdio_output@@@__crt_stdio_output@@IAE_NAAPAX@Z 1008b260 f i libucrtd:output.obj
 0001:0008a290       ??$extract_argument_from_va_list@PAXPAX@?$standard_base@DV?$string_output_adapter@D@__crt_stdio_output@@@__crt_stdio_output@@IAE_NAAPAX@Z 1008b290 f i libucrtd:output.obj
 0001:0008a2c0       ??$extract_argument_from_va_list@PAXPAX@?$standard_base@_WV?$stream_output_adapter@_W@__crt_stdio_output@@@__crt_stdio_output@@IAE_NAAPAX@Z 1008b2c0 f i libucrtd:output.obj
 0001:0008a2f0       ??$extract_argument_from_va_list@PAXPAX@?$standard_base@_WV?$string_output_adapter@_W@__crt_stdio_output@@@__crt_stdio_output@@IAE_NAAPAX@Z 1008b2f0 f i libucrtd:output.obj
 0001:0008a320       ??$extract_argument_from_va_list@U_CRT_DOUBLE@@U1@@?$positional_parameter_base@DV?$stream_output_adapter@D@__crt_stdio_output@@@__crt_stdio_output@@IAE_NAAU_CRT_DOUBLE@@@Z 1008b320 f i libucrtd:output.obj
 0001:0008a510       ??$extract_argument_from_va_list@U_CRT_DOUBLE@@U1@@?$positional_parameter_base@DV?$string_output_adapter@D@__crt_stdio_output@@@__crt_stdio_output@@IAE_NAAU_CRT_DOUBLE@@@Z 1008b510 f i libucrtd:output.obj
 0001:0008a700       ??$extract_argument_from_va_list@U_CRT_DOUBLE@@U1@@?$positional_parameter_base@_WV?$stream_output_adapter@_W@__crt_stdio_output@@@__crt_stdio_output@@IAE_NAAU_CRT_DOUBLE@@@Z 1008b700 f i libucrtd:output.obj
 0001:0008a8f0       ??$extract_argument_from_va_list@U_CRT_DOUBLE@@U1@@?$positional_parameter_base@_WV?$string_output_adapter@_W@__crt_stdio_output@@@__crt_stdio_output@@IAE_NAAU_CRT_DOUBLE@@@Z 1008b8f0 f i libucrtd:output.obj
 0001:0008aae0       ??$extract_argument_from_va_list@U_CRT_DOUBLE@@U1@@?$standard_base@DV?$stream_output_adapter@D@__crt_stdio_output@@@__crt_stdio_output@@IAE_NAAU_CRT_DOUBLE@@@Z 1008bae0 f i libucrtd:output.obj
 0001:0008ab40       ??$extract_argument_from_va_list@U_CRT_DOUBLE@@U1@@?$standard_base@DV?$string_output_adapter@D@__crt_stdio_output@@@__crt_stdio_output@@IAE_NAAU_CRT_DOUBLE@@@Z 1008bb40 f i libucrtd:output.obj
 0001:0008aba0       ??$extract_argument_from_va_list@U_CRT_DOUBLE@@U1@@?$standard_base@_WV?$stream_output_adapter@_W@__crt_stdio_output@@@__crt_stdio_output@@IAE_NAAU_CRT_DOUBLE@@@Z 1008bba0 f i libucrtd:output.obj
 0001:0008ac00       ??$extract_argument_from_va_list@U_CRT_DOUBLE@@U1@@?$standard_base@_WV?$string_output_adapter@_W@__crt_stdio_output@@@__crt_stdio_output@@IAE_NAAU_CRT_DOUBLE@@@Z 1008bc00 f i libucrtd:output.obj
 0001:0008ac60       ??$extract_argument_from_va_list@_J_J@?$positional_parameter_base@DV?$stream_output_adapter@D@__crt_stdio_output@@@__crt_stdio_output@@IAE_NAA_J@Z 1008bc60 f i libucrtd:output.obj
 0001:0008ae20       ??$extract_argument_from_va_list@_J_J@?$positional_parameter_base@DV?$string_output_adapter@D@__crt_stdio_output@@@__crt_stdio_output@@IAE_NAA_J@Z 1008be20 f i libucrtd:output.obj
 0001:0008afe0       ??$extract_argument_from_va_list@_J_J@?$positional_parameter_base@_WV?$stream_output_adapter@_W@__crt_stdio_output@@@__crt_stdio_output@@IAE_NAA_J@Z 1008bfe0 f i libucrtd:output.obj
 0001:0008b1a0       ??$extract_argument_from_va_list@_J_J@?$positional_parameter_base@_WV?$string_output_adapter@_W@__crt_stdio_output@@@__crt_stdio_output@@IAE_NAA_J@Z 1008c1a0 f i libucrtd:output.obj
 0001:0008b360       ??$extract_argument_from_va_list@_J_J@?$standard_base@DV?$stream_output_adapter@D@__crt_stdio_output@@@__crt_stdio_output@@IAE_NAA_J@Z 1008c360 f i libucrtd:output.obj
 0001:0008b3a0       ??$extract_argument_from_va_list@_J_J@?$standard_base@DV?$string_output_adapter@D@__crt_stdio_output@@@__crt_stdio_output@@IAE_NAA_J@Z 1008c3a0 f i libucrtd:output.obj
 0001:0008b3e0       ??$extract_argument_from_va_list@_J_J@?$standard_base@_WV?$stream_output_adapter@_W@__crt_stdio_output@@@__crt_stdio_output@@IAE_NAA_J@Z 1008c3e0 f i libucrtd:output.obj
 0001:0008b420       ??$extract_argument_from_va_list@_J_J@?$standard_base@_WV?$string_output_adapter@_W@__crt_stdio_output@@@__crt_stdio_output@@IAE_NAA_J@Z 1008c420 f i libucrtd:output.obj
 0001:0008b460       ??$extract_argument_from_va_list@_K_J@?$positional_parameter_base@DV?$stream_output_adapter@D@__crt_stdio_output@@@__crt_stdio_output@@IAE_NAA_J@Z 1008c460 f i libucrtd:output.obj
 0001:0008b620       ??$extract_argument_from_va_list@_K_J@?$positional_parameter_base@DV?$string_output_adapter@D@__crt_stdio_output@@@__crt_stdio_output@@IAE_NAA_J@Z 1008c620 f i libucrtd:output.obj
 0001:0008b7e0       ??$extract_argument_from_va_list@_K_J@?$positional_parameter_base@_WV?$stream_output_adapter@_W@__crt_stdio_output@@@__crt_stdio_output@@IAE_NAA_J@Z 1008c7e0 f i libucrtd:output.obj
 0001:0008b9a0       ??$extract_argument_from_va_list@_K_J@?$positional_parameter_base@_WV?$string_output_adapter@_W@__crt_stdio_output@@@__crt_stdio_output@@IAE_NAA_J@Z 1008c9a0 f i libucrtd:output.obj
 0001:0008bb60       ??$extract_argument_from_va_list@_K_J@?$standard_base@DV?$stream_output_adapter@D@__crt_stdio_output@@@__crt_stdio_output@@IAE_NAA_J@Z 1008cb60 f i libucrtd:output.obj
 0001:0008bba0       ??$extract_argument_from_va_list@_K_J@?$standard_base@DV?$string_output_adapter@D@__crt_stdio_output@@@__crt_stdio_output@@IAE_NAA_J@Z 1008cba0 f i libucrtd:output.obj
 0001:0008bbe0       ??$extract_argument_from_va_list@_K_J@?$standard_base@_WV?$stream_output_adapter@_W@__crt_stdio_output@@@__crt_stdio_output@@IAE_NAA_J@Z 1008cbe0 f i libucrtd:output.obj
 0001:0008bc20       ??$extract_argument_from_va_list@_K_J@?$standard_base@_WV?$string_output_adapter@_W@__crt_stdio_output@@@__crt_stdio_output@@IAE_NAA_J@Z 1008cc20 f i libucrtd:output.obj
 0001:0008bc60       ??$extract_argument_from_va_list@_W_W@?$positional_parameter_base@DV?$stream_output_adapter@D@__crt_stdio_output@@@__crt_stdio_output@@IAE_NAA_W@Z 1008cc60 f i libucrtd:output.obj
 0001:0008be10       ??$extract_argument_from_va_list@_W_W@?$positional_parameter_base@DV?$string_output_adapter@D@__crt_stdio_output@@@__crt_stdio_output@@IAE_NAA_W@Z 1008ce10 f i libucrtd:output.obj
 0001:0008bfc0       ??$extract_argument_from_va_list@_W_W@?$positional_parameter_base@_WV?$stream_output_adapter@_W@__crt_stdio_output@@@__crt_stdio_output@@IAE_NAA_W@Z 1008cfc0 f i libucrtd:output.obj
 0001:0008c180       ??$extract_argument_from_va_list@_W_W@?$positional_parameter_base@_WV?$string_output_adapter@_W@__crt_stdio_output@@@__crt_stdio_output@@IAE_NAA_W@Z 1008d180 f i libucrtd:output.obj
 0001:0008c340       ??$extract_argument_from_va_list@_W_W@?$standard_base@DV?$stream_output_adapter@D@__crt_stdio_output@@@__crt_stdio_output@@IAE_NAA_W@Z 1008d340 f i libucrtd:output.obj
 0001:0008c370       ??$extract_argument_from_va_list@_W_W@?$standard_base@DV?$string_output_adapter@D@__crt_stdio_output@@@__crt_stdio_output@@IAE_NAA_W@Z 1008d370 f i libucrtd:output.obj
 0001:0008c3a0       ??$extract_argument_from_va_list@_W_W@?$standard_base@_WV?$stream_output_adapter@_W@__crt_stdio_output@@@__crt_stdio_output@@IAE_NAA_W@Z 1008d3a0 f i libucrtd:output.obj
 0001:0008c3d0       ??$extract_argument_from_va_list@_W_W@?$standard_base@_WV?$string_output_adapter@_W@__crt_stdio_output@@@__crt_stdio_output@@IAE_NAA_W@Z 1008d3d0 f i libucrtd:output.obj
 0001:0008c400       ??$get_parameter_type@D@?$positional_parameter_base@DV?$stream_output_adapter@D@__crt_stdio_output@@@__crt_stdio_output@@CA?AW4parameter_type@01@PAD@Z 1008d400 f i libucrtd:output.obj
 0001:0008c410       ??$get_parameter_type@D@?$positional_parameter_base@DV?$string_output_adapter@D@__crt_stdio_output@@@__crt_stdio_output@@CA?AW4parameter_type@01@PAD@Z 1008d410 f i libucrtd:output.obj
 0001:0008c420       ??$get_parameter_type@D@?$positional_parameter_base@_WV?$stream_output_adapter@_W@__crt_stdio_output@@@__crt_stdio_output@@CA?AW4parameter_type@01@PAD@Z 1008d420 f i libucrtd:output.obj
 0001:0008c430       ??$get_parameter_type@D@?$positional_parameter_base@_WV?$string_output_adapter@_W@__crt_stdio_output@@@__crt_stdio_output@@CA?AW4parameter_type@01@PAD@Z 1008d430 f i libucrtd:output.obj
 0001:0008c440       ??$get_parameter_type@Uansi_string@?1??type_case_Z@?$output_processor@DV?$stream_output_adapter@D@__crt_stdio_output@@V?$positional_parameter_base@DV?$stream_output_adapter@D@__crt_stdio_output@@@2@@__crt_stdio_output@@AAE_NXZ@@?$positional_parameter_base@DV?$stream_output_adapter@D@__crt_stdio_output@@@__crt_stdio_output@@CA?AW4parameter_type@01@PAUansi_string@?1??type_case_Z@?$output_processor@DV?$stream_output_adapter@D@__crt_stdio_output@@V?$positional_parameter_base@DV?$stream_output_adapter@D@__crt_stdio_output@@@2@@1@AAE_NXZ@@Z 1008d440 f i libucrtd:output.obj
 0001:0008c450       ??$get_parameter_type@Uansi_string@?1??type_case_Z@?$output_processor@DV?$string_output_adapter@D@__crt_stdio_output@@V?$positional_parameter_base@DV?$string_output_adapter@D@__crt_stdio_output@@@2@@__crt_stdio_output@@AAE_NXZ@@?$positional_parameter_base@DV?$string_output_adapter@D@__crt_stdio_output@@@__crt_stdio_output@@CA?AW4parameter_type@01@PAUansi_string@?1??type_case_Z@?$output_processor@DV?$string_output_adapter@D@__crt_stdio_output@@V?$positional_parameter_base@DV?$string_output_adapter@D@__crt_stdio_output@@@2@@1@AAE_NXZ@@Z 1008d450 f i libucrtd:output.obj
 0001:0008c460       ??$get_parameter_type@Uansi_string@?1??type_case_Z@?$output_processor@_WV?$stream_output_adapter@_W@__crt_stdio_output@@V?$positional_parameter_base@_WV?$stream_output_adapter@_W@__crt_stdio_output@@@2@@__crt_stdio_output@@AAE_NXZ@@?$positional_parameter_base@_WV?$stream_output_adapter@_W@__crt_stdio_output@@@__crt_stdio_output@@CA?AW4parameter_type@01@PAUansi_string@?1??type_case_Z@?$output_processor@_WV?$stream_output_adapter@_W@__crt_stdio_output@@V?$positional_parameter_base@_WV?$stream_output_adapter@_W@__crt_stdio_output@@@2@@1@AAE_NXZ@@Z 1008d460 f i libucrtd:output.obj
 0001:0008c470       ??$get_parameter_type@Uansi_string@?1??type_case_Z@?$output_processor@_WV?$string_output_adapter@_W@__crt_stdio_output@@V?$positional_parameter_base@_WV?$string_output_adapter@_W@__crt_stdio_output@@@2@@__crt_stdio_output@@AAE_NXZ@@?$positional_parameter_base@_WV?$string_output_adapter@_W@__crt_stdio_output@@@__crt_stdio_output@@CA?AW4parameter_type@01@PAUansi_string@?1??type_case_Z@?$output_processor@_WV?$string_output_adapter@_W@__crt_stdio_output@@V?$positional_parameter_base@_WV?$string_output_adapter@_W@__crt_stdio_output@@@2@@1@AAE_NXZ@@Z 1008d470 f i libucrtd:output.obj
 0001:0008c480       ??$get_parameter_type@X@?$positional_parameter_base@DV?$stream_output_adapter@D@__crt_stdio_output@@@__crt_stdio_output@@CA?AW4parameter_type@01@PAX@Z 1008d480 f i libucrtd:output.obj
 0001:0008c490       ??$get_parameter_type@X@?$positional_parameter_base@DV?$string_output_adapter@D@__crt_stdio_output@@@__crt_stdio_output@@CA?AW4parameter_type@01@PAX@Z 1008d490 f i libucrtd:output.obj
 0001:0008c4a0       ??$get_parameter_type@X@?$positional_parameter_base@_WV?$stream_output_adapter@_W@__crt_stdio_output@@@__crt_stdio_output@@CA?AW4parameter_type@01@PAX@Z 1008d4a0 f i libucrtd:output.obj
 0001:0008c4b0       ??$get_parameter_type@X@?$positional_parameter_base@_WV?$string_output_adapter@_W@__crt_stdio_output@@@__crt_stdio_output@@CA?AW4parameter_type@01@PAX@Z 1008d4b0 f i libucrtd:output.obj
 0001:0008c4c0       ??$is_character_specifier@D@?$positional_parameter_base@DV?$stream_output_adapter@D@__crt_stdio_output@@@__crt_stdio_output@@CA_ND@Z 1008d4c0 f i libucrtd:output.obj
 0001:0008c500       ??$is_character_specifier@D@?$positional_parameter_base@DV?$string_output_adapter@D@__crt_stdio_output@@@__crt_stdio_output@@CA_ND@Z 1008d500 f i libucrtd:output.obj
 0001:0008c540       ??$is_character_specifier@_W@?$positional_parameter_base@_WV?$stream_output_adapter@_W@__crt_stdio_output@@@__crt_stdio_output@@CA_N_W@Z 1008d540 f i libucrtd:output.obj
 0001:0008c580       ??$is_character_specifier@_W@?$positional_parameter_base@_WV?$string_output_adapter@_W@__crt_stdio_output@@@__crt_stdio_output@@CA_N_W@Z 1008d580 f i libucrtd:output.obj
 0001:0008c5c0       ??$is_integral_specifier@D@?$positional_parameter_base@DV?$stream_output_adapter@D@__crt_stdio_output@@@__crt_stdio_output@@CA_ND@Z 1008d5c0 f i libucrtd:output.obj
 0001:0008c640       ??$is_integral_specifier@D@?$positional_parameter_base@DV?$string_output_adapter@D@__crt_stdio_output@@@__crt_stdio_output@@CA_ND@Z 1008d640 f i libucrtd:output.obj
 0001:0008c6c0       ??$is_integral_specifier@_W@?$positional_parameter_base@_WV?$stream_output_adapter@_W@__crt_stdio_output@@@__crt_stdio_output@@CA_N_W@Z 1008d6c0 f i libucrtd:output.obj
 0001:0008c740       ??$is_integral_specifier@_W@?$positional_parameter_base@_WV?$string_output_adapter@_W@__crt_stdio_output@@@__crt_stdio_output@@CA_N_W@Z 1008d740 f i libucrtd:output.obj
 0001:0008c7c0       ??$is_overflow_condition@K@__crt_strtox@@YA_NIK@Z 1008d7c0 f i libucrtd:output.obj
 0001:0008c830       ??$is_pointer_specifier@D@?$positional_parameter_base@DV?$stream_output_adapter@D@__crt_stdio_output@@@__crt_stdio_output@@CA_ND@Z 1008d830 f i libucrtd:output.obj
 0001:0008c860       ??$is_pointer_specifier@D@?$positional_parameter_base@DV?$string_output_adapter@D@__crt_stdio_output@@@__crt_stdio_output@@CA_ND@Z 1008d860 f i libucrtd:output.obj
 0001:0008c890       ??$is_pointer_specifier@_W@?$positional_parameter_base@_WV?$stream_output_adapter@_W@__crt_stdio_output@@@__crt_stdio_output@@CA_N_W@Z 1008d890 f i libucrtd:output.obj
 0001:0008c8c0       ??$is_pointer_specifier@_W@?$positional_parameter_base@_WV?$string_output_adapter@_W@__crt_stdio_output@@@__crt_stdio_output@@CA_N_W@Z 1008d8c0 f i libucrtd:output.obj
 0001:0008c8f0       ??$is_string_specifier@D@?$positional_parameter_base@DV?$stream_output_adapter@D@__crt_stdio_output@@@__crt_stdio_output@@CA_ND@Z 1008d8f0 f i libucrtd:output.obj
 0001:0008c930       ??$is_string_specifier@D@?$positional_parameter_base@DV?$string_output_adapter@D@__crt_stdio_output@@@__crt_stdio_output@@CA_ND@Z 1008d930 f i libucrtd:output.obj
 0001:0008c970       ??$is_string_specifier@_W@?$positional_parameter_base@_WV?$stream_output_adapter@_W@__crt_stdio_output@@@__crt_stdio_output@@CA_N_W@Z 1008d970 f i libucrtd:output.obj
 0001:0008c9b0       ??$is_string_specifier@_W@?$positional_parameter_base@_WV?$string_output_adapter@_W@__crt_stdio_output@@@__crt_stdio_output@@CA_N_W@Z 1008d9b0 f i libucrtd:output.obj
 0001:0008c9f0       ??$is_wide_character_specifier@D@__crt_stdio_output@@YA_N_KDW4length_modifier@0@@Z 1008d9f0 f i libucrtd:output.obj
 0001:0008ca90       ??$is_wide_character_specifier@_W@__crt_stdio_output@@YA_N_K_WW4length_modifier@0@@Z 1008da90 f i libucrtd:output.obj
 0001:0008cb80       ??$make_c_string_character_source@DPAPAD@__crt_strtox@@YA?AV?$c_string_character_source@D@0@QBDQAPAD@Z 1008db80 f i libucrtd:output.obj
 0001:0008cba0       ??$make_c_string_character_source@_WPAPA_W@__crt_strtox@@YA?AV?$c_string_character_source@_W@0@QB_WQAPA_W@Z 1008dba0 f i libucrtd:output.obj
 0001:0008cbc0       ??$parse_integer@KV?$c_string_character_source@D@__crt_strtox@@$0A@@__crt_strtox@@YAKAAV__crt_cached_ptd_host@@V?$c_string_character_source@D@0@H_N@Z 1008dbc0 f i libucrtd:output.obj
 0001:0008cfc0       ??$parse_integer@KV?$c_string_character_source@_W@__crt_strtox@@$0A@@__crt_strtox@@YAKAAV__crt_cached_ptd_host@@V?$c_string_character_source@_W@0@H_N@Z 1008dfc0 f i libucrtd:output.obj
 0001:0008d3c0       ??$peek_va_arg@C@__crt_stdio_output@@YACPAD@Z 1008e3c0 f i libucrtd:output.obj
 0001:0008d3e0       ??$peek_va_arg@E@__crt_stdio_output@@YAEPAD@Z 1008e3e0 f i libucrtd:output.obj
 0001:0008d400       ??$peek_va_arg@F@__crt_stdio_output@@YAFPAD@Z 1008e400 f i libucrtd:output.obj
 0001:0008d420       ??$peek_va_arg@G@__crt_stdio_output@@YAGPAD@Z 1008e420 f i libucrtd:output.obj
 0001:0008d440       ??$peek_va_arg@H@__crt_stdio_output@@YAHPAD@Z 1008e440 f i libucrtd:output.obj
 0001:0008d460       ??$peek_va_arg@I@__crt_stdio_output@@YAIPAD@Z 1008e460 f i libucrtd:output.obj
 0001:0008d480       ??$peek_va_arg@PAD@__crt_stdio_output@@YAPADPAD@Z 1008e480 f i libucrtd:output.obj
 0001:0008d4a0       ??$peek_va_arg@PAUansi_string@?1??type_case_Z@?$output_processor@DV?$stream_output_adapter@D@__crt_stdio_output@@V?$positional_parameter_base@DV?$stream_output_adapter@D@__crt_stdio_output@@@2@@__crt_stdio_output@@AAE_NXZ@@__crt_stdio_output@@YAPAUansi_string@?1??type_case_Z@?$output_processor@DV?$stream_output_adapter@D@__crt_stdio_output@@V?$positional_parameter_base@DV?$stream_output_adapter@D@__crt_stdio_output@@@2@@0@AAE_NXZ@PAD@Z 1008e4a0 f i libucrtd:output.obj
 0001:0008d4c0       ??$peek_va_arg@PAUansi_string@?1??type_case_Z@?$output_processor@DV?$string_output_adapter@D@__crt_stdio_output@@V?$positional_parameter_base@DV?$string_output_adapter@D@__crt_stdio_output@@@2@@__crt_stdio_output@@AAE_NXZ@@__crt_stdio_output@@YAPAUansi_string@?1??type_case_Z@?$output_processor@DV?$string_output_adapter@D@__crt_stdio_output@@V?$positional_parameter_base@DV?$string_output_adapter@D@__crt_stdio_output@@@2@@0@AAE_NXZ@PAD@Z 1008e4c0 f i libucrtd:output.obj
 0001:0008d4e0       ??$peek_va_arg@PAUansi_string@?1??type_case_Z@?$output_processor@_WV?$stream_output_adapter@_W@__crt_stdio_output@@V?$positional_parameter_base@_WV?$stream_output_adapter@_W@__crt_stdio_output@@@2@@__crt_stdio_output@@AAE_NXZ@@__crt_stdio_output@@YAPAUansi_string@?1??type_case_Z@?$output_processor@_WV?$stream_output_adapter@_W@__crt_stdio_output@@V?$positional_parameter_base@_WV?$stream_output_adapter@_W@__crt_stdio_output@@@2@@0@AAE_NXZ@PAD@Z 1008e4e0 f i libucrtd:output.obj
 0001:0008d500       ??$peek_va_arg@PAUansi_string@?1??type_case_Z@?$output_processor@_WV?$string_output_adapter@_W@__crt_stdio_output@@V?$positional_parameter_base@_WV?$string_output_adapter@_W@__crt_stdio_output@@@2@@__crt_stdio_output@@AAE_NXZ@@__crt_stdio_output@@YAPAUansi_string@?1??type_case_Z@?$output_processor@_WV?$string_output_adapter@_W@__crt_stdio_output@@V?$positional_parameter_base@_WV?$string_output_adapter@_W@__crt_stdio_output@@@2@@0@AAE_NXZ@PAD@Z 1008e500 f i libucrtd:output.obj
 0001:0008d520       ??$peek_va_arg@PAX@__crt_stdio_output@@YAPAXPAD@Z 1008e520 f i libucrtd:output.obj
 0001:0008d540       ??$peek_va_arg@U_CRT_DOUBLE@@@__crt_stdio_output@@YA?AU_CRT_DOUBLE@@PAD@Z 1008e540 f i libucrtd:output.obj
 0001:0008d560       ??$peek_va_arg@_J@__crt_stdio_output@@YA_JPAD@Z 1008e560 f i libucrtd:output.obj
 0001:0008d580       ??$peek_va_arg@_K@__crt_stdio_output@@YA_KPAD@Z 1008e580 f i libucrtd:output.obj
 0001:0008d5a0       ??$peek_va_arg@_W@__crt_stdio_output@@YA_WPAD@Z 1008e5a0 f i libucrtd:output.obj
 0001:0008d5c0       ??$puttc_nolock_internal@ABDPAU_iobuf@@AAV__crt_cached_ptd_host@@@?$__crt_char_traits@D@@SAHABD$$QAPAU_iobuf@@AAV__crt_cached_ptd_host@@@Z 1008e5c0 f i libucrtd:output.obj
 0001:0008d5f0       ??$puttc_nolock_internal@AB_WPAU_iobuf@@AAV__crt_cached_ptd_host@@@?$__crt_char_traits@_W@@SAGAB_W$$QAPAU_iobuf@@AAV__crt_cached_ptd_host@@@Z 1008e5f0 f i libucrtd:output.obj
 0001:0008d620       ??$read_va_arg@C@__crt_stdio_output@@YACAAPAD@Z 1008e620 f i libucrtd:output.obj
 0001:0008d650       ??$read_va_arg@E@__crt_stdio_output@@YAEAAPAD@Z 1008e650 f i libucrtd:output.obj
 0001:0008d680       ??$read_va_arg@F@__crt_stdio_output@@YAFAAPAD@Z 1008e680 f i libucrtd:output.obj
 0001:0008d6b0       ??$read_va_arg@G@__crt_stdio_output@@YAGAAPAD@Z 1008e6b0 f i libucrtd:output.obj
 0001:0008d6e0       ??$read_va_arg@H@__crt_stdio_output@@YAHAAPAD@Z 1008e6e0 f i libucrtd:output.obj
 0001:0008d710       ??$read_va_arg@I@__crt_stdio_output@@YAIAAPAD@Z 1008e710 f i libucrtd:output.obj
 0001:0008d740       ??$read_va_arg@PAD@__crt_stdio_output@@YAPADAAPAD@Z 1008e740 f i libucrtd:output.obj
 0001:0008d770       ??$read_va_arg@PAUansi_string@?1??type_case_Z@?$output_processor@DV?$stream_output_adapter@D@__crt_stdio_output@@V?$format_validation_base@DV?$stream_output_adapter@D@__crt_stdio_output@@@2@@__crt_stdio_output@@AAE_NXZ@@__crt_stdio_output@@YAPAUansi_string@?1??type_case_Z@?$output_processor@DV?$stream_output_adapter@D@__crt_stdio_output@@V?$format_validation_base@DV?$stream_output_adapter@D@__crt_stdio_output@@@2@@0@AAE_NXZ@AAPAD@Z 1008e770 f i libucrtd:output.obj
 0001:0008d7a0       ??$read_va_arg@PAUansi_string@?1??type_case_Z@?$output_processor@DV?$stream_output_adapter@D@__crt_stdio_output@@V?$positional_parameter_base@DV?$stream_output_adapter@D@__crt_stdio_output@@@2@@__crt_stdio_output@@AAE_NXZ@@__crt_stdio_output@@YAPAUansi_string@?1??type_case_Z@?$output_processor@DV?$stream_output_adapter@D@__crt_stdio_output@@V?$positional_parameter_base@DV?$stream_output_adapter@D@__crt_stdio_output@@@2@@0@AAE_NXZ@AAPAD@Z 1008e7a0 f i libucrtd:output.obj
 0001:0008d7d0       ??$read_va_arg@PAUansi_string@?1??type_case_Z@?$output_processor@DV?$stream_output_adapter@D@__crt_stdio_output@@V?$standard_base@DV?$stream_output_adapter@D@__crt_stdio_output@@@2@@__crt_stdio_output@@AAE_NXZ@@__crt_stdio_output@@YAPAUansi_string@?1??type_case_Z@?$output_processor@DV?$stream_output_adapter@D@__crt_stdio_output@@V?$standard_base@DV?$stream_output_adapter@D@__crt_stdio_output@@@2@@0@AAE_NXZ@AAPAD@Z 1008e7d0 f i libucrtd:output.obj
 0001:0008d800       ??$read_va_arg@PAUansi_string@?1??type_case_Z@?$output_processor@DV?$string_output_adapter@D@__crt_stdio_output@@V?$format_validation_base@DV?$string_output_adapter@D@__crt_stdio_output@@@2@@__crt_stdio_output@@AAE_NXZ@@__crt_stdio_output@@YAPAUansi_string@?1??type_case_Z@?$output_processor@DV?$string_output_adapter@D@__crt_stdio_output@@V?$format_validation_base@DV?$string_output_adapter@D@__crt_stdio_output@@@2@@0@AAE_NXZ@AAPAD@Z 1008e800 f i libucrtd:output.obj
 0001:0008d830       ??$read_va_arg@PAUansi_string@?1??type_case_Z@?$output_processor@DV?$string_output_adapter@D@__crt_stdio_output@@V?$positional_parameter_base@DV?$string_output_adapter@D@__crt_stdio_output@@@2@@__crt_stdio_output@@AAE_NXZ@@__crt_stdio_output@@YAPAUansi_string@?1??type_case_Z@?$output_processor@DV?$string_output_adapter@D@__crt_stdio_output@@V?$positional_parameter_base@DV?$string_output_adapter@D@__crt_stdio_output@@@2@@0@AAE_NXZ@AAPAD@Z 1008e830 f i libucrtd:output.obj
 0001:0008d860       ??$read_va_arg@PAUansi_string@?1??type_case_Z@?$output_processor@DV?$string_output_adapter@D@__crt_stdio_output@@V?$standard_base@DV?$string_output_adapter@D@__crt_stdio_output@@@2@@__crt_stdio_output@@AAE_NXZ@@__crt_stdio_output@@YAPAUansi_string@?1??type_case_Z@?$output_processor@DV?$string_output_adapter@D@__crt_stdio_output@@V?$standard_base@DV?$string_output_adapter@D@__crt_stdio_output@@@2@@0@AAE_NXZ@AAPAD@Z 1008e860 f i libucrtd:output.obj
 0001:0008d890       ??$read_va_arg@PAUansi_string@?1??type_case_Z@?$output_processor@_WV?$stream_output_adapter@_W@__crt_stdio_output@@V?$format_validation_base@_WV?$stream_output_adapter@_W@__crt_stdio_output@@@2@@__crt_stdio_output@@AAE_NXZ@@__crt_stdio_output@@YAPAUansi_string@?1??type_case_Z@?$output_processor@_WV?$stream_output_adapter@_W@__crt_stdio_output@@V?$format_validation_base@_WV?$stream_output_adapter@_W@__crt_stdio_output@@@2@@0@AAE_NXZ@AAPAD@Z 1008e890 f i libucrtd:output.obj
 0001:0008d8c0       ??$read_va_arg@PAUansi_string@?1??type_case_Z@?$output_processor@_WV?$stream_output_adapter@_W@__crt_stdio_output@@V?$positional_parameter_base@_WV?$stream_output_adapter@_W@__crt_stdio_output@@@2@@__crt_stdio_output@@AAE_NXZ@@__crt_stdio_output@@YAPAUansi_string@?1??type_case_Z@?$output_processor@_WV?$stream_output_adapter@_W@__crt_stdio_output@@V?$positional_parameter_base@_WV?$stream_output_adapter@_W@__crt_stdio_output@@@2@@0@AAE_NXZ@AAPAD@Z 1008e8c0 f i libucrtd:output.obj
 0001:0008d8f0       ??$read_va_arg@PAUansi_string@?1??type_case_Z@?$output_processor@_WV?$stream_output_adapter@_W@__crt_stdio_output@@V?$standard_base@_WV?$stream_output_adapter@_W@__crt_stdio_output@@@2@@__crt_stdio_output@@AAE_NXZ@@__crt_stdio_output@@YAPAUansi_string@?1??type_case_Z@?$output_processor@_WV?$stream_output_adapter@_W@__crt_stdio_output@@V?$standard_base@_WV?$stream_output_adapter@_W@__crt_stdio_output@@@2@@0@AAE_NXZ@AAPAD@Z 1008e8f0 f i libucrtd:output.obj
 0001:0008d920       ??$read_va_arg@PAUansi_string@?1??type_case_Z@?$output_processor@_WV?$string_output_adapter@_W@__crt_stdio_output@@V?$format_validation_base@_WV?$string_output_adapter@_W@__crt_stdio_output@@@2@@__crt_stdio_output@@AAE_NXZ@@__crt_stdio_output@@YAPAUansi_string@?1??type_case_Z@?$output_processor@_WV?$string_output_adapter@_W@__crt_stdio_output@@V?$format_validation_base@_WV?$string_output_adapter@_W@__crt_stdio_output@@@2@@0@AAE_NXZ@AAPAD@Z 1008e920 f i libucrtd:output.obj
 0001:0008d950       ??$read_va_arg@PAUansi_string@?1??type_case_Z@?$output_processor@_WV?$string_output_adapter@_W@__crt_stdio_output@@V?$positional_parameter_base@_WV?$string_output_adapter@_W@__crt_stdio_output@@@2@@__crt_stdio_output@@AAE_NXZ@@__crt_stdio_output@@YAPAUansi_string@?1??type_case_Z@?$output_processor@_WV?$string_output_adapter@_W@__crt_stdio_output@@V?$positional_parameter_base@_WV?$string_output_adapter@_W@__crt_stdio_output@@@2@@0@AAE_NXZ@AAPAD@Z 1008e950 f i libucrtd:output.obj
 0001:0008d980       ??$read_va_arg@PAUansi_string@?1??type_case_Z@?$output_processor@_WV?$string_output_adapter@_W@__crt_stdio_output@@V?$standard_base@_WV?$string_output_adapter@_W@__crt_stdio_output@@@2@@__crt_stdio_output@@AAE_NXZ@@__crt_stdio_output@@YAPAUansi_string@?1??type_case_Z@?$output_processor@_WV?$string_output_adapter@_W@__crt_stdio_output@@V?$standard_base@_WV?$string_output_adapter@_W@__crt_stdio_output@@@2@@0@AAE_NXZ@AAPAD@Z 1008e980 f i libucrtd:output.obj
 0001:0008d9b0       ??$read_va_arg@PAX@__crt_stdio_output@@YAPAXAAPAD@Z 1008e9b0 f i libucrtd:output.obj
 0001:0008d9e0       ??$read_va_arg@U_CRT_DOUBLE@@@__crt_stdio_output@@YA?AU_CRT_DOUBLE@@AAPAD@Z 1008e9e0 f i libucrtd:output.obj
 0001:0008da10       ??$read_va_arg@_J@__crt_stdio_output@@YA_JAAPAD@Z 1008ea10 f i libucrtd:output.obj
 0001:0008da40       ??$read_va_arg@_K@__crt_stdio_output@@YA_KAAPAD@Z 1008ea40 f i libucrtd:output.obj
 0001:0008da70       ??$read_va_arg@_W@__crt_stdio_output@@YA_WAAPAD@Z 1008ea70 f i libucrtd:output.obj
 0001:0008daa0       ??$scratch_count@D@formatting_buffer@__crt_stdio_output@@QBEIXZ 1008eaa0 f i libucrtd:output.obj
 0001:0008dac0       ??$scratch_data@D@formatting_buffer@__crt_stdio_output@@QAEPADXZ 1008eac0 f i libucrtd:output.obj
 0001:0008db20       ??$type_case_integer@$07@?$output_processor@DV?$stream_output_adapter@D@__crt_stdio_output@@V?$format_validation_base@DV?$stream_output_adapter@D@__crt_stdio_output@@@2@@__crt_stdio_output@@AAE_N_N@Z 1008eb20 f i libucrtd:output.obj
 0001:0008df60       ??$type_case_integer@$07@?$output_processor@DV?$stream_output_adapter@D@__crt_stdio_output@@V?$positional_parameter_base@DV?$stream_output_adapter@D@__crt_stdio_output@@@2@@__crt_stdio_output@@AAE_N_N@Z 1008ef60 f i libucrtd:output.obj
 0001:0008e3a0       ??$type_case_integer@$07@?$output_processor@DV?$stream_output_adapter@D@__crt_stdio_output@@V?$standard_base@DV?$stream_output_adapter@D@__crt_stdio_output@@@2@@__crt_stdio_output@@AAE_N_N@Z 1008f3a0 f i libucrtd:output.obj
 0001:0008e7e0       ??$type_case_integer@$07@?$output_processor@DV?$string_output_adapter@D@__crt_stdio_output@@V?$format_validation_base@DV?$string_output_adapter@D@__crt_stdio_output@@@2@@__crt_stdio_output@@AAE_N_N@Z 1008f7e0 f i libucrtd:output.obj
 0001:0008ec20       ??$type_case_integer@$07@?$output_processor@DV?$string_output_adapter@D@__crt_stdio_output@@V?$positional_parameter_base@DV?$string_output_adapter@D@__crt_stdio_output@@@2@@__crt_stdio_output@@AAE_N_N@Z 1008fc20 f i libucrtd:output.obj
 0001:0008f060       ??$type_case_integer@$07@?$output_processor@DV?$string_output_adapter@D@__crt_stdio_output@@V?$standard_base@DV?$string_output_adapter@D@__crt_stdio_output@@@2@@__crt_stdio_output@@AAE_N_N@Z 10090060 f i libucrtd:output.obj
 0001:0008f4a0       ??$type_case_integer@$07@?$output_processor@_WV?$stream_output_adapter@_W@__crt_stdio_output@@V?$format_validation_base@_WV?$stream_output_adapter@_W@__crt_stdio_output@@@2@@__crt_stdio_output@@AAE_N_N@Z 100904a0 f i libucrtd:output.obj
 0001:0008f8e0       ??$type_case_integer@$07@?$output_processor@_WV?$stream_output_adapter@_W@__crt_stdio_output@@V?$positional_parameter_base@_WV?$stream_output_adapter@_W@__crt_stdio_output@@@2@@__crt_stdio_output@@AAE_N_N@Z 100908e0 f i libucrtd:output.obj
 0001:0008fd20       ??$type_case_integer@$07@?$output_processor@_WV?$stream_output_adapter@_W@__crt_stdio_output@@V?$standard_base@_WV?$stream_output_adapter@_W@__crt_stdio_output@@@2@@__crt_stdio_output@@AAE_N_N@Z 10090d20 f i libucrtd:output.obj
 0001:00090160       ??$type_case_integer@$07@?$output_processor@_WV?$string_output_adapter@_W@__crt_stdio_output@@V?$format_validation_base@_WV?$string_output_adapter@_W@__crt_stdio_output@@@2@@__crt_stdio_output@@AAE_N_N@Z 10091160 f i libucrtd:output.obj
 0001:000905a0       ??$type_case_integer@$07@?$output_processor@_WV?$string_output_adapter@_W@__crt_stdio_output@@V?$positional_parameter_base@_WV?$string_output_adapter@_W@__crt_stdio_output@@@2@@__crt_stdio_output@@AAE_N_N@Z 100915a0 f i libucrtd:output.obj
 0001:000909e0       ??$type_case_integer@$07@?$output_processor@_WV?$string_output_adapter@_W@__crt_stdio_output@@V?$standard_base@_WV?$string_output_adapter@_W@__crt_stdio_output@@@2@@__crt_stdio_output@@AAE_N_N@Z 100919e0 f i libucrtd:output.obj
 0001:00090e20       ??$type_case_integer@$09@?$output_processor@DV?$stream_output_adapter@D@__crt_stdio_output@@V?$format_validation_base@DV?$stream_output_adapter@D@__crt_stdio_output@@@2@@__crt_stdio_output@@AAE_N_N@Z 10091e20 f i libucrtd:output.obj
 0001:00091260       ??$type_case_integer@$09@?$output_processor@DV?$stream_output_adapter@D@__crt_stdio_output@@V?$positional_parameter_base@DV?$stream_output_adapter@D@__crt_stdio_output@@@2@@__crt_stdio_output@@AAE_N_N@Z 10092260 f i libucrtd:output.obj
 0001:000916a0       ??$type_case_integer@$09@?$output_processor@DV?$stream_output_adapter@D@__crt_stdio_output@@V?$standard_base@DV?$stream_output_adapter@D@__crt_stdio_output@@@2@@__crt_stdio_output@@AAE_N_N@Z 100926a0 f i libucrtd:output.obj
 0001:00091ae0       ??$type_case_integer@$09@?$output_processor@DV?$string_output_adapter@D@__crt_stdio_output@@V?$format_validation_base@DV?$string_output_adapter@D@__crt_stdio_output@@@2@@__crt_stdio_output@@AAE_N_N@Z 10092ae0 f i libucrtd:output.obj
 0001:00091f20       ??$type_case_integer@$09@?$output_processor@DV?$string_output_adapter@D@__crt_stdio_output@@V?$positional_parameter_base@DV?$string_output_adapter@D@__crt_stdio_output@@@2@@__crt_stdio_output@@AAE_N_N@Z 10092f20 f i libucrtd:output.obj
 0001:00092360       ??$type_case_integer@$09@?$output_processor@DV?$string_output_adapter@D@__crt_stdio_output@@V?$standard_base@DV?$string_output_adapter@D@__crt_stdio_output@@@2@@__crt_stdio_output@@AAE_N_N@Z 10093360 f i libucrtd:output.obj
 0001:000927a0       ??$type_case_integer@$09@?$output_processor@_WV?$stream_output_adapter@_W@__crt_stdio_output@@V?$format_validation_base@_WV?$stream_output_adapter@_W@__crt_stdio_output@@@2@@__crt_stdio_output@@AAE_N_N@Z 100937a0 f i libucrtd:output.obj
 0001:00092be0       ??$type_case_integer@$09@?$output_processor@_WV?$stream_output_adapter@_W@__crt_stdio_output@@V?$positional_parameter_base@_WV?$stream_output_adapter@_W@__crt_stdio_output@@@2@@__crt_stdio_output@@AAE_N_N@Z 10093be0 f i libucrtd:output.obj
 0001:00093020       ??$type_case_integer@$09@?$output_processor@_WV?$stream_output_adapter@_W@__crt_stdio_output@@V?$standard_base@_WV?$stream_output_adapter@_W@__crt_stdio_output@@@2@@__crt_stdio_output@@AAE_N_N@Z 10094020 f i libucrtd:output.obj
 0001:00093460       ??$type_case_integer@$09@?$output_processor@_WV?$string_output_adapter@_W@__crt_stdio_output@@V?$format_validation_base@_WV?$string_output_adapter@_W@__crt_stdio_output@@@2@@__crt_stdio_output@@AAE_N_N@Z 10094460 f i libucrtd:output.obj
 0001:000938a0       ??$type_case_integer@$09@?$output_processor@_WV?$string_output_adapter@_W@__crt_stdio_output@@V?$positional_parameter_base@_WV?$string_output_adapter@_W@__crt_stdio_output@@@2@@__crt_stdio_output@@AAE_N_N@Z 100948a0 f i libucrtd:output.obj
 0001:00093ce0       ??$type_case_integer@$09@?$output_processor@_WV?$string_output_adapter@_W@__crt_stdio_output@@V?$standard_base@_WV?$string_output_adapter@_W@__crt_stdio_output@@@2@@__crt_stdio_output@@AAE_N_N@Z 10094ce0 f i libucrtd:output.obj
 0001:00094120       ??$type_case_integer@$0BA@@?$output_processor@DV?$stream_output_adapter@D@__crt_stdio_output@@V?$format_validation_base@DV?$stream_output_adapter@D@__crt_stdio_output@@@2@@__crt_stdio_output@@AAE_N_N@Z 10095120 f i libucrtd:output.obj
 0001:00094560       ??$type_case_integer@$0BA@@?$output_processor@DV?$stream_output_adapter@D@__crt_stdio_output@@V?$positional_parameter_base@DV?$stream_output_adapter@D@__crt_stdio_output@@@2@@__crt_stdio_output@@AAE_N_N@Z 10095560 f i libucrtd:output.obj
 0001:000949a0       ??$type_case_integer@$0BA@@?$output_processor@DV?$stream_output_adapter@D@__crt_stdio_output@@V?$standard_base@DV?$stream_output_adapter@D@__crt_stdio_output@@@2@@__crt_stdio_output@@AAE_N_N@Z 100959a0 f i libucrtd:output.obj
 0001:00094de0       ??$type_case_integer@$0BA@@?$output_processor@DV?$string_output_adapter@D@__crt_stdio_output@@V?$format_validation_base@DV?$string_output_adapter@D@__crt_stdio_output@@@2@@__crt_stdio_output@@AAE_N_N@Z 10095de0 f i libucrtd:output.obj
 0001:00095220       ??$type_case_integer@$0BA@@?$output_processor@DV?$string_output_adapter@D@__crt_stdio_output@@V?$positional_parameter_base@DV?$string_output_adapter@D@__crt_stdio_output@@@2@@__crt_stdio_output@@AAE_N_N@Z 10096220 f i libucrtd:output.obj
 0001:00095660       ??$type_case_integer@$0BA@@?$output_processor@DV?$string_output_adapter@D@__crt_stdio_output@@V?$standard_base@DV?$string_output_adapter@D@__crt_stdio_output@@@2@@__crt_stdio_output@@AAE_N_N@Z 10096660 f i libucrtd:output.obj
 0001:00095aa0       ??$type_case_integer@$0BA@@?$output_processor@_WV?$stream_output_adapter@_W@__crt_stdio_output@@V?$format_validation_base@_WV?$stream_output_adapter@_W@__crt_stdio_output@@@2@@__crt_stdio_output@@AAE_N_N@Z 10096aa0 f i libucrtd:output.obj
 0001:00095ee0       ??$type_case_integer@$0BA@@?$output_processor@_WV?$stream_output_adapter@_W@__crt_stdio_output@@V?$positional_parameter_base@_WV?$stream_output_adapter@_W@__crt_stdio_output@@@2@@__crt_stdio_output@@AAE_N_N@Z 10096ee0 f i libucrtd:output.obj
 0001:00096320       ??$type_case_integer@$0BA@@?$output_processor@_WV?$stream_output_adapter@_W@__crt_stdio_output@@V?$standard_base@_WV?$stream_output_adapter@_W@__crt_stdio_output@@@2@@__crt_stdio_output@@AAE_N_N@Z 10097320 f i libucrtd:output.obj
 0001:00096760       ??$type_case_integer@$0BA@@?$output_processor@_WV?$string_output_adapter@_W@__crt_stdio_output@@V?$format_validation_base@_WV?$string_output_adapter@_W@__crt_stdio_output@@@2@@__crt_stdio_output@@AAE_N_N@Z 10097760 f i libucrtd:output.obj
 0001:00096ba0       ??$type_case_integer@$0BA@@?$output_processor@_WV?$string_output_adapter@_W@__crt_stdio_output@@V?$positional_parameter_base@_WV?$string_output_adapter@_W@__crt_stdio_output@@@2@@__crt_stdio_output@@AAE_N_N@Z 10097ba0 f i libucrtd:output.obj
 0001:00096fe0       ??$type_case_integer@$0BA@@?$output_processor@_WV?$string_output_adapter@_W@__crt_stdio_output@@V?$standard_base@_WV?$string_output_adapter@_W@__crt_stdio_output@@@2@@__crt_stdio_output@@AAE_N_N@Z 10097fe0 f i libucrtd:output.obj
 0001:00097420       ??$type_case_integer_parse_into_buffer@I$07@?$output_processor@DV?$stream_output_adapter@D@__crt_stdio_output@@V?$format_validation_base@DV?$stream_output_adapter@D@__crt_stdio_output@@@2@@__crt_stdio_output@@AAEXI_N@Z 10098420 f i libucrtd:output.obj
 0001:00097530       ??$type_case_integer_parse_into_buffer@I$07@?$output_processor@DV?$stream_output_adapter@D@__crt_stdio_output@@V?$positional_parameter_base@DV?$stream_output_adapter@D@__crt_stdio_output@@@2@@__crt_stdio_output@@AAEXI_N@Z 10098530 f i libucrtd:output.obj
 0001:00097640       ??$type_case_integer_parse_into_buffer@I$07@?$output_processor@DV?$stream_output_adapter@D@__crt_stdio_output@@V?$standard_base@DV?$stream_output_adapter@D@__crt_stdio_output@@@2@@__crt_stdio_output@@AAEXI_N@Z 10098640 f i libucrtd:output.obj
 0001:00097750       ??$type_case_integer_parse_into_buffer@I$07@?$output_processor@DV?$string_output_adapter@D@__crt_stdio_output@@V?$format_validation_base@DV?$string_output_adapter@D@__crt_stdio_output@@@2@@__crt_stdio_output@@AAEXI_N@Z 10098750 f i libucrtd:output.obj
 0001:00097860       ??$type_case_integer_parse_into_buffer@I$07@?$output_processor@DV?$string_output_adapter@D@__crt_stdio_output@@V?$positional_parameter_base@DV?$string_output_adapter@D@__crt_stdio_output@@@2@@__crt_stdio_output@@AAEXI_N@Z 10098860 f i libucrtd:output.obj
 0001:00097970       ??$type_case_integer_parse_into_buffer@I$07@?$output_processor@DV?$string_output_adapter@D@__crt_stdio_output@@V?$standard_base@DV?$string_output_adapter@D@__crt_stdio_output@@@2@@__crt_stdio_output@@AAEXI_N@Z 10098970 f i libucrtd:output.obj
 0001:00097a80       ??$type_case_integer_parse_into_buffer@I$07@?$output_processor@_WV?$stream_output_adapter@_W@__crt_stdio_output@@V?$format_validation_base@_WV?$stream_output_adapter@_W@__crt_stdio_output@@@2@@__crt_stdio_output@@AAEXI_N@Z 10098a80 f i libucrtd:output.obj
 0001:00097b90       ??$type_case_integer_parse_into_buffer@I$07@?$output_processor@_WV?$stream_output_adapter@_W@__crt_stdio_output@@V?$positional_parameter_base@_WV?$stream_output_adapter@_W@__crt_stdio_output@@@2@@__crt_stdio_output@@AAEXI_N@Z 10098b90 f i libucrtd:output.obj
 0001:00097ca0       ??$type_case_integer_parse_into_buffer@I$07@?$output_processor@_WV?$stream_output_adapter@_W@__crt_stdio_output@@V?$standard_base@_WV?$stream_output_adapter@_W@__crt_stdio_output@@@2@@__crt_stdio_output@@AAEXI_N@Z 10098ca0 f i libucrtd:output.obj
 0001:00097db0       ??$type_case_integer_parse_into_buffer@I$07@?$output_processor@_WV?$string_output_adapter@_W@__crt_stdio_output@@V?$format_validation_base@_WV?$string_output_adapter@_W@__crt_stdio_output@@@2@@__crt_stdio_output@@AAEXI_N@Z 10098db0 f i libucrtd:output.obj
 0001:00097ec0       ??$type_case_integer_parse_into_buffer@I$07@?$output_processor@_WV?$string_output_adapter@_W@__crt_stdio_output@@V?$positional_parameter_base@_WV?$string_output_adapter@_W@__crt_stdio_output@@@2@@__crt_stdio_output@@AAEXI_N@Z 10098ec0 f i libucrtd:output.obj
 0001:00097fd0       ??$type_case_integer_parse_into_buffer@I$07@?$output_processor@_WV?$string_output_adapter@_W@__crt_stdio_output@@V?$standard_base@_WV?$string_output_adapter@_W@__crt_stdio_output@@@2@@__crt_stdio_output@@AAEXI_N@Z 10098fd0 f i libucrtd:output.obj
 0001:000980e0       ??$type_case_integer_parse_into_buffer@I$09@?$output_processor@DV?$stream_output_adapter@D@__crt_stdio_output@@V?$format_validation_base@DV?$stream_output_adapter@D@__crt_stdio_output@@@2@@__crt_stdio_output@@AAEXI_N@Z 100990e0 f i libucrtd:output.obj
 0001:000981f0       ??$type_case_integer_parse_into_buffer@I$09@?$output_processor@DV?$stream_output_adapter@D@__crt_stdio_output@@V?$positional_parameter_base@DV?$stream_output_adapter@D@__crt_stdio_output@@@2@@__crt_stdio_output@@AAEXI_N@Z 100991f0 f i libucrtd:output.obj
 0001:00098300       ??$type_case_integer_parse_into_buffer@I$09@?$output_processor@DV?$stream_output_adapter@D@__crt_stdio_output@@V?$standard_base@DV?$stream_output_adapter@D@__crt_stdio_output@@@2@@__crt_stdio_output@@AAEXI_N@Z 10099300 f i libucrtd:output.obj
 0001:00098410       ??$type_case_integer_parse_into_buffer@I$09@?$output_processor@DV?$string_output_adapter@D@__crt_stdio_output@@V?$format_validation_base@DV?$string_output_adapter@D@__crt_stdio_output@@@2@@__crt_stdio_output@@AAEXI_N@Z 10099410 f i libucrtd:output.obj
 0001:00098520       ??$type_case_integer_parse_into_buffer@I$09@?$output_processor@DV?$string_output_adapter@D@__crt_stdio_output@@V?$positional_parameter_base@DV?$string_output_adapter@D@__crt_stdio_output@@@2@@__crt_stdio_output@@AAEXI_N@Z 10099520 f i libucrtd:output.obj
 0001:00098630       ??$type_case_integer_parse_into_buffer@I$09@?$output_processor@DV?$string_output_adapter@D@__crt_stdio_output@@V?$standard_base@DV?$string_output_adapter@D@__crt_stdio_output@@@2@@__crt_stdio_output@@AAEXI_N@Z 10099630 f i libucrtd:output.obj
 0001:00098740       ??$type_case_integer_parse_into_buffer@I$09@?$output_processor@_WV?$stream_output_adapter@_W@__crt_stdio_output@@V?$format_validation_base@_WV?$stream_output_adapter@_W@__crt_stdio_output@@@2@@__crt_stdio_output@@AAEXI_N@Z 10099740 f i libucrtd:output.obj
 0001:00098860       ??$type_case_integer_parse_into_buffer@I$09@?$output_processor@_WV?$stream_output_adapter@_W@__crt_stdio_output@@V?$positional_parameter_base@_WV?$stream_output_adapter@_W@__crt_stdio_output@@@2@@__crt_stdio_output@@AAEXI_N@Z 10099860 f i libucrtd:output.obj
 0001:00098980       ??$type_case_integer_parse_into_buffer@I$09@?$output_processor@_WV?$stream_output_adapter@_W@__crt_stdio_output@@V?$standard_base@_WV?$stream_output_adapter@_W@__crt_stdio_output@@@2@@__crt_stdio_output@@AAEXI_N@Z 10099980 f i libucrtd:output.obj
 0001:00098aa0       ??$type_case_integer_parse_into_buffer@I$09@?$output_processor@_WV?$string_output_adapter@_W@__crt_stdio_output@@V?$format_validation_base@_WV?$string_output_adapter@_W@__crt_stdio_output@@@2@@__crt_stdio_output@@AAEXI_N@Z 10099aa0 f i libucrtd:output.obj
 0001:00098bc0       ??$type_case_integer_parse_into_buffer@I$09@?$output_processor@_WV?$string_output_adapter@_W@__crt_stdio_output@@V?$positional_parameter_base@_WV?$string_output_adapter@_W@__crt_stdio_output@@@2@@__crt_stdio_output@@AAEXI_N@Z 10099bc0 f i libucrtd:output.obj
 0001:00098ce0       ??$type_case_integer_parse_into_buffer@I$09@?$output_processor@_WV?$string_output_adapter@_W@__crt_stdio_output@@V?$standard_base@_WV?$string_output_adapter@_W@__crt_stdio_output@@@2@@__crt_stdio_output@@AAEXI_N@Z 10099ce0 f i libucrtd:output.obj
 0001:00098e00       ??$type_case_integer_parse_into_buffer@I$0BA@@?$output_processor@DV?$stream_output_adapter@D@__crt_stdio_output@@V?$format_validation_base@DV?$stream_output_adapter@D@__crt_stdio_output@@@2@@__crt_stdio_output@@AAEXI_N@Z 10099e00 f i libucrtd:output.obj
 0001:00098f10       ??$type_case_integer_parse_into_buffer@I$0BA@@?$output_processor@DV?$stream_output_adapter@D@__crt_stdio_output@@V?$positional_parameter_base@DV?$stream_output_adapter@D@__crt_stdio_output@@@2@@__crt_stdio_output@@AAEXI_N@Z 10099f10 f i libucrtd:output.obj
 0001:00099020       ??$type_case_integer_parse_into_buffer@I$0BA@@?$output_processor@DV?$stream_output_adapter@D@__crt_stdio_output@@V?$standard_base@DV?$stream_output_adapter@D@__crt_stdio_output@@@2@@__crt_stdio_output@@AAEXI_N@Z 1009a020 f i libucrtd:output.obj
 0001:00099130       ??$type_case_integer_parse_into_buffer@I$0BA@@?$output_processor@DV?$string_output_adapter@D@__crt_stdio_output@@V?$format_validation_base@DV?$string_output_adapter@D@__crt_stdio_output@@@2@@__crt_stdio_output@@AAEXI_N@Z 1009a130 f i libucrtd:output.obj
 0001:00099240       ??$type_case_integer_parse_into_buffer@I$0BA@@?$output_processor@DV?$string_output_adapter@D@__crt_stdio_output@@V?$positional_parameter_base@DV?$string_output_adapter@D@__crt_stdio_output@@@2@@__crt_stdio_output@@AAEXI_N@Z 1009a240 f i libucrtd:output.obj
 0001:00099350       ??$type_case_integer_parse_into_buffer@I$0BA@@?$output_processor@DV?$string_output_adapter@D@__crt_stdio_output@@V?$standard_base@DV?$string_output_adapter@D@__crt_stdio_output@@@2@@__crt_stdio_output@@AAEXI_N@Z 1009a350 f i libucrtd:output.obj
 0001:00099460       ??$type_case_integer_parse_into_buffer@I$0BA@@?$output_processor@_WV?$stream_output_adapter@_W@__crt_stdio_output@@V?$format_validation_base@_WV?$stream_output_adapter@_W@__crt_stdio_output@@@2@@__crt_stdio_output@@AAEXI_N@Z 1009a460 f i libucrtd:output.obj
 0001:00099570       ??$type_case_integer_parse_into_buffer@I$0BA@@?$output_processor@_WV?$stream_output_adapter@_W@__crt_stdio_output@@V?$positional_parameter_base@_WV?$stream_output_adapter@_W@__crt_stdio_output@@@2@@__crt_stdio_output@@AAEXI_N@Z 1009a570 f i libucrtd:output.obj
 0001:00099680       ??$type_case_integer_parse_into_buffer@I$0BA@@?$output_processor@_WV?$stream_output_adapter@_W@__crt_stdio_output@@V?$standard_base@_WV?$stream_output_adapter@_W@__crt_stdio_output@@@2@@__crt_stdio_output@@AAEXI_N@Z 1009a680 f i libucrtd:output.obj
 0001:00099790       ??$type_case_integer_parse_into_buffer@I$0BA@@?$output_processor@_WV?$string_output_adapter@_W@__crt_stdio_output@@V?$format_validation_base@_WV?$string_output_adapter@_W@__crt_stdio_output@@@2@@__crt_stdio_output@@AAEXI_N@Z 1009a790 f i libucrtd:output.obj
 0001:000998a0       ??$type_case_integer_parse_into_buffer@I$0BA@@?$output_processor@_WV?$string_output_adapter@_W@__crt_stdio_output@@V?$positional_parameter_base@_WV?$string_output_adapter@_W@__crt_stdio_output@@@2@@__crt_stdio_output@@AAEXI_N@Z 1009a8a0 f i libucrtd:output.obj
 0001:000999b0       ??$type_case_integer_parse_into_buffer@I$0BA@@?$output_processor@_WV?$string_output_adapter@_W@__crt_stdio_output@@V?$standard_base@_WV?$string_output_adapter@_W@__crt_stdio_output@@@2@@__crt_stdio_output@@AAEXI_N@Z 1009a9b0 f i libucrtd:output.obj
 0001:00099ac0       ??$type_case_integer_parse_into_buffer@_K$07@?$output_processor@DV?$stream_output_adapter@D@__crt_stdio_output@@V?$format_validation_base@DV?$stream_output_adapter@D@__crt_stdio_output@@@2@@__crt_stdio_output@@AAEX_K_N@Z 1009aac0 f i libucrtd:output.obj
 0001:00099bf0       ??$type_case_integer_parse_into_buffer@_K$07@?$output_processor@DV?$stream_output_adapter@D@__crt_stdio_output@@V?$positional_parameter_base@DV?$stream_output_adapter@D@__crt_stdio_output@@@2@@__crt_stdio_output@@AAEX_K_N@Z 1009abf0 f i libucrtd:output.obj
 0001:00099d20       ??$type_case_integer_parse_into_buffer@_K$07@?$output_processor@DV?$stream_output_adapter@D@__crt_stdio_output@@V?$standard_base@DV?$stream_output_adapter@D@__crt_stdio_output@@@2@@__crt_stdio_output@@AAEX_K_N@Z 1009ad20 f i libucrtd:output.obj
 0001:00099e50       ??$type_case_integer_parse_into_buffer@_K$07@?$output_processor@DV?$string_output_adapter@D@__crt_stdio_output@@V?$format_validation_base@DV?$string_output_adapter@D@__crt_stdio_output@@@2@@__crt_stdio_output@@AAEX_K_N@Z 1009ae50 f i libucrtd:output.obj
 0001:00099f80       ??$type_case_integer_parse_into_buffer@_K$07@?$output_processor@DV?$string_output_adapter@D@__crt_stdio_output@@V?$positional_parameter_base@DV?$string_output_adapter@D@__crt_stdio_output@@@2@@__crt_stdio_output@@AAEX_K_N@Z 1009af80 f i libucrtd:output.obj
 0001:0009a0b0       ??$type_case_integer_parse_into_buffer@_K$07@?$output_processor@DV?$string_output_adapter@D@__crt_stdio_output@@V?$standard_base@DV?$string_output_adapter@D@__crt_stdio_output@@@2@@__crt_stdio_output@@AAEX_K_N@Z 1009b0b0 f i libucrtd:output.obj
 0001:0009a1e0       ??$type_case_integer_parse_into_buffer@_K$07@?$output_processor@_WV?$stream_output_adapter@_W@__crt_stdio_output@@V?$format_validation_base@_WV?$stream_output_adapter@_W@__crt_stdio_output@@@2@@__crt_stdio_output@@AAEX_K_N@Z 1009b1e0 f i libucrtd:output.obj
 0001:0009a310       ??$type_case_integer_parse_into_buffer@_K$07@?$output_processor@_WV?$stream_output_adapter@_W@__crt_stdio_output@@V?$positional_parameter_base@_WV?$stream_output_adapter@_W@__crt_stdio_output@@@2@@__crt_stdio_output@@AAEX_K_N@Z 1009b310 f i libucrtd:output.obj
 0001:0009a440       ??$type_case_integer_parse_into_buffer@_K$07@?$output_processor@_WV?$stream_output_adapter@_W@__crt_stdio_output@@V?$standard_base@_WV?$stream_output_adapter@_W@__crt_stdio_output@@@2@@__crt_stdio_output@@AAEX_K_N@Z 1009b440 f i libucrtd:output.obj
 0001:0009a570       ??$type_case_integer_parse_into_buffer@_K$07@?$output_processor@_WV?$string_output_adapter@_W@__crt_stdio_output@@V?$format_validation_base@_WV?$string_output_adapter@_W@__crt_stdio_output@@@2@@__crt_stdio_output@@AAEX_K_N@Z 1009b570 f i libucrtd:output.obj
 0001:0009a6a0       ??$type_case_integer_parse_into_buffer@_K$07@?$output_processor@_WV?$string_output_adapter@_W@__crt_stdio_output@@V?$positional_parameter_base@_WV?$string_output_adapter@_W@__crt_stdio_output@@@2@@__crt_stdio_output@@AAEX_K_N@Z 1009b6a0 f i libucrtd:output.obj
 0001:0009a7d0       ??$type_case_integer_parse_into_buffer@_K$07@?$output_processor@_WV?$string_output_adapter@_W@__crt_stdio_output@@V?$standard_base@_WV?$string_output_adapter@_W@__crt_stdio_output@@@2@@__crt_stdio_output@@AAEX_K_N@Z 1009b7d0 f i libucrtd:output.obj
 0001:0009a900       ??$type_case_integer_parse_into_buffer@_K$09@?$output_processor@DV?$stream_output_adapter@D@__crt_stdio_output@@V?$format_validation_base@DV?$stream_output_adapter@D@__crt_stdio_output@@@2@@__crt_stdio_output@@AAEX_K_N@Z 1009b900 f i libucrtd:output.obj
 0001:0009aa30       ??$type_case_integer_parse_into_buffer@_K$09@?$output_processor@DV?$stream_output_adapter@D@__crt_stdio_output@@V?$positional_parameter_base@DV?$stream_output_adapter@D@__crt_stdio_output@@@2@@__crt_stdio_output@@AAEX_K_N@Z 1009ba30 f i libucrtd:output.obj
 0001:0009ab60       ??$type_case_integer_parse_into_buffer@_K$09@?$output_processor@DV?$stream_output_adapter@D@__crt_stdio_output@@V?$standard_base@DV?$stream_output_adapter@D@__crt_stdio_output@@@2@@__crt_stdio_output@@AAEX_K_N@Z 1009bb60 f i libucrtd:output.obj
 0001:0009ac90       ??$type_case_integer_parse_into_buffer@_K$09@?$output_processor@DV?$string_output_adapter@D@__crt_stdio_output@@V?$format_validation_base@DV?$string_output_adapter@D@__crt_stdio_output@@@2@@__crt_stdio_output@@AAEX_K_N@Z 1009bc90 f i libucrtd:output.obj
 0001:0009adc0       ??$type_case_integer_parse_into_buffer@_K$09@?$output_processor@DV?$string_output_adapter@D@__crt_stdio_output@@V?$positional_parameter_base@DV?$string_output_adapter@D@__crt_stdio_output@@@2@@__crt_stdio_output@@AAEX_K_N@Z 1009bdc0 f i libucrtd:output.obj
 0001:0009aef0       ??$type_case_integer_parse_into_buffer@_K$09@?$output_processor@DV?$string_output_adapter@D@__crt_stdio_output@@V?$standard_base@DV?$string_output_adapter@D@__crt_stdio_output@@@2@@__crt_stdio_output@@AAEX_K_N@Z 1009bef0 f i libucrtd:output.obj
 0001:0009b020       ??$type_case_integer_parse_into_buffer@_K$09@?$output_processor@_WV?$stream_output_adapter@_W@__crt_stdio_output@@V?$format_validation_base@_WV?$stream_output_adapter@_W@__crt_stdio_output@@@2@@__crt_stdio_output@@AAEX_K_N@Z 1009c020 f i libucrtd:output.obj
 0001:0009b150       ??$type_case_integer_parse_into_buffer@_K$09@?$output_processor@_WV?$stream_output_adapter@_W@__crt_stdio_output@@V?$positional_parameter_base@_WV?$stream_output_adapter@_W@__crt_stdio_output@@@2@@__crt_stdio_output@@AAEX_K_N@Z 1009c150 f i libucrtd:output.obj
 0001:0009b280       ??$type_case_integer_parse_into_buffer@_K$09@?$output_processor@_WV?$stream_output_adapter@_W@__crt_stdio_output@@V?$standard_base@_WV?$stream_output_adapter@_W@__crt_stdio_output@@@2@@__crt_stdio_output@@AAEX_K_N@Z 1009c280 f i libucrtd:output.obj
 0001:0009b3b0       ??$type_case_integer_parse_into_buffer@_K$09@?$output_processor@_WV?$string_output_adapter@_W@__crt_stdio_output@@V?$format_validation_base@_WV?$string_output_adapter@_W@__crt_stdio_output@@@2@@__crt_stdio_output@@AAEX_K_N@Z 1009c3b0 f i libucrtd:output.obj
 0001:0009b4e0       ??$type_case_integer_parse_into_buffer@_K$09@?$output_processor@_WV?$string_output_adapter@_W@__crt_stdio_output@@V?$positional_parameter_base@_WV?$string_output_adapter@_W@__crt_stdio_output@@@2@@__crt_stdio_output@@AAEX_K_N@Z 1009c4e0 f i libucrtd:output.obj
 0001:0009b610       ??$type_case_integer_parse_into_buffer@_K$09@?$output_processor@_WV?$string_output_adapter@_W@__crt_stdio_output@@V?$standard_base@_WV?$string_output_adapter@_W@__crt_stdio_output@@@2@@__crt_stdio_output@@AAEX_K_N@Z 1009c610 f i libucrtd:output.obj
 0001:0009b740       ??$type_case_integer_parse_into_buffer@_K$0BA@@?$output_processor@DV?$stream_output_adapter@D@__crt_stdio_output@@V?$format_validation_base@DV?$stream_output_adapter@D@__crt_stdio_output@@@2@@__crt_stdio_output@@AAEX_K_N@Z 1009c740 f i libucrtd:output.obj
 0001:0009b870       ??$type_case_integer_parse_into_buffer@_K$0BA@@?$output_processor@DV?$stream_output_adapter@D@__crt_stdio_output@@V?$positional_parameter_base@DV?$stream_output_adapter@D@__crt_stdio_output@@@2@@__crt_stdio_output@@AAEX_K_N@Z 1009c870 f i libucrtd:output.obj
 0001:0009b9a0       ??$type_case_integer_parse_into_buffer@_K$0BA@@?$output_processor@DV?$stream_output_adapter@D@__crt_stdio_output@@V?$standard_base@DV?$stream_output_adapter@D@__crt_stdio_output@@@2@@__crt_stdio_output@@AAEX_K_N@Z 1009c9a0 f i libucrtd:output.obj
 0001:0009bad0       ??$type_case_integer_parse_into_buffer@_K$0BA@@?$output_processor@DV?$string_output_adapter@D@__crt_stdio_output@@V?$format_validation_base@DV?$string_output_adapter@D@__crt_stdio_output@@@2@@__crt_stdio_output@@AAEX_K_N@Z 1009cad0 f i libucrtd:output.obj
 0001:0009bc00       ??$type_case_integer_parse_into_buffer@_K$0BA@@?$output_processor@DV?$string_output_adapter@D@__crt_stdio_output@@V?$positional_parameter_base@DV?$string_output_adapter@D@__crt_stdio_output@@@2@@__crt_stdio_output@@AAEX_K_N@Z 1009cc00 f i libucrtd:output.obj
 0001:0009bd30       ??$type_case_integer_parse_into_buffer@_K$0BA@@?$output_processor@DV?$string_output_adapter@D@__crt_stdio_output@@V?$standard_base@DV?$string_output_adapter@D@__crt_stdio_output@@@2@@__crt_stdio_output@@AAEX_K_N@Z 1009cd30 f i libucrtd:output.obj
 0001:0009be60       ??$type_case_integer_parse_into_buffer@_K$0BA@@?$output_processor@_WV?$stream_output_adapter@_W@__crt_stdio_output@@V?$format_validation_base@_WV?$stream_output_adapter@_W@__crt_stdio_output@@@2@@__crt_stdio_output@@AAEX_K_N@Z 1009ce60 f i libucrtd:output.obj
 0001:0009bf90       ??$type_case_integer_parse_into_buffer@_K$0BA@@?$output_processor@_WV?$stream_output_adapter@_W@__crt_stdio_output@@V?$positional_parameter_base@_WV?$stream_output_adapter@_W@__crt_stdio_output@@@2@@__crt_stdio_output@@AAEX_K_N@Z 1009cf90 f i libucrtd:output.obj
 0001:0009c0c0       ??$type_case_integer_parse_into_buffer@_K$0BA@@?$output_processor@_WV?$stream_output_adapter@_W@__crt_stdio_output@@V?$standard_base@_WV?$stream_output_adapter@_W@__crt_stdio_output@@@2@@__crt_stdio_output@@AAEX_K_N@Z 1009d0c0 f i libucrtd:output.obj
 0001:0009c1f0       ??$type_case_integer_parse_into_buffer@_K$0BA@@?$output_processor@_WV?$string_output_adapter@_W@__crt_stdio_output@@V?$format_validation_base@_WV?$string_output_adapter@_W@__crt_stdio_output@@@2@@__crt_stdio_output@@AAEX_K_N@Z 1009d1f0 f i libucrtd:output.obj
 0001:0009c320       ??$type_case_integer_parse_into_buffer@_K$0BA@@?$output_processor@_WV?$string_output_adapter@_W@__crt_stdio_output@@V?$positional_parameter_base@_WV?$string_output_adapter@_W@__crt_stdio_output@@@2@@__crt_stdio_output@@AAEX_K_N@Z 1009d320 f i libucrtd:output.obj
 0001:0009c450       ??$type_case_integer_parse_into_buffer@_K$0BA@@?$output_processor@_WV?$string_output_adapter@_W@__crt_stdio_output@@V?$standard_base@_WV?$string_output_adapter@_W@__crt_stdio_output@@@2@@__crt_stdio_output@@AAEX_K_N@Z 1009d450 f i libucrtd:output.obj
 0001:0009c580       ??$write_multiple_characters@V?$stream_output_adapter@D@__crt_stdio_output@@D@__crt_stdio_output@@YAXABV?$stream_output_adapter@D@0@DHQAHAAV__crt_cached_ptd_host@@@Z 1009d580 f i libucrtd:output.obj
 0001:0009c5e0       ??$write_multiple_characters@V?$stream_output_adapter@_W@__crt_stdio_output@@D@__crt_stdio_output@@YAXABV?$stream_output_adapter@_W@0@DHQAHAAV__crt_cached_ptd_host@@@Z 1009d5e0 f i libucrtd:output.obj
 0001:0009c640       ??$write_multiple_characters@V?$string_output_adapter@D@__crt_stdio_output@@D@__crt_stdio_output@@YAXABV?$string_output_adapter@D@0@DHQAHAAV__crt_cached_ptd_host@@@Z 1009d640 f i libucrtd:output.obj
 0001:0009c6a0       ??$write_multiple_characters@V?$string_output_adapter@_W@__crt_stdio_output@@D@__crt_stdio_output@@YAXABV?$string_output_adapter@_W@0@DHQAHAAV__crt_cached_ptd_host@@@Z 1009d6a0 f i libucrtd:output.obj
 0001:0009cb20       ??0?$c_string_character_source@D@__crt_strtox@@QAE@QBDQAPBD@Z 1009db20 f i libucrtd:output.obj
 0001:0009cb60       ??0?$c_string_character_source@_W@__crt_strtox@@QAE@QB_WQAPB_W@Z 1009db60 f i libucrtd:output.obj
 0001:0009cba0       ??0?$cached@H@__crt_cached_ptd_host@@QAE@XZ 1009dba0 f i libucrtd:output.obj
 0001:0009cbc0       ??0?$cached@K@__crt_cached_ptd_host@@QAE@XZ 1009dbc0 f i libucrtd:output.obj
 0001:0009cbe0       ??0?$common_data@D@__crt_stdio_output@@IAE@AAV__crt_cached_ptd_host@@@Z 1009dbe0 f i libucrtd:output.obj
 0001:0009cca0       ??0?$common_data@_W@__crt_stdio_output@@IAE@AAV__crt_cached_ptd_host@@@Z 1009dca0 f i libucrtd:output.obj
 0001:0009cd60       ??0?$output_adapter_data@DV?$stream_output_adapter@D@__crt_stdio_output@@@__crt_stdio_output@@IAE@ABV?$stream_output_adapter@D@1@_KQBDAAV__crt_cached_ptd_host@@QAD@Z 1009dd60 f i libucrtd:output.obj
 0001:0009ce00       ??0?$output_adapter_data@DV?$string_output_adapter@D@__crt_stdio_output@@@__crt_stdio_output@@IAE@ABV?$string_output_adapter@D@1@_KQBDAAV__crt_cached_ptd_host@@QAD@Z 1009de00 f i libucrtd:output.obj
 0001:0009cea0       ??0?$output_adapter_data@_WV?$stream_output_adapter@_W@__crt_stdio_output@@@__crt_stdio_output@@IAE@ABV?$stream_output_adapter@_W@1@_KQB_WAAV__crt_cached_ptd_host@@QAD@Z 1009dea0 f i libucrtd:output.obj
 0001:0009cf40       ??0?$output_adapter_data@_WV?$string_output_adapter@_W@__crt_stdio_output@@@__crt_stdio_output@@IAE@ABV?$string_output_adapter@_W@1@_KQB_WAAV__crt_cached_ptd_host@@QAD@Z 1009df40 f i libucrtd:output.obj
 0001:0009cfe0       ??0?$output_processor@DV?$stream_output_adapter@D@__crt_stdio_output@@V?$format_validation_base@DV?$stream_output_adapter@D@__crt_stdio_output@@@2@@__crt_stdio_output@@QAE@ABV?$stream_output_adapter@D@1@_KQBDAAV__crt_cached_ptd_host@@QAD@Z 1009dfe0 f i libucrtd:output.obj
 0001:0009d020       ??0?$output_processor@DV?$stream_output_adapter@D@__crt_stdio_output@@V?$positional_parameter_base@DV?$stream_output_adapter@D@__crt_stdio_output@@@2@@__crt_stdio_output@@QAE@ABV?$stream_output_adapter@D@1@_KQBDAAV__crt_cached_ptd_host@@QAD@Z 1009e020 f i libucrtd:output.obj
 0001:0009d060       ??0?$output_processor@DV?$stream_output_adapter@D@__crt_stdio_output@@V?$standard_base@DV?$stream_output_adapter@D@__crt_stdio_output@@@2@@__crt_stdio_output@@QAE@ABV?$stream_output_adapter@D@1@_KQBDAAV__crt_cached_ptd_host@@QAD@Z 1009e060 f i libucrtd:output.obj
 0001:0009d0a0       ??0?$output_processor@DV?$string_output_adapter@D@__crt_stdio_output@@V?$format_validation_base@DV?$string_output_adapter@D@__crt_stdio_output@@@2@@__crt_stdio_output@@QAE@ABV?$string_output_adapter@D@1@_KQBDAAV__crt_cached_ptd_host@@QAD@Z 1009e0a0 f i libucrtd:output.obj
 0001:0009d0e0       ??0?$output_processor@DV?$string_output_adapter@D@__crt_stdio_output@@V?$positional_parameter_base@DV?$string_output_adapter@D@__crt_stdio_output@@@2@@__crt_stdio_output@@QAE@ABV?$string_output_adapter@D@1@_KQBDAAV__crt_cached_ptd_host@@QAD@Z 1009e0e0 f i libucrtd:output.obj
 0001:0009d120       ??0?$output_processor@DV?$string_output_adapter@D@__crt_stdio_output@@V?$standard_base@DV?$string_output_adapter@D@__crt_stdio_output@@@2@@__crt_stdio_output@@QAE@ABV?$string_output_adapter@D@1@_KQBDAAV__crt_cached_ptd_host@@QAD@Z 1009e120 f i libucrtd:output.obj
 0001:0009d160       ??0?$output_processor@_WV?$stream_output_adapter@_W@__crt_stdio_output@@V?$format_validation_base@_WV?$stream_output_adapter@_W@__crt_stdio_output@@@2@@__crt_stdio_output@@QAE@ABV?$stream_output_adapter@_W@1@_KQB_WAAV__crt_cached_ptd_host@@QAD@Z 1009e160 f i libucrtd:output.obj
 0001:0009d1a0       ??0?$output_processor@_WV?$stream_output_adapter@_W@__crt_stdio_output@@V?$positional_parameter_base@_WV?$stream_output_adapter@_W@__crt_stdio_output@@@2@@__crt_stdio_output@@QAE@ABV?$stream_output_adapter@_W@1@_KQB_WAAV__crt_cached_ptd_host@@QAD@Z 1009e1a0 f i libucrtd:output.obj
 0001:0009d1e0       ??0?$output_processor@_WV?$stream_output_adapter@_W@__crt_stdio_output@@V?$standard_base@_WV?$stream_output_adapter@_W@__crt_stdio_output@@@2@@__crt_stdio_output@@QAE@ABV?$stream_output_adapter@_W@1@_KQB_WAAV__crt_cached_ptd_host@@QAD@Z 1009e1e0 f i libucrtd:output.obj
 0001:0009d220       ??0?$output_processor@_WV?$string_output_adapter@_W@__crt_stdio_output@@V?$format_validation_base@_WV?$string_output_adapter@_W@__crt_stdio_output@@@2@@__crt_stdio_output@@QAE@ABV?$string_output_adapter@_W@1@_KQB_WAAV__crt_cached_ptd_host@@QAD@Z 1009e220 f i libucrtd:output.obj
 0001:0009d260       ??0?$output_processor@_WV?$string_output_adapter@_W@__crt_stdio_output@@V?$positional_parameter_base@_WV?$string_output_adapter@_W@__crt_stdio_output@@@2@@__crt_stdio_output@@QAE@ABV?$string_output_adapter@_W@1@_KQB_WAAV__crt_cached_ptd_host@@QAD@Z 1009e260 f i libucrtd:output.obj
 0001:0009d2a0       ??0?$output_processor@_WV?$string_output_adapter@_W@__crt_stdio_output@@V?$standard_base@_WV?$string_output_adapter@_W@__crt_stdio_output@@@2@@__crt_stdio_output@@QAE@ABV?$string_output_adapter@_W@1@_KQB_WAAV__crt_cached_ptd_host@@QAD@Z 1009e2a0 f i libucrtd:output.obj
 0001:0009d2e0       ??0?$stream_output_adapter@D@__crt_stdio_output@@QAE@QAU_iobuf@@@Z 1009e2e0 f i libucrtd:output.obj
 0001:0009d310       ??0?$stream_output_adapter@_W@__crt_stdio_output@@QAE@QAU_iobuf@@@Z 1009e310 f i libucrtd:output.obj
 0001:0009d340       ??0?$string_output_adapter@D@__crt_stdio_output@@QAE@QAU?$string_output_adapter_context@D@1@@Z 1009e340 f i libucrtd:output.obj
 0001:0009d360       ??0?$string_output_adapter@_W@__crt_stdio_output@@QAE@QAU?$string_output_adapter_context@_W@1@@Z 1009e360 f i libucrtd:output.obj
 0001:0009d380       ??0__acrt_stdio_temporary_buffering_guard@@QAE@QAU_iobuf@@AAV__crt_cached_ptd_host@@@Z 1009e380 f i libucrtd:output.obj
 0001:0009d3d0       ??0__crt_cached_ptd_host@@QAE@QAU__crt_locale_pointers@@@Z 1009e3d0 f i libucrtd:output.obj
 0001:0009d480       ??0__crt_scoped_get_last_error_reset@@QAE@XZ 1009e480 f i libucrtd:output.obj
 0001:0009d4b0       ??0__crt_stdio_stream@@QAE@QAU_iobuf@@@Z 1009e4b0 f i libucrtd:output.obj
 0001:0009d4d0       ??0formatting_buffer@__crt_stdio_output@@QAE@XZ 1009e4d0 f i libucrtd:output.obj
 0001:0009d520       ??0guard@?$cached@H@__crt_cached_ptd_host@@QAE@AAU12@@Z 1009e520 f i libucrtd:output.obj
 0001:0009d560       ??1?$c_string_character_source@D@__crt_strtox@@QAE@XZ 1009e560 f i libucrtd:output.obj
 0001:0009d590       ??1?$c_string_character_source@_W@__crt_strtox@@QAE@XZ 1009e590 f i libucrtd:output.obj
 0001:0009d5c0       ??1?$common_data@D@__crt_stdio_output@@QAE@XZ 1009e5c0 f i libucrtd:output.obj
 0001:0009d5e0       ??1?$common_data@_W@__crt_stdio_output@@QAE@XZ 1009e5e0 f i libucrtd:output.obj
 0001:0009d600       ??1?$format_validation_base@DV?$stream_output_adapter@D@__crt_stdio_output@@@__crt_stdio_output@@QAE@XZ 1009e600 f i libucrtd:output.obj
 0001:0009d620       ??1?$format_validation_base@DV?$string_output_adapter@D@__crt_stdio_output@@@__crt_stdio_output@@QAE@XZ 1009e620 f i libucrtd:output.obj
 0001:0009d640       ??1?$format_validation_base@_WV?$stream_output_adapter@_W@__crt_stdio_output@@@__crt_stdio_output@@QAE@XZ 1009e640 f i libucrtd:output.obj
 0001:0009d660       ??1?$format_validation_base@_WV?$string_output_adapter@_W@__crt_stdio_output@@@__crt_stdio_output@@QAE@XZ 1009e660 f i libucrtd:output.obj
 0001:0009d680       ??1?$output_adapter_data@DV?$stream_output_adapter@D@__crt_stdio_output@@@__crt_stdio_output@@QAE@XZ 1009e680 f i libucrtd:output.obj
 0001:0009d6a0       ??1?$output_adapter_data@DV?$string_output_adapter@D@__crt_stdio_output@@@__crt_stdio_output@@QAE@XZ 1009e6a0 f i libucrtd:output.obj
 0001:0009d6c0       ??1?$output_adapter_data@_WV?$stream_output_adapter@_W@__crt_stdio_output@@@__crt_stdio_output@@QAE@XZ 1009e6c0 f i libucrtd:output.obj
 0001:0009d6e0       ??1?$output_adapter_data@_WV?$string_output_adapter@_W@__crt_stdio_output@@@__crt_stdio_output@@QAE@XZ 1009e6e0 f i libucrtd:output.obj
 0001:0009d700       ??1?$output_processor@DV?$stream_output_adapter@D@__crt_stdio_output@@V?$format_validation_base@DV?$stream_output_adapter@D@__crt_stdio_output@@@2@@__crt_stdio_output@@QAE@XZ 1009e700 f i libucrtd:output.obj
 0001:0009d720       ??1?$output_processor@DV?$stream_output_adapter@D@__crt_stdio_output@@V?$positional_parameter_base@DV?$stream_output_adapter@D@__crt_stdio_output@@@2@@__crt_stdio_output@@QAE@XZ 1009e720 f i libucrtd:output.obj
 0001:0009d740       ??1?$output_processor@DV?$stream_output_adapter@D@__crt_stdio_output@@V?$standard_base@DV?$stream_output_adapter@D@__crt_stdio_output@@@2@@__crt_stdio_output@@QAE@XZ 1009e740 f i libucrtd:output.obj
 0001:0009d760       ??1?$output_processor@DV?$string_output_adapter@D@__crt_stdio_output@@V?$format_validation_base@DV?$string_output_adapter@D@__crt_stdio_output@@@2@@__crt_stdio_output@@QAE@XZ 1009e760 f i libucrtd:output.obj
 0001:0009d780       ??1?$output_processor@DV?$string_output_adapter@D@__crt_stdio_output@@V?$positional_parameter_base@DV?$string_output_adapter@D@__crt_stdio_output@@@2@@__crt_stdio_output@@QAE@XZ 1009e780 f i libucrtd:output.obj
 0001:0009d7a0       ??1?$output_processor@DV?$string_output_adapter@D@__crt_stdio_output@@V?$standard_base@DV?$string_output_adapter@D@__crt_stdio_output@@@2@@__crt_stdio_output@@QAE@XZ 1009e7a0 f i libucrtd:output.obj
 0001:0009d7c0       ??1?$output_processor@_WV?$stream_output_adapter@_W@__crt_stdio_output@@V?$format_validation_base@_WV?$stream_output_adapter@_W@__crt_stdio_output@@@2@@__crt_stdio_output@@QAE@XZ 1009e7c0 f i libucrtd:output.obj
 0001:0009d7e0       ??1?$output_processor@_WV?$stream_output_adapter@_W@__crt_stdio_output@@V?$positional_parameter_base@_WV?$stream_output_adapter@_W@__crt_stdio_output@@@2@@__crt_stdio_output@@QAE@XZ 1009e7e0 f i libucrtd:output.obj
 0001:0009d800       ??1?$output_processor@_WV?$stream_output_adapter@_W@__crt_stdio_output@@V?$standard_base@_WV?$stream_output_adapter@_W@__crt_stdio_output@@@2@@__crt_stdio_output@@QAE@XZ 1009e800 f i libucrtd:output.obj
 0001:0009d820       ??1?$output_processor@_WV?$string_output_adapter@_W@__crt_stdio_output@@V?$format_validation_base@_WV?$string_output_adapter@_W@__crt_stdio_output@@@2@@__crt_stdio_output@@QAE@XZ 1009e820 f i libucrtd:output.obj
 0001:0009d840       ??1?$output_processor@_WV?$string_output_adapter@_W@__crt_stdio_output@@V?$positional_parameter_base@_WV?$string_output_adapter@_W@__crt_stdio_output@@@2@@__crt_stdio_output@@QAE@XZ 1009e840 f i libucrtd:output.obj
 0001:0009d860       ??1?$output_processor@_WV?$string_output_adapter@_W@__crt_stdio_output@@V?$standard_base@_WV?$string_output_adapter@_W@__crt_stdio_output@@@2@@__crt_stdio_output@@QAE@XZ 1009e860 f i libucrtd:output.obj
 0001:0009d880       ??1?$positional_parameter_base@DV?$stream_output_adapter@D@__crt_stdio_output@@@__crt_stdio_output@@QAE@XZ 1009e880 f i libucrtd:output.obj
 0001:0009d8a0       ??1?$positional_parameter_base@DV?$string_output_adapter@D@__crt_stdio_output@@@__crt_stdio_output@@QAE@XZ 1009e8a0 f i libucrtd:output.obj
 0001:0009d8c0       ??1?$positional_parameter_base@_WV?$stream_output_adapter@_W@__crt_stdio_output@@@__crt_stdio_output@@QAE@XZ 1009e8c0 f i libucrtd:output.obj
 0001:0009d8e0       ??1?$positional_parameter_base@_WV?$string_output_adapter@_W@__crt_stdio_output@@@__crt_stdio_output@@QAE@XZ 1009e8e0 f i libucrtd:output.obj
 0001:0009d900       ??1?$standard_base@DV?$stream_output_adapter@D@__crt_stdio_output@@@__crt_stdio_output@@QAE@XZ 1009e900 f i libucrtd:output.obj
 0001:0009d920       ??1?$standard_base@DV?$string_output_adapter@D@__crt_stdio_output@@@__crt_stdio_output@@QAE@XZ 1009e920 f i libucrtd:output.obj
 0001:0009d940       ??1?$standard_base@_WV?$stream_output_adapter@_W@__crt_stdio_output@@@__crt_stdio_output@@QAE@XZ 1009e940 f i libucrtd:output.obj
 0001:0009d960       ??1?$standard_base@_WV?$string_output_adapter@_W@__crt_stdio_output@@@__crt_stdio_output@@QAE@XZ 1009e960 f i libucrtd:output.obj
 0001:0009d980       ??1__acrt_stdio_temporary_buffering_guard@@QAE@XZ 1009e980 f i libucrtd:output.obj
 0001:0009d9c0       ??1__crt_cached_ptd_host@@QAE@XZ 1009e9c0 f i libucrtd:output.obj
 0001:0009da70       ??1__crt_scoped_get_last_error_reset@@QAE@XZ 1009ea70 f i libucrtd:output.obj
 0001:0009da90       ??1formatting_buffer@__crt_stdio_output@@QAE@XZ 1009ea90 f i libucrtd:output.obj
 0001:0009dac0       ??1guard@?$cached@H@__crt_cached_ptd_host@@QAE@XZ 1009eac0 f i libucrtd:output.obj
 0001:0009db00       ??4?$__crt_unique_heap_ptr@DU__crt_internal_free_policy@@@@QAEAAV0@$$QAV0@@Z 1009eb00 f i libucrtd:output.obj
 0001:0009db40       ??A?$spectre_mitigated_lookup_table@Ustate_transition_pair@__crt_stdio_output@@$0IA@@__crt_stdio_output@@QBEABUstate_transition_pair@1@I@Z 1009eb40 f i libucrtd:output.obj
 0001:0009db70       ??C__crt_stdio_stream@@QBEPAU__crt_stdio_stream_data@@XZ 1009eb70 f i libucrtd:output.obj
 0001:0009e610       ?adjust_hexit@?$output_processor@DV?$stream_output_adapter@D@__crt_stdio_output@@V?$format_validation_base@DV?$stream_output_adapter@D@__crt_stdio_output@@@2@@__crt_stdio_output@@CADH_N@Z 1009f610 f i libucrtd:output.obj
 0001:0009e660       ?adjust_hexit@?$output_processor@DV?$stream_output_adapter@D@__crt_stdio_output@@V?$positional_parameter_base@DV?$stream_output_adapter@D@__crt_stdio_output@@@2@@__crt_stdio_output@@CADH_N@Z 1009f660 f i libucrtd:output.obj
 0001:0009e6b0       ?adjust_hexit@?$output_processor@DV?$stream_output_adapter@D@__crt_stdio_output@@V?$standard_base@DV?$stream_output_adapter@D@__crt_stdio_output@@@2@@__crt_stdio_output@@CADH_N@Z 1009f6b0 f i libucrtd:output.obj
 0001:0009e700       ?adjust_hexit@?$output_processor@DV?$string_output_adapter@D@__crt_stdio_output@@V?$format_validation_base@DV?$string_output_adapter@D@__crt_stdio_output@@@2@@__crt_stdio_output@@CADH_N@Z 1009f700 f i libucrtd:output.obj
 0001:0009e750       ?adjust_hexit@?$output_processor@DV?$string_output_adapter@D@__crt_stdio_output@@V?$positional_parameter_base@DV?$string_output_adapter@D@__crt_stdio_output@@@2@@__crt_stdio_output@@CADH_N@Z 1009f750 f i libucrtd:output.obj
 0001:0009e7a0       ?adjust_hexit@?$output_processor@DV?$string_output_adapter@D@__crt_stdio_output@@V?$standard_base@DV?$string_output_adapter@D@__crt_stdio_output@@@2@@__crt_stdio_output@@CADH_N@Z 1009f7a0 f i libucrtd:output.obj
 0001:0009e7f0       ?adjust_hexit@?$output_processor@_WV?$stream_output_adapter@_W@__crt_stdio_output@@V?$format_validation_base@_WV?$stream_output_adapter@_W@__crt_stdio_output@@@2@@__crt_stdio_output@@CADH_N@Z 1009f7f0 f i libucrtd:output.obj
 0001:0009e840       ?adjust_hexit@?$output_processor@_WV?$stream_output_adapter@_W@__crt_stdio_output@@V?$positional_parameter_base@_WV?$stream_output_adapter@_W@__crt_stdio_output@@@2@@__crt_stdio_output@@CADH_N@Z 1009f840 f i libucrtd:output.obj
 0001:0009e890       ?adjust_hexit@?$output_processor@_WV?$stream_output_adapter@_W@__crt_stdio_output@@V?$standard_base@_WV?$stream_output_adapter@_W@__crt_stdio_output@@@2@@__crt_stdio_output@@CADH_N@Z 1009f890 f i libucrtd:output.obj
 0001:0009e8e0       ?adjust_hexit@?$output_processor@_WV?$string_output_adapter@_W@__crt_stdio_output@@V?$format_validation_base@_WV?$string_output_adapter@_W@__crt_stdio_output@@@2@@__crt_stdio_output@@CADH_N@Z 1009f8e0 f i libucrtd:output.obj
 0001:0009e930       ?adjust_hexit@?$output_processor@_WV?$string_output_adapter@_W@__crt_stdio_output@@V?$positional_parameter_base@_WV?$string_output_adapter@_W@__crt_stdio_output@@@2@@__crt_stdio_output@@CADH_N@Z 1009f930 f i libucrtd:output.obj
 0001:0009e980       ?adjust_hexit@?$output_processor@_WV?$string_output_adapter@_W@__crt_stdio_output@@V?$standard_base@_WV?$string_output_adapter@_W@__crt_stdio_output@@@2@@__crt_stdio_output@@CADH_N@Z 1009f980 f i libucrtd:output.obj
 0001:0009e9d0       ?advance_to_next_pass@?$positional_parameter_base@DV?$stream_output_adapter@D@__crt_stdio_output@@@__crt_stdio_output@@IAE_NXZ 1009f9d0 f i libucrtd:output.obj
 0001:0009ea90       ?advance_to_next_pass@?$positional_parameter_base@DV?$string_output_adapter@D@__crt_stdio_output@@@__crt_stdio_output@@IAE_NXZ 1009fa90 f i libucrtd:output.obj
 0001:0009eb50       ?advance_to_next_pass@?$positional_parameter_base@_WV?$stream_output_adapter@_W@__crt_stdio_output@@@__crt_stdio_output@@IAE_NXZ 1009fb50 f i libucrtd:output.obj
 0001:0009ec10       ?advance_to_next_pass@?$positional_parameter_base@_WV?$string_output_adapter@_W@__crt_stdio_output@@@__crt_stdio_output@@IAE_NXZ 1009fc10 f i libucrtd:output.obj
 0001:0009ecd0       ?advance_to_next_pass@?$standard_base@DV?$stream_output_adapter@D@__crt_stdio_output@@@__crt_stdio_output@@IAE_NXZ 1009fcd0 f i libucrtd:output.obj
 0001:0009ed30       ?advance_to_next_pass@?$standard_base@DV?$string_output_adapter@D@__crt_stdio_output@@@__crt_stdio_output@@IAE_NXZ 1009fd30 f i libucrtd:output.obj
 0001:0009ed90       ?advance_to_next_pass@?$standard_base@_WV?$stream_output_adapter@_W@__crt_stdio_output@@@__crt_stdio_output@@IAE_NXZ 1009fd90 f i libucrtd:output.obj
 0001:0009edf0       ?advance_to_next_pass@?$standard_base@_WV?$string_output_adapter@_W@__crt_stdio_output@@@__crt_stdio_output@@IAE_NXZ 1009fdf0 f i libucrtd:output.obj
 0001:0009ee50       ?check@?$cached@H@__crt_cached_ptd_host@@QBE_NH@Z 1009fe50 f i libucrtd:output.obj
 0001:0009eea0       ?check_synchronize_global_state_index@__crt_cached_ptd_host@@AAEIABV__crt_scoped_get_last_error_reset@@@Z 1009fea0 f i libucrtd:output.obj
 0001:0009eee0       ?check_synchronize_per_thread_data@__crt_cached_ptd_host@@AAEPAU__acrt_ptd@@XZ 1009fee0 f i libucrtd:output.obj
 0001:0009ef20       ?create_guard@?$cached@H@__crt_cached_ptd_host@@QAE?AVguard@12@XZ 1009ff20 f i libucrtd:output.obj
 0001:0009ef50       ?crop_zeroes@__crt_stdio_output@@YAXPADQAU__crt_locale_pointers@@@Z 1009ff50 f i libucrtd:output.obj
 0001:0009f090       ?disable@guard@?$cached@H@__crt_cached_ptd_host@@QAEXXZ 100a0090 f i libucrtd:output.obj
 0001:0009f0b0       ?enable@guard@?$cached@H@__crt_cached_ptd_host@@QAEXXZ 100a00b0 f i libucrtd:output.obj
 0001:0009f0d0       ?find_next_state@?$output_processor@DV?$stream_output_adapter@D@__crt_stdio_output@@V?$format_validation_base@DV?$stream_output_adapter@D@__crt_stdio_output@@@2@@__crt_stdio_output@@ABE?AW4state@2@DW432@@Z 100a00d0 f i libucrtd:output.obj
 0001:0009f1a0       ?find_next_state@?$output_processor@DV?$stream_output_adapter@D@__crt_stdio_output@@V?$positional_parameter_base@DV?$stream_output_adapter@D@__crt_stdio_output@@@2@@__crt_stdio_output@@ABE?AW4state@2@DW432@@Z 100a01a0 f i libucrtd:output.obj
 0001:0009f270       ?find_next_state@?$output_processor@DV?$stream_output_adapter@D@__crt_stdio_output@@V?$standard_base@DV?$stream_output_adapter@D@__crt_stdio_output@@@2@@__crt_stdio_output@@ABE?AW4state@2@DW432@@Z 100a0270 f i libucrtd:output.obj
 0001:0009f340       ?find_next_state@?$output_processor@DV?$string_output_adapter@D@__crt_stdio_output@@V?$format_validation_base@DV?$string_output_adapter@D@__crt_stdio_output@@@2@@__crt_stdio_output@@ABE?AW4state@2@DW432@@Z 100a0340 f i libucrtd:output.obj
 0001:0009f410       ?find_next_state@?$output_processor@DV?$string_output_adapter@D@__crt_stdio_output@@V?$positional_parameter_base@DV?$string_output_adapter@D@__crt_stdio_output@@@2@@__crt_stdio_output@@ABE?AW4state@2@DW432@@Z 100a0410 f i libucrtd:output.obj
 0001:0009f4e0       ?find_next_state@?$output_processor@DV?$string_output_adapter@D@__crt_stdio_output@@V?$standard_base@DV?$string_output_adapter@D@__crt_stdio_output@@@2@@__crt_stdio_output@@ABE?AW4state@2@DW432@@Z 100a04e0 f i libucrtd:output.obj
 0001:0009f5b0       ?find_next_state@?$output_processor@_WV?$stream_output_adapter@_W@__crt_stdio_output@@V?$format_validation_base@_WV?$stream_output_adapter@_W@__crt_stdio_output@@@2@@__crt_stdio_output@@ABE?AW4state@2@_WW432@@Z 100a05b0 f i libucrtd:output.obj
 0001:0009f680       ?find_next_state@?$output_processor@_WV?$stream_output_adapter@_W@__crt_stdio_output@@V?$positional_parameter_base@_WV?$stream_output_adapter@_W@__crt_stdio_output@@@2@@__crt_stdio_output@@ABE?AW4state@2@_WW432@@Z 100a0680 f i libucrtd:output.obj
 0001:0009f750       ?find_next_state@?$output_processor@_WV?$stream_output_adapter@_W@__crt_stdio_output@@V?$standard_base@_WV?$stream_output_adapter@_W@__crt_stdio_output@@@2@@__crt_stdio_output@@ABE?AW4state@2@_WW432@@Z 100a0750 f i libucrtd:output.obj
 0001:0009f820       ?find_next_state@?$output_processor@_WV?$string_output_adapter@_W@__crt_stdio_output@@V?$format_validation_base@_WV?$string_output_adapter@_W@__crt_stdio_output@@@2@@__crt_stdio_output@@ABE?AW4state@2@_WW432@@Z 100a0820 f i libucrtd:output.obj
 0001:0009f8f0       ?find_next_state@?$output_processor@_WV?$string_output_adapter@_W@__crt_stdio_output@@V?$positional_parameter_base@_WV?$string_output_adapter@_W@__crt_stdio_output@@@2@@__crt_stdio_output@@ABE?AW4state@2@_WW432@@Z 100a08f0 f i libucrtd:output.obj
 0001:0009f9c0       ?find_next_state@?$output_processor@_WV?$string_output_adapter@_W@__crt_stdio_output@@V?$standard_base@_WV?$string_output_adapter@_W@__crt_stdio_output@@@2@@__crt_stdio_output@@ABE?AW4state@2@_WW432@@Z 100a09c0 f i libucrtd:output.obj
 0001:0009fa90       ?force_decimal_point@__crt_stdio_output@@YAXPADQAU__crt_locale_pointers@@@Z 100a0a90 f i libucrtd:output.obj
 0001:0009fb90       ?force_synchronize_global_state_index@__crt_cached_ptd_host@@AAEIABV__crt_scoped_get_last_error_reset@@@Z 100a0b90 f i libucrtd:output.obj
 0001:0009fbd0       ?force_synchronize_per_thread_data@__crt_cached_ptd_host@@AAEPAU__acrt_ptd@@XZ 100a0bd0 f i libucrtd:output.obj
 0001:0009fc30       ?get@?$c_string_character_source@D@__crt_strtox@@QAEDXZ 100a0c30 f i libucrtd:output.obj
 0001:0009fc70       ?get@?$c_string_character_source@_W@__crt_strtox@@QAE_WXZ 100a0c70 f i libucrtd:output.obj
 0001:0009fcb0       ?get_current_state_index@__crt_state_management@@YAIABV__crt_scoped_get_last_error_reset@@@Z 100a0cb0 f i libucrtd:output.obj
 0001:0009fcc0       ?get_errno@__crt_cached_ptd_host@@QAE@XZ 100a0cc0 f i libucrtd:output.obj
 0001:0009fce0       ?get_flags@__crt_stdio_stream@@QBEJXZ 100a0ce0 f i libucrtd:output.obj
 0001:0009fd10       ?get_locale@__crt_cached_ptd_host@@QAEPAU__crt_locale_pointers@@XZ 100a0d10 f i libucrtd:output.obj
 0001:0009fd40       ?get_parameter_type@?$positional_parameter_base@DV?$stream_output_adapter@D@__crt_stdio_output@@@__crt_stdio_output@@CA?AW4parameter_type@12@F@Z 100a0d40 f i libucrtd:output.obj
 0001:0009fd50       ?get_parameter_type@?$positional_parameter_base@DV?$stream_output_adapter@D@__crt_stdio_output@@@__crt_stdio_output@@CA?AW4parameter_type@12@G@Z 100a0d50 f i libucrtd:output.obj
 0001:0009fd60       ?get_parameter_type@?$positional_parameter_base@DV?$stream_output_adapter@D@__crt_stdio_output@@@__crt_stdio_output@@CA?AW4parameter_type@12@H@Z 100a0d60 f i libucrtd:output.obj
 0001:0009fd70       ?get_parameter_type@?$positional_parameter_base@DV?$stream_output_adapter@D@__crt_stdio_output@@@__crt_stdio_output@@CA?AW4parameter_type@12@I@Z 100a0d70 f i libucrtd:output.obj
 0001:0009fd80       ?get_parameter_type@?$positional_parameter_base@DV?$stream_output_adapter@D@__crt_stdio_output@@@__crt_stdio_output@@CA?AW4parameter_type@12@U_CRT_DOUBLE@@@Z 100a0d80 f i libucrtd:output.obj
 0001:0009fd90       ?get_parameter_type@?$positional_parameter_base@DV?$stream_output_adapter@D@__crt_stdio_output@@@__crt_stdio_output@@CA?AW4parameter_type@12@_J@Z 100a0d90 f i libucrtd:output.obj
 0001:0009fda0       ?get_parameter_type@?$positional_parameter_base@DV?$stream_output_adapter@D@__crt_stdio_output@@@__crt_stdio_output@@CA?AW4parameter_type@12@_K@Z 100a0da0 f i libucrtd:output.obj
 0001:0009fdb0       ?get_parameter_type@?$positional_parameter_base@DV?$stream_output_adapter@D@__crt_stdio_output@@@__crt_stdio_output@@CA?AW4parameter_type@12@_W@Z 100a0db0 f i libucrtd:output.obj
 0001:0009fdc0       ?get_parameter_type@?$positional_parameter_base@DV?$string_output_adapter@D@__crt_stdio_output@@@__crt_stdio_output@@CA?AW4parameter_type@12@F@Z 100a0dc0 f i libucrtd:output.obj
 0001:0009fdd0       ?get_parameter_type@?$positional_parameter_base@DV?$string_output_adapter@D@__crt_stdio_output@@@__crt_stdio_output@@CA?AW4parameter_type@12@G@Z 100a0dd0 f i libucrtd:output.obj
 0001:0009fde0       ?get_parameter_type@?$positional_parameter_base@DV?$string_output_adapter@D@__crt_stdio_output@@@__crt_stdio_output@@CA?AW4parameter_type@12@H@Z 100a0de0 f i libucrtd:output.obj
 0001:0009fdf0       ?get_parameter_type@?$positional_parameter_base@DV?$string_output_adapter@D@__crt_stdio_output@@@__crt_stdio_output@@CA?AW4parameter_type@12@I@Z 100a0df0 f i libucrtd:output.obj
 0001:0009fe00       ?get_parameter_type@?$positional_parameter_base@DV?$string_output_adapter@D@__crt_stdio_output@@@__crt_stdio_output@@CA?AW4parameter_type@12@U_CRT_DOUBLE@@@Z 100a0e00 f i libucrtd:output.obj
 0001:0009fe10       ?get_parameter_type@?$positional_parameter_base@DV?$string_output_adapter@D@__crt_stdio_output@@@__crt_stdio_output@@CA?AW4parameter_type@12@_J@Z 100a0e10 f i libucrtd:output.obj
 0001:0009fe20       ?get_parameter_type@?$positional_parameter_base@DV?$string_output_adapter@D@__crt_stdio_output@@@__crt_stdio_output@@CA?AW4parameter_type@12@_K@Z 100a0e20 f i libucrtd:output.obj
 0001:0009fe30       ?get_parameter_type@?$positional_parameter_base@DV?$string_output_adapter@D@__crt_stdio_output@@@__crt_stdio_output@@CA?AW4parameter_type@12@_W@Z 100a0e30 f i libucrtd:output.obj
 0001:0009fe40       ?get_parameter_type@?$positional_parameter_base@_WV?$stream_output_adapter@_W@__crt_stdio_output@@@__crt_stdio_output@@CA?AW4parameter_type@12@F@Z 100a0e40 f i libucrtd:output.obj
 0001:0009fe50       ?get_parameter_type@?$positional_parameter_base@_WV?$stream_output_adapter@_W@__crt_stdio_output@@@__crt_stdio_output@@CA?AW4parameter_type@12@G@Z 100a0e50 f i libucrtd:output.obj
 0001:0009fe60       ?get_parameter_type@?$positional_parameter_base@_WV?$stream_output_adapter@_W@__crt_stdio_output@@@__crt_stdio_output@@CA?AW4parameter_type@12@H@Z 100a0e60 f i libucrtd:output.obj
 0001:0009fe70       ?get_parameter_type@?$positional_parameter_base@_WV?$stream_output_adapter@_W@__crt_stdio_output@@@__crt_stdio_output@@CA?AW4parameter_type@12@I@Z 100a0e70 f i libucrtd:output.obj
 0001:0009fe80       ?get_parameter_type@?$positional_parameter_base@_WV?$stream_output_adapter@_W@__crt_stdio_output@@@__crt_stdio_output@@CA?AW4parameter_type@12@U_CRT_DOUBLE@@@Z 100a0e80 f i libucrtd:output.obj
 0001:0009fe90       ?get_parameter_type@?$positional_parameter_base@_WV?$stream_output_adapter@_W@__crt_stdio_output@@@__crt_stdio_output@@CA?AW4parameter_type@12@_J@Z 100a0e90 f i libucrtd:output.obj
 0001:0009fea0       ?get_parameter_type@?$positional_parameter_base@_WV?$stream_output_adapter@_W@__crt_stdio_output@@@__crt_stdio_output@@CA?AW4parameter_type@12@_K@Z 100a0ea0 f i libucrtd:output.obj
 0001:0009feb0       ?get_parameter_type@?$positional_parameter_base@_WV?$stream_output_adapter@_W@__crt_stdio_output@@@__crt_stdio_output@@CA?AW4parameter_type@12@_W@Z 100a0eb0 f i libucrtd:output.obj
 0001:0009fec0       ?get_parameter_type@?$positional_parameter_base@_WV?$string_output_adapter@_W@__crt_stdio_output@@@__crt_stdio_output@@CA?AW4parameter_type@12@F@Z 100a0ec0 f i libucrtd:output.obj
 0001:0009fed0       ?get_parameter_type@?$positional_parameter_base@_WV?$string_output_adapter@_W@__crt_stdio_output@@@__crt_stdio_output@@CA?AW4parameter_type@12@G@Z 100a0ed0 f i libucrtd:output.obj
 0001:0009fee0       ?get_parameter_type@?$positional_parameter_base@_WV?$string_output_adapter@_W@__crt_stdio_output@@@__crt_stdio_output@@CA?AW4parameter_type@12@H@Z 100a0ee0 f i libucrtd:output.obj
 0001:0009fef0       ?get_parameter_type@?$positional_parameter_base@_WV?$string_output_adapter@_W@__crt_stdio_output@@@__crt_stdio_output@@CA?AW4parameter_type@12@I@Z 100a0ef0 f i libucrtd:output.obj
 0001:0009ff00       ?get_parameter_type@?$positional_parameter_base@_WV?$string_output_adapter@_W@__crt_stdio_output@@@__crt_stdio_output@@CA?AW4parameter_type@12@U_CRT_DOUBLE@@@Z 100a0f00 f i libucrtd:output.obj
 0001:0009ff10       ?get_parameter_type@?$positional_parameter_base@_WV?$string_output_adapter@_W@__crt_stdio_output@@@__crt_stdio_output@@CA?AW4parameter_type@12@_J@Z 100a0f10 f i libucrtd:output.obj
 0001:0009ff20       ?get_parameter_type@?$positional_parameter_base@_WV?$string_output_adapter@_W@__crt_stdio_output@@@__crt_stdio_output@@CA?AW4parameter_type@12@_K@Z 100a0f20 f i libucrtd:output.obj
 0001:0009ff30       ?get_parameter_type@?$positional_parameter_base@_WV?$string_output_adapter@_W@__crt_stdio_output@@@__crt_stdio_output@@CA?AW4parameter_type@12@_W@Z 100a0f30 f i libucrtd:output.obj
 0001:0009ff40       ?get_raw_ptd@__crt_cached_ptd_host@@QAEPAU__acrt_ptd@@XZ 100a0f40 f i libucrtd:output.obj
 0001:0009ff60       ?has_flag@?$output_processor@DV?$stream_output_adapter@D@__crt_stdio_output@@V?$format_validation_base@DV?$stream_output_adapter@D@__crt_stdio_output@@@2@@__crt_stdio_output@@ABE_NI@Z 100a0f60 f i libucrtd:output.obj
 0001:0009ffa0       ?has_flag@?$output_processor@DV?$stream_output_adapter@D@__crt_stdio_output@@V?$positional_parameter_base@DV?$stream_output_adapter@D@__crt_stdio_output@@@2@@__crt_stdio_output@@ABE_NI@Z 100a0fa0 f i libucrtd:output.obj
 0001:0009ffe0       ?has_flag@?$output_processor@DV?$stream_output_adapter@D@__crt_stdio_output@@V?$standard_base@DV?$stream_output_adapter@D@__crt_stdio_output@@@2@@__crt_stdio_output@@ABE_NI@Z 100a0fe0 f i libucrtd:output.obj
 0001:000a0020       ?has_flag@?$output_processor@DV?$string_output_adapter@D@__crt_stdio_output@@V?$format_validation_base@DV?$string_output_adapter@D@__crt_stdio_output@@@2@@__crt_stdio_output@@ABE_NI@Z 100a1020 f i libucrtd:output.obj
 0001:000a0060       ?has_flag@?$output_processor@DV?$string_output_adapter@D@__crt_stdio_output@@V?$positional_parameter_base@DV?$string_output_adapter@D@__crt_stdio_output@@@2@@__crt_stdio_output@@ABE_NI@Z 100a1060 f i libucrtd:output.obj
 0001:000a00a0       ?has_flag@?$output_processor@DV?$string_output_adapter@D@__crt_stdio_output@@V?$standard_base@DV?$string_output_adapter@D@__crt_stdio_output@@@2@@__crt_stdio_output@@ABE_NI@Z 100a10a0 f i libucrtd:output.obj
 0001:000a00e0       ?has_flag@?$output_processor@_WV?$stream_output_adapter@_W@__crt_stdio_output@@V?$format_validation_base@_WV?$stream_output_adapter@_W@__crt_stdio_output@@@2@@__crt_stdio_output@@ABE_NI@Z 100a10e0 f i libucrtd:output.obj
 0001:000a0120       ?has_flag@?$output_processor@_WV?$stream_output_adapter@_W@__crt_stdio_output@@V?$positional_parameter_base@_WV?$stream_output_adapter@_W@__crt_stdio_output@@@2@@__crt_stdio_output@@ABE_NI@Z 100a1120 f i libucrtd:output.obj
 0001:000a0160       ?has_flag@?$output_processor@_WV?$stream_output_adapter@_W@__crt_stdio_output@@V?$standard_base@_WV?$stream_output_adapter@_W@__crt_stdio_output@@@2@@__crt_stdio_output@@ABE_NI@Z 100a1160 f i libucrtd:output.obj
 0001:000a01a0       ?has_flag@?$output_processor@_WV?$string_output_adapter@_W@__crt_stdio_output@@V?$format_validation_base@_WV?$string_output_adapter@_W@__crt_stdio_output@@@2@@__crt_stdio_output@@ABE_NI@Z 100a11a0 f i libucrtd:output.obj
 0001:000a01e0       ?has_flag@?$output_processor@_WV?$string_output_adapter@_W@__crt_stdio_output@@V?$positional_parameter_base@_WV?$string_output_adapter@_W@__crt_stdio_output@@@2@@__crt_stdio_output@@ABE_NI@Z 100a11e0 f i libucrtd:output.obj
 0001:000a0220       ?has_flag@?$output_processor@_WV?$string_output_adapter@_W@__crt_stdio_output@@V?$standard_base@_WV?$string_output_adapter@_W@__crt_stdio_output@@@2@@__crt_stdio_output@@ABE_NI@Z 100a1220 f i libucrtd:output.obj
 0001:000a0260       ?is_positional_parameter_reappearance_consistent@?$positional_parameter_base@DV?$stream_output_adapter@D@__crt_stdio_output@@@__crt_stdio_output@@AAE_NABUparameter_data@12@W4parameter_type@12@DW4length_modifier@2@@Z 100a1260 f i libucrtd:output.obj
 0001:000a0510       ?is_positional_parameter_reappearance_consistent@?$positional_parameter_base@DV?$string_output_adapter@D@__crt_stdio_output@@@__crt_stdio_output@@AAE_NABUparameter_data@12@W4parameter_type@12@DW4length_modifier@2@@Z 100a1510 f i libucrtd:output.obj
 0001:000a07c0       ?is_positional_parameter_reappearance_consistent@?$positional_parameter_base@_WV?$stream_output_adapter@_W@__crt_stdio_output@@@__crt_stdio_output@@AAE_NABUparameter_data@12@W4parameter_type@12@_WW4length_modifier@2@@Z 100a17c0 f i libucrtd:output.obj
 0001:000a0a70       ?is_positional_parameter_reappearance_consistent@?$positional_parameter_base@_WV?$string_output_adapter@_W@__crt_stdio_output@@@__crt_stdio_output@@AAE_NABUparameter_data@12@W4parameter_type@12@_WW4length_modifier@2@@Z 100a1a70 f i libucrtd:output.obj
 0001:000a0d20       ?is_string_backed@__crt_stdio_stream@@QBE_NXZ 100a1d20 f i libucrtd:output.obj
 0001:000a0d60       ?maximum_signed_value@__crt_strtox@@YAJK@Z 100a1d60 f i libucrtd:output.obj
 0001:000a0d70       ?minimum_signed_value@__crt_strtox@@YAJK@Z 100a1d70 f i libucrtd:output.obj
 0001:000a0d80       ?narrow_null_string@?$output_processor@DV?$stream_output_adapter@D@__crt_stdio_output@@V?$format_validation_base@DV?$stream_output_adapter@D@__crt_stdio_output@@@2@@__crt_stdio_output@@CAPADXZ 100a1d80 f i libucrtd:output.obj
 0001:000a0d90       ?narrow_null_string@?$output_processor@DV?$stream_output_adapter@D@__crt_stdio_output@@V?$positional_parameter_base@DV?$stream_output_adapter@D@__crt_stdio_output@@@2@@__crt_stdio_output@@CAPADXZ 100a1d90 f i libucrtd:output.obj
 0001:000a0da0       ?narrow_null_string@?$output_processor@DV?$stream_output_adapter@D@__crt_stdio_output@@V?$standard_base@DV?$stream_output_adapter@D@__crt_stdio_output@@@2@@__crt_stdio_output@@CAPADXZ 100a1da0 f i libucrtd:output.obj
 0001:000a0db0       ?narrow_null_string@?$output_processor@DV?$string_output_adapter@D@__crt_stdio_output@@V?$format_validation_base@DV?$string_output_adapter@D@__crt_stdio_output@@@2@@__crt_stdio_output@@CAPADXZ 100a1db0 f i libucrtd:output.obj
 0001:000a0dc0       ?narrow_null_string@?$output_processor@DV?$string_output_adapter@D@__crt_stdio_output@@V?$positional_parameter_base@DV?$string_output_adapter@D@__crt_stdio_output@@@2@@__crt_stdio_output@@CAPADXZ 100a1dc0 f i libucrtd:output.obj
 0001:000a0dd0       ?narrow_null_string@?$output_processor@DV?$string_output_adapter@D@__crt_stdio_output@@V?$standard_base@DV?$string_output_adapter@D@__crt_stdio_output@@@2@@__crt_stdio_output@@CAPADXZ 100a1dd0 f i libucrtd:output.obj
 0001:000a0de0       ?narrow_null_string@?$output_processor@_WV?$stream_output_adapter@_W@__crt_stdio_output@@V?$format_validation_base@_WV?$stream_output_adapter@_W@__crt_stdio_output@@@2@@__crt_stdio_output@@CAPADXZ 100a1de0 f i libucrtd:output.obj
 0001:000a0df0       ?narrow_null_string@?$output_processor@_WV?$stream_output_adapter@_W@__crt_stdio_output@@V?$positional_parameter_base@_WV?$stream_output_adapter@_W@__crt_stdio_output@@@2@@__crt_stdio_output@@CAPADXZ 100a1df0 f i libucrtd:output.obj
 0001:000a0e00       ?narrow_null_string@?$output_processor@_WV?$stream_output_adapter@_W@__crt_stdio_output@@V?$standard_base@_WV?$stream_output_adapter@_W@__crt_stdio_output@@@2@@__crt_stdio_output@@CAPADXZ 100a1e00 f i libucrtd:output.obj
 0001:000a0e10       ?narrow_null_string@?$output_processor@_WV?$string_output_adapter@_W@__crt_stdio_output@@V?$format_validation_base@_WV?$string_output_adapter@_W@__crt_stdio_output@@@2@@__crt_stdio_output@@CAPADXZ 100a1e10 f i libucrtd:output.obj
 0001:000a0e20       ?narrow_null_string@?$output_processor@_WV?$string_output_adapter@_W@__crt_stdio_output@@V?$positional_parameter_base@_WV?$string_output_adapter@_W@__crt_stdio_output@@@2@@__crt_stdio_output@@CAPADXZ 100a1e20 f i libucrtd:output.obj
 0001:000a0e30       ?narrow_null_string@?$output_processor@_WV?$string_output_adapter@_W@__crt_stdio_output@@V?$standard_base@_WV?$string_output_adapter@_W@__crt_stdio_output@@@2@@__crt_stdio_output@@CAPADXZ 100a1e30 f i libucrtd:output.obj
 0001:000a0e40       ?parse_digit@__crt_strtox@@YAID@Z 100a1e40 f i libucrtd:output.obj
 0001:000a0ec0       ?parse_digit@__crt_strtox@@YAI_W@Z 100a1ec0 f i libucrtd:output.obj
 0001:000a0f20       ?parse_int_from_format_string@?$output_processor@DV?$stream_output_adapter@D@__crt_stdio_output@@V?$format_validation_base@DV?$stream_output_adapter@D@__crt_stdio_output@@@2@@__crt_stdio_output@@AAE_NQAH@Z 100a1f20 f i libucrtd:output.obj
 0001:000a1010       ?parse_int_from_format_string@?$output_processor@DV?$stream_output_adapter@D@__crt_stdio_output@@V?$positional_parameter_base@DV?$stream_output_adapter@D@__crt_stdio_output@@@2@@__crt_stdio_output@@AAE_NQAH@Z 100a2010 f i libucrtd:output.obj
 0001:000a1100       ?parse_int_from_format_string@?$output_processor@DV?$stream_output_adapter@D@__crt_stdio_output@@V?$standard_base@DV?$stream_output_adapter@D@__crt_stdio_output@@@2@@__crt_stdio_output@@AAE_NQAH@Z 100a2100 f i libucrtd:output.obj
 0001:000a11f0       ?parse_int_from_format_string@?$output_processor@DV?$string_output_adapter@D@__crt_stdio_output@@V?$format_validation_base@DV?$string_output_adapter@D@__crt_stdio_output@@@2@@__crt_stdio_output@@AAE_NQAH@Z 100a21f0 f i libucrtd:output.obj
 0001:000a12e0       ?parse_int_from_format_string@?$output_processor@DV?$string_output_adapter@D@__crt_stdio_output@@V?$positional_parameter_base@DV?$string_output_adapter@D@__crt_stdio_output@@@2@@__crt_stdio_output@@AAE_NQAH@Z 100a22e0 f i libucrtd:output.obj
 0001:000a13d0       ?parse_int_from_format_string@?$output_processor@DV?$string_output_adapter@D@__crt_stdio_output@@V?$standard_base@DV?$string_output_adapter@D@__crt_stdio_output@@@2@@__crt_stdio_output@@AAE_NQAH@Z 100a23d0 f i libucrtd:output.obj
 0001:000a14c0       ?parse_int_from_format_string@?$output_processor@_WV?$stream_output_adapter@_W@__crt_stdio_output@@V?$format_validation_base@_WV?$stream_output_adapter@_W@__crt_stdio_output@@@2@@__crt_stdio_output@@AAE_NQAH@Z 100a24c0 f i libucrtd:output.obj
 0001:000a15b0       ?parse_int_from_format_string@?$output_processor@_WV?$stream_output_adapter@_W@__crt_stdio_output@@V?$positional_parameter_base@_WV?$stream_output_adapter@_W@__crt_stdio_output@@@2@@__crt_stdio_output@@AAE_NQAH@Z 100a25b0 f i libucrtd:output.obj
 0001:000a16a0       ?parse_int_from_format_string@?$output_processor@_WV?$stream_output_adapter@_W@__crt_stdio_output@@V?$standard_base@_WV?$stream_output_adapter@_W@__crt_stdio_output@@@2@@__crt_stdio_output@@AAE_NQAH@Z 100a26a0 f i libucrtd:output.obj
 0001:000a1790       ?parse_int_from_format_string@?$output_processor@_WV?$string_output_adapter@_W@__crt_stdio_output@@V?$format_validation_base@_WV?$string_output_adapter@_W@__crt_stdio_output@@@2@@__crt_stdio_output@@AAE_NQAH@Z 100a2790 f i libucrtd:output.obj
 0001:000a1880       ?parse_int_from_format_string@?$output_processor@_WV?$string_output_adapter@_W@__crt_stdio_output@@V?$positional_parameter_base@_WV?$string_output_adapter@_W@__crt_stdio_output@@@2@@__crt_stdio_output@@AAE_NQAH@Z 100a2880 f i libucrtd:output.obj
 0001:000a1970       ?parse_int_from_format_string@?$output_processor@_WV?$string_output_adapter@_W@__crt_stdio_output@@V?$standard_base@_WV?$string_output_adapter@_W@__crt_stdio_output@@@2@@__crt_stdio_output@@AAE_NQAH@Z 100a2970 f i libucrtd:output.obj
 0001:000a1a60       ?process@?$output_processor@DV?$stream_output_adapter@D@__crt_stdio_output@@V?$format_validation_base@DV?$stream_output_adapter@D@__crt_stdio_output@@@2@@__crt_stdio_output@@QAEHXZ 100a2a60 f i libucrtd:output.obj
 0001:000a1df0       ?process@?$output_processor@DV?$stream_output_adapter@D@__crt_stdio_output@@V?$positional_parameter_base@DV?$stream_output_adapter@D@__crt_stdio_output@@@2@@__crt_stdio_output@@QAEHXZ 100a2df0 f i libucrtd:output.obj
 0001:000a2180       ?process@?$output_processor@DV?$stream_output_adapter@D@__crt_stdio_output@@V?$standard_base@DV?$stream_output_adapter@D@__crt_stdio_output@@@2@@__crt_stdio_output@@QAEHXZ 100a3180 f i libucrtd:output.obj
 0001:000a2510       ?process@?$output_processor@DV?$string_output_adapter@D@__crt_stdio_output@@V?$format_validation_base@DV?$string_output_adapter@D@__crt_stdio_output@@@2@@__crt_stdio_output@@QAEHXZ 100a3510 f i libucrtd:output.obj
 0001:000a28a0       ?process@?$output_processor@DV?$string_output_adapter@D@__crt_stdio_output@@V?$positional_parameter_base@DV?$string_output_adapter@D@__crt_stdio_output@@@2@@__crt_stdio_output@@QAEHXZ 100a38a0 f i libucrtd:output.obj
 0001:000a2c30       ?process@?$output_processor@DV?$string_output_adapter@D@__crt_stdio_output@@V?$standard_base@DV?$string_output_adapter@D@__crt_stdio_output@@@2@@__crt_stdio_output@@QAEHXZ 100a3c30 f i libucrtd:output.obj
 0001:000a2fc0       ?process@?$output_processor@_WV?$stream_output_adapter@_W@__crt_stdio_output@@V?$format_validation_base@_WV?$stream_output_adapter@_W@__crt_stdio_output@@@2@@__crt_stdio_output@@QAEHXZ 100a3fc0 f i libucrtd:output.obj
 0001:000a3360       ?process@?$output_processor@_WV?$stream_output_adapter@_W@__crt_stdio_output@@V?$positional_parameter_base@_WV?$stream_output_adapter@_W@__crt_stdio_output@@@2@@__crt_stdio_output@@QAEHXZ 100a4360 f i libucrtd:output.obj
 0001:000a3700       ?process@?$output_processor@_WV?$stream_output_adapter@_W@__crt_stdio_output@@V?$standard_base@_WV?$stream_output_adapter@_W@__crt_stdio_output@@@2@@__crt_stdio_output@@QAEHXZ 100a4700 f i libucrtd:output.obj
 0001:000a3aa0       ?process@?$output_processor@_WV?$string_output_adapter@_W@__crt_stdio_output@@V?$format_validation_base@_WV?$string_output_adapter@_W@__crt_stdio_output@@@2@@__crt_stdio_output@@QAEHXZ 100a4aa0 f i libucrtd:output.obj
 0001:000a3e40       ?process@?$output_processor@_WV?$string_output_adapter@_W@__crt_stdio_output@@V?$positional_parameter_base@_WV?$string_output_adapter@_W@__crt_stdio_output@@@2@@__crt_stdio_output@@QAEHXZ 100a4e40 f i libucrtd:output.obj
 0001:000a41e0       ?process@?$output_processor@_WV?$string_output_adapter@_W@__crt_stdio_output@@V?$standard_base@_WV?$string_output_adapter@_W@__crt_stdio_output@@@2@@__crt_stdio_output@@QAEHXZ 100a51e0 f i libucrtd:output.obj
 0001:000a4580       ?public_stream@__crt_stdio_stream@@QBEPAU_iobuf@@XZ 100a5580 f i libucrtd:output.obj
 0001:000a45a0       ?restore_state@?$c_string_character_source@D@__crt_strtox@@QAE_NQBD@Z 100a55a0 f i libucrtd:output.obj
 0001:000a45c0       ?restore_state@?$c_string_character_source@_W@__crt_strtox@@QAE_NQB_W@Z 100a55c0 f i libucrtd:output.obj
 0001:000a45e0       ?save_state@?$c_string_character_source@D@__crt_strtox@@QBEPBDXZ 100a55e0 f i libucrtd:output.obj
 0001:000a4600       ?save_state@?$c_string_character_source@_W@__crt_strtox@@QBEPB_WXZ 100a5600 f i libucrtd:output.obj
 0001:000a4620       ?set@?$cached@H@__crt_cached_ptd_host@@QAEHH@Z 100a5620 f i libucrtd:output.obj
 0001:000a4650       ?set_flag@?$output_processor@DV?$stream_output_adapter@D@__crt_stdio_output@@V?$format_validation_base@DV?$stream_output_adapter@D@__crt_stdio_output@@@2@@__crt_stdio_output@@AAEXI@Z 100a5650 f i libucrtd:output.obj
 0001:000a4680       ?set_flag@?$output_processor@DV?$stream_output_adapter@D@__crt_stdio_output@@V?$positional_parameter_base@DV?$stream_output_adapter@D@__crt_stdio_output@@@2@@__crt_stdio_output@@AAEXI@Z 100a5680 f i libucrtd:output.obj
 0001:000a46b0       ?set_flag@?$output_processor@DV?$stream_output_adapter@D@__crt_stdio_output@@V?$standard_base@DV?$stream_output_adapter@D@__crt_stdio_output@@@2@@__crt_stdio_output@@AAEXI@Z 100a56b0 f i libucrtd:output.obj
 0001:000a46e0       ?set_flag@?$output_processor@DV?$string_output_adapter@D@__crt_stdio_output@@V?$format_validation_base@DV?$string_output_adapter@D@__crt_stdio_output@@@2@@__crt_stdio_output@@AAEXI@Z 100a56e0 f i libucrtd:output.obj
 0001:000a4710       ?set_flag@?$output_processor@DV?$string_output_adapter@D@__crt_stdio_output@@V?$positional_parameter_base@DV?$string_output_adapter@D@__crt_stdio_output@@@2@@__crt_stdio_output@@AAEXI@Z 100a5710 f i libucrtd:output.obj
 0001:000a4740       ?set_flag@?$output_processor@DV?$string_output_adapter@D@__crt_stdio_output@@V?$standard_base@DV?$string_output_adapter@D@__crt_stdio_output@@@2@@__crt_stdio_output@@AAEXI@Z 100a5740 f i libucrtd:output.obj
 0001:000a4770       ?set_flag@?$output_processor@_WV?$stream_output_adapter@_W@__crt_stdio_output@@V?$format_validation_base@_WV?$stream_output_adapter@_W@__crt_stdio_output@@@2@@__crt_stdio_output@@AAEXI@Z 100a5770 f i libucrtd:output.obj
 0001:000a47a0       ?set_flag@?$output_processor@_WV?$stream_output_adapter@_W@__crt_stdio_output@@V?$positional_parameter_base@_WV?$stream_output_adapter@_W@__crt_stdio_output@@@2@@__crt_stdio_output@@AAEXI@Z 100a57a0 f i libucrtd:output.obj
 0001:000a47d0       ?set_flag@?$output_processor@_WV?$stream_output_adapter@_W@__crt_stdio_output@@V?$standard_base@_WV?$stream_output_adapter@_W@__crt_stdio_output@@@2@@__crt_stdio_output@@AAEXI@Z 100a57d0 f i libucrtd:output.obj
 0001:000a4800       ?set_flag@?$output_processor@_WV?$string_output_adapter@_W@__crt_stdio_output@@V?$format_validation_base@_WV?$string_output_adapter@_W@__crt_stdio_output@@@2@@__crt_stdio_output@@AAEXI@Z 100a5800 f i libucrtd:output.obj
 0001:000a4830       ?set_flag@?$output_processor@_WV?$string_output_adapter@_W@__crt_stdio_output@@V?$positional_parameter_base@_WV?$string_output_adapter@_W@__crt_stdio_output@@@2@@__crt_stdio_output@@AAEXI@Z 100a5830 f i libucrtd:output.obj
 0001:000a4860       ?set_flag@?$output_processor@_WV?$string_output_adapter@_W@__crt_stdio_output@@V?$standard_base@_WV?$string_output_adapter@_W@__crt_stdio_output@@@2@@__crt_stdio_output@@AAEXI@Z 100a5860 f i libucrtd:output.obj
 0001:000a4890       ?should_format@?$positional_parameter_base@DV?$stream_output_adapter@D@__crt_stdio_output@@@__crt_stdio_output@@IAE_NXZ 100a5890 f i libucrtd:output.obj
 0001:000a48e0       ?should_format@?$positional_parameter_base@DV?$string_output_adapter@D@__crt_stdio_output@@@__crt_stdio_output@@IAE_NXZ 100a58e0 f i libucrtd:output.obj
 0001:000a4930       ?should_format@?$positional_parameter_base@_WV?$stream_output_adapter@_W@__crt_stdio_output@@@__crt_stdio_output@@IAE_NXZ 100a5930 f i libucrtd:output.obj
 0001:000a4980       ?should_format@?$positional_parameter_base@_WV?$string_output_adapter@_W@__crt_stdio_output@@@__crt_stdio_output@@IAE_NXZ 100a5980 f i libucrtd:output.obj
 0001:000a49d0       ?should_format@?$standard_base@DV?$stream_output_adapter@D@__crt_stdio_output@@@__crt_stdio_output@@IAE_NXZ 100a59d0 f i libucrtd:output.obj
 0001:000a49f0       ?should_format@?$standard_base@DV?$string_output_adapter@D@__crt_stdio_output@@@__crt_stdio_output@@IAE_NXZ 100a59f0 f i libucrtd:output.obj
 0001:000a4a10       ?should_format@?$standard_base@_WV?$stream_output_adapter@_W@__crt_stdio_output@@@__crt_stdio_output@@IAE_NXZ 100a5a10 f i libucrtd:output.obj
 0001:000a4a30       ?should_format@?$standard_base@_WV?$string_output_adapter@_W@__crt_stdio_output@@@__crt_stdio_output@@IAE_NXZ 100a5a30 f i libucrtd:output.obj
 0001:000a4a50       ?should_skip_normal_state_processing@?$positional_parameter_base@DV?$stream_output_adapter@D@__crt_stdio_output@@@__crt_stdio_output@@IAE_NXZ 100a5a50 f i libucrtd:output.obj
 0001:000a4ab0       ?should_skip_normal_state_processing@?$positional_parameter_base@DV?$string_output_adapter@D@__crt_stdio_output@@@__crt_stdio_output@@IAE_NXZ 100a5ab0 f i libucrtd:output.obj
 0001:000a4b10       ?should_skip_normal_state_processing@?$positional_parameter_base@_WV?$stream_output_adapter@_W@__crt_stdio_output@@@__crt_stdio_output@@IAE_NXZ 100a5b10 f i libucrtd:output.obj
 0001:000a4b70       ?should_skip_normal_state_processing@?$positional_parameter_base@_WV?$string_output_adapter@_W@__crt_stdio_output@@@__crt_stdio_output@@IAE_NXZ 100a5b70 f i libucrtd:output.obj
 0001:000a4bd0       ?should_skip_normal_state_processing@?$standard_base@DV?$stream_output_adapter@D@__crt_stdio_output@@@__crt_stdio_output@@IAE_NXZ 100a5bd0 f i libucrtd:output.obj
 0001:000a4bf0       ?should_skip_normal_state_processing@?$standard_base@DV?$string_output_adapter@D@__crt_stdio_output@@@__crt_stdio_output@@IAE_NXZ 100a5bf0 f i libucrtd:output.obj
 0001:000a4c10       ?should_skip_normal_state_processing@?$standard_base@_WV?$stream_output_adapter@_W@__crt_stdio_output@@@__crt_stdio_output@@IAE_NXZ 100a5c10 f i libucrtd:output.obj
 0001:000a4c30       ?should_skip_normal_state_processing@?$standard_base@_WV?$string_output_adapter@_W@__crt_stdio_output@@@__crt_stdio_output@@IAE_NXZ 100a5c30 f i libucrtd:output.obj
 0001:000a4c50       ?should_skip_type_state_output@?$positional_parameter_base@DV?$stream_output_adapter@D@__crt_stdio_output@@@__crt_stdio_output@@IBE_NXZ 100a5c50 f i libucrtd:output.obj
 0001:000a4ca0       ?should_skip_type_state_output@?$positional_parameter_base@DV?$string_output_adapter@D@__crt_stdio_output@@@__crt_stdio_output@@IBE_NXZ 100a5ca0 f i libucrtd:output.obj
 0001:000a4cf0       ?should_skip_type_state_output@?$positional_parameter_base@_WV?$stream_output_adapter@_W@__crt_stdio_output@@@__crt_stdio_output@@IBE_NXZ 100a5cf0 f i libucrtd:output.obj
 0001:000a4d40       ?should_skip_type_state_output@?$positional_parameter_base@_WV?$string_output_adapter@_W@__crt_stdio_output@@@__crt_stdio_output@@IBE_NXZ 100a5d40 f i libucrtd:output.obj
 0001:000a4d90       ?should_skip_type_state_output@?$standard_base@DV?$stream_output_adapter@D@__crt_stdio_output@@@__crt_stdio_output@@IBE_NXZ 100a5d90 f i libucrtd:output.obj
 0001:000a4db0       ?should_skip_type_state_output@?$standard_base@DV?$string_output_adapter@D@__crt_stdio_output@@@__crt_stdio_output@@IBE_NXZ 100a5db0 f i libucrtd:output.obj
 0001:000a4dd0       ?should_skip_type_state_output@?$standard_base@_WV?$stream_output_adapter@_W@__crt_stdio_output@@@__crt_stdio_output@@IBE_NXZ 100a5dd0 f i libucrtd:output.obj
 0001:000a4df0       ?should_skip_type_state_output@?$standard_base@_WV?$string_output_adapter@_W@__crt_stdio_output@@@__crt_stdio_output@@IBE_NXZ 100a5df0 f i libucrtd:output.obj
 0001:000a4e10       ?state_case_dot@?$output_processor@DV?$stream_output_adapter@D@__crt_stdio_output@@V?$format_validation_base@DV?$stream_output_adapter@D@__crt_stdio_output@@@2@@__crt_stdio_output@@AAE_NXZ 100a5e10 f i libucrtd:output.obj
 0001:000a4e30       ?state_case_dot@?$output_processor@DV?$stream_output_adapter@D@__crt_stdio_output@@V?$positional_parameter_base@DV?$stream_output_adapter@D@__crt_stdio_output@@@2@@__crt_stdio_output@@AAE_NXZ 100a5e30 f i libucrtd:output.obj
 0001:000a4e50       ?state_case_dot@?$output_processor@DV?$stream_output_adapter@D@__crt_stdio_output@@V?$standard_base@DV?$stream_output_adapter@D@__crt_stdio_output@@@2@@__crt_stdio_output@@AAE_NXZ 100a5e50 f i libucrtd:output.obj
 0001:000a4e70       ?state_case_dot@?$output_processor@DV?$string_output_adapter@D@__crt_stdio_output@@V?$format_validation_base@DV?$string_output_adapter@D@__crt_stdio_output@@@2@@__crt_stdio_output@@AAE_NXZ 100a5e70 f i libucrtd:output.obj
 0001:000a4e90       ?state_case_dot@?$output_processor@DV?$string_output_adapter@D@__crt_stdio_output@@V?$positional_parameter_base@DV?$string_output_adapter@D@__crt_stdio_output@@@2@@__crt_stdio_output@@AAE_NXZ 100a5e90 f i libucrtd:output.obj
 0001:000a4eb0       ?state_case_dot@?$output_processor@DV?$string_output_adapter@D@__crt_stdio_output@@V?$standard_base@DV?$string_output_adapter@D@__crt_stdio_output@@@2@@__crt_stdio_output@@AAE_NXZ 100a5eb0 f i libucrtd:output.obj
 0001:000a4ed0       ?state_case_dot@?$output_processor@_WV?$stream_output_adapter@_W@__crt_stdio_output@@V?$format_validation_base@_WV?$stream_output_adapter@_W@__crt_stdio_output@@@2@@__crt_stdio_output@@AAE_NXZ 100a5ed0 f i libucrtd:output.obj
 0001:000a4ef0       ?state_case_dot@?$output_processor@_WV?$stream_output_adapter@_W@__crt_stdio_output@@V?$positional_parameter_base@_WV?$stream_output_adapter@_W@__crt_stdio_output@@@2@@__crt_stdio_output@@AAE_NXZ 100a5ef0 f i libucrtd:output.obj
 0001:000a4f10       ?state_case_dot@?$output_processor@_WV?$stream_output_adapter@_W@__crt_stdio_output@@V?$standard_base@_WV?$stream_output_adapter@_W@__crt_stdio_output@@@2@@__crt_stdio_output@@AAE_NXZ 100a5f10 f i libucrtd:output.obj
 0001:000a4f30       ?state_case_dot@?$output_processor@_WV?$string_output_adapter@_W@__crt_stdio_output@@V?$format_validation_base@_WV?$string_output_adapter@_W@__crt_stdio_output@@@2@@__crt_stdio_output@@AAE_NXZ 100a5f30 f i libucrtd:output.obj
 0001:000a4f50       ?state_case_dot@?$output_processor@_WV?$string_output_adapter@_W@__crt_stdio_output@@V?$positional_parameter_base@_WV?$string_output_adapter@_W@__crt_stdio_output@@@2@@__crt_stdio_output@@AAE_NXZ 100a5f50 f i libucrtd:output.obj
 0001:000a4f70       ?state_case_dot@?$output_processor@_WV?$string_output_adapter@_W@__crt_stdio_output@@V?$standard_base@_WV?$string_output_adapter@_W@__crt_stdio_output@@@2@@__crt_stdio_output@@AAE_NXZ 100a5f70 f i libucrtd:output.obj
 0001:000a4f90       ?state_case_flag@?$output_processor@DV?$stream_output_adapter@D@__crt_stdio_output@@V?$format_validation_base@DV?$stream_output_adapter@D@__crt_stdio_output@@@2@@__crt_stdio_output@@AAE_NXZ 100a5f90 f i libucrtd:output.obj
 0001:000a5060       ?state_case_flag@?$output_processor@DV?$stream_output_adapter@D@__crt_stdio_output@@V?$positional_parameter_base@DV?$stream_output_adapter@D@__crt_stdio_output@@@2@@__crt_stdio_output@@AAE_NXZ 100a6060 f i libucrtd:output.obj
 0001:000a5130       ?state_case_flag@?$output_processor@DV?$stream_output_adapter@D@__crt_stdio_output@@V?$standard_base@DV?$stream_output_adapter@D@__crt_stdio_output@@@2@@__crt_stdio_output@@AAE_NXZ 100a6130 f i libucrtd:output.obj
 0001:000a5200       ?state_case_flag@?$output_processor@DV?$string_output_adapter@D@__crt_stdio_output@@V?$format_validation_base@DV?$string_output_adapter@D@__crt_stdio_output@@@2@@__crt_stdio_output@@AAE_NXZ 100a6200 f i libucrtd:output.obj
 0001:000a52d0       ?state_case_flag@?$output_processor@DV?$string_output_adapter@D@__crt_stdio_output@@V?$positional_parameter_base@DV?$string_output_adapter@D@__crt_stdio_output@@@2@@__crt_stdio_output@@AAE_NXZ 100a62d0 f i libucrtd:output.obj
 0001:000a53a0       ?state_case_flag@?$output_processor@DV?$string_output_adapter@D@__crt_stdio_output@@V?$standard_base@DV?$string_output_adapter@D@__crt_stdio_output@@@2@@__crt_stdio_output@@AAE_NXZ 100a63a0 f i libucrtd:output.obj
 0001:000a5470       ?state_case_flag@?$output_processor@_WV?$stream_output_adapter@_W@__crt_stdio_output@@V?$format_validation_base@_WV?$stream_output_adapter@_W@__crt_stdio_output@@@2@@__crt_stdio_output@@AAE_NXZ 100a6470 f i libucrtd:output.obj
 0001:000a5540       ?state_case_flag@?$output_processor@_WV?$stream_output_adapter@_W@__crt_stdio_output@@V?$positional_parameter_base@_WV?$stream_output_adapter@_W@__crt_stdio_output@@@2@@__crt_stdio_output@@AAE_NXZ 100a6540 f i libucrtd:output.obj
 0001:000a5610       ?state_case_flag@?$output_processor@_WV?$stream_output_adapter@_W@__crt_stdio_output@@V?$standard_base@_WV?$stream_output_adapter@_W@__crt_stdio_output@@@2@@__crt_stdio_output@@AAE_NXZ 100a6610 f i libucrtd:output.obj
 0001:000a56e0       ?state_case_flag@?$output_processor@_WV?$string_output_adapter@_W@__crt_stdio_output@@V?$format_validation_base@_WV?$string_output_adapter@_W@__crt_stdio_output@@@2@@__crt_stdio_output@@AAE_NXZ 100a66e0 f i libucrtd:output.obj
 0001:000a57b0       ?state_case_flag@?$output_processor@_WV?$string_output_adapter@_W@__crt_stdio_output@@V?$positional_parameter_base@_WV?$string_output_adapter@_W@__crt_stdio_output@@@2@@__crt_stdio_output@@AAE_NXZ 100a67b0 f i libucrtd:output.obj
 0001:000a5880       ?state_case_flag@?$output_processor@_WV?$string_output_adapter@_W@__crt_stdio_output@@V?$standard_base@_WV?$string_output_adapter@_W@__crt_stdio_output@@@2@@__crt_stdio_output@@AAE_NXZ 100a6880 f i libucrtd:output.obj
 0001:000a5950       ?state_case_normal@?$output_processor@DV?$stream_output_adapter@D@__crt_stdio_output@@V?$format_validation_base@DV?$stream_output_adapter@D@__crt_stdio_output@@@2@@__crt_stdio_output@@AAE_NXZ 100a6950 f i libucrtd:output.obj
 0001:000a5a40       ?state_case_normal@?$output_processor@DV?$stream_output_adapter@D@__crt_stdio_output@@V?$positional_parameter_base@DV?$stream_output_adapter@D@__crt_stdio_output@@@2@@__crt_stdio_output@@AAE_NXZ 100a6a40 f i libucrtd:output.obj
 0001:000a5b30       ?state_case_normal@?$output_processor@DV?$stream_output_adapter@D@__crt_stdio_output@@V?$standard_base@DV?$stream_output_adapter@D@__crt_stdio_output@@@2@@__crt_stdio_output@@AAE_NXZ 100a6b30 f i libucrtd:output.obj
 0001:000a5c20       ?state_case_normal@?$output_processor@DV?$string_output_adapter@D@__crt_stdio_output@@V?$format_validation_base@DV?$string_output_adapter@D@__crt_stdio_output@@@2@@__crt_stdio_output@@AAE_NXZ 100a6c20 f i libucrtd:output.obj
 0001:000a5d10       ?state_case_normal@?$output_processor@DV?$string_output_adapter@D@__crt_stdio_output@@V?$positional_parameter_base@DV?$string_output_adapter@D@__crt_stdio_output@@@2@@__crt_stdio_output@@AAE_NXZ 100a6d10 f i libucrtd:output.obj
 0001:000a5e00       ?state_case_normal@?$output_processor@DV?$string_output_adapter@D@__crt_stdio_output@@V?$standard_base@DV?$string_output_adapter@D@__crt_stdio_output@@@2@@__crt_stdio_output@@AAE_NXZ 100a6e00 f i libucrtd:output.obj
 0001:000a5ef0       ?state_case_normal@?$output_processor@_WV?$stream_output_adapter@_W@__crt_stdio_output@@V?$format_validation_base@_WV?$stream_output_adapter@_W@__crt_stdio_output@@@2@@__crt_stdio_output@@AAE_NXZ 100a6ef0 f i libucrtd:output.obj
 0001:000a5fe0       ?state_case_normal@?$output_processor@_WV?$stream_output_adapter@_W@__crt_stdio_output@@V?$positional_parameter_base@_WV?$stream_output_adapter@_W@__crt_stdio_output@@@2@@__crt_stdio_output@@AAE_NXZ 100a6fe0 f i libucrtd:output.obj
 0001:000a60d0       ?state_case_normal@?$output_processor@_WV?$stream_output_adapter@_W@__crt_stdio_output@@V?$standard_base@_WV?$stream_output_adapter@_W@__crt_stdio_output@@@2@@__crt_stdio_output@@AAE_NXZ 100a70d0 f i libucrtd:output.obj
 0001:000a61c0       ?state_case_normal@?$output_processor@_WV?$string_output_adapter@_W@__crt_stdio_output@@V?$format_validation_base@_WV?$string_output_adapter@_W@__crt_stdio_output@@@2@@__crt_stdio_output@@AAE_NXZ 100a71c0 f i libucrtd:output.obj
 0001:000a62b0       ?state_case_normal@?$output_processor@_WV?$string_output_adapter@_W@__crt_stdio_output@@V?$positional_parameter_base@_WV?$string_output_adapter@_W@__crt_stdio_output@@@2@@__crt_stdio_output@@AAE_NXZ 100a72b0 f i libucrtd:output.obj
 0001:000a63a0       ?state_case_normal@?$output_processor@_WV?$string_output_adapter@_W@__crt_stdio_output@@V?$standard_base@_WV?$string_output_adapter@_W@__crt_stdio_output@@@2@@__crt_stdio_output@@AAE_NXZ 100a73a0 f i libucrtd:output.obj
 0001:000a6490       ?state_case_normal_common@?$output_processor@DV?$stream_output_adapter@D@__crt_stdio_output@@V?$format_validation_base@DV?$stream_output_adapter@D@__crt_stdio_output@@@2@@__crt_stdio_output@@AAE_NXZ 100a7490 f i libucrtd:output.obj
 0001:000a6500       ?state_case_normal_common@?$output_processor@DV?$stream_output_adapter@D@__crt_stdio_output@@V?$positional_parameter_base@DV?$stream_output_adapter@D@__crt_stdio_output@@@2@@__crt_stdio_output@@AAE_NXZ 100a7500 f i libucrtd:output.obj
 0001:000a6570       ?state_case_normal_common@?$output_processor@DV?$stream_output_adapter@D@__crt_stdio_output@@V?$standard_base@DV?$stream_output_adapter@D@__crt_stdio_output@@@2@@__crt_stdio_output@@AAE_NXZ 100a7570 f i libucrtd:output.obj
 0001:000a65e0       ?state_case_normal_common@?$output_processor@DV?$string_output_adapter@D@__crt_stdio_output@@V?$format_validation_base@DV?$string_output_adapter@D@__crt_stdio_output@@@2@@__crt_stdio_output@@AAE_NXZ 100a75e0 f i libucrtd:output.obj
 0001:000a6650       ?state_case_normal_common@?$output_processor@DV?$string_output_adapter@D@__crt_stdio_output@@V?$positional_parameter_base@DV?$string_output_adapter@D@__crt_stdio_output@@@2@@__crt_stdio_output@@AAE_NXZ 100a7650 f i libucrtd:output.obj
 0001:000a66c0       ?state_case_normal_common@?$output_processor@DV?$string_output_adapter@D@__crt_stdio_output@@V?$standard_base@DV?$string_output_adapter@D@__crt_stdio_output@@@2@@__crt_stdio_output@@AAE_NXZ 100a76c0 f i libucrtd:output.obj
 0001:000a6730       ?state_case_normal_common@?$output_processor@_WV?$stream_output_adapter@_W@__crt_stdio_output@@V?$format_validation_base@_WV?$stream_output_adapter@_W@__crt_stdio_output@@@2@@__crt_stdio_output@@AAE_NXZ 100a7730 f i libucrtd:output.obj
 0001:000a67a0       ?state_case_normal_common@?$output_processor@_WV?$stream_output_adapter@_W@__crt_stdio_output@@V?$positional_parameter_base@_WV?$stream_output_adapter@_W@__crt_stdio_output@@@2@@__crt_stdio_output@@AAE_NXZ 100a77a0 f i libucrtd:output.obj
 0001:000a6810       ?state_case_normal_common@?$output_processor@_WV?$stream_output_adapter@_W@__crt_stdio_output@@V?$standard_base@_WV?$stream_output_adapter@_W@__crt_stdio_output@@@2@@__crt_stdio_output@@AAE_NXZ 100a7810 f i libucrtd:output.obj
 0001:000a6880       ?state_case_normal_common@?$output_processor@_WV?$string_output_adapter@_W@__crt_stdio_output@@V?$format_validation_base@_WV?$string_output_adapter@_W@__crt_stdio_output@@@2@@__crt_stdio_output@@AAE_NXZ 100a7880 f i libucrtd:output.obj
 0001:000a68f0       ?state_case_normal_common@?$output_processor@_WV?$string_output_adapter@_W@__crt_stdio_output@@V?$positional_parameter_base@_WV?$string_output_adapter@_W@__crt_stdio_output@@@2@@__crt_stdio_output@@AAE_NXZ 100a78f0 f i libucrtd:output.obj
 0001:000a6960       ?state_case_normal_common@?$output_processor@_WV?$string_output_adapter@_W@__crt_stdio_output@@V?$standard_base@_WV?$string_output_adapter@_W@__crt_stdio_output@@@2@@__crt_stdio_output@@AAE_NXZ 100a7960 f i libucrtd:output.obj
 0001:000a69d0       ?state_case_normal_tchar@?$output_processor@DV?$stream_output_adapter@D@__crt_stdio_output@@V?$format_validation_base@DV?$stream_output_adapter@D@__crt_stdio_output@@@2@@__crt_stdio_output@@AAE_ND@Z 100a79d0 f i libucrtd:output.obj
 0001:000a6b50       ?state_case_normal_tchar@?$output_processor@DV?$stream_output_adapter@D@__crt_stdio_output@@V?$positional_parameter_base@DV?$stream_output_adapter@D@__crt_stdio_output@@@2@@__crt_stdio_output@@AAE_ND@Z 100a7b50 f i libucrtd:output.obj
 0001:000a6cd0       ?state_case_normal_tchar@?$output_processor@DV?$stream_output_adapter@D@__crt_stdio_output@@V?$standard_base@DV?$stream_output_adapter@D@__crt_stdio_output@@@2@@__crt_stdio_output@@AAE_ND@Z 100a7cd0 f i libucrtd:output.obj
 0001:000a6e50       ?state_case_normal_tchar@?$output_processor@DV?$string_output_adapter@D@__crt_stdio_output@@V?$format_validation_base@DV?$string_output_adapter@D@__crt_stdio_output@@@2@@__crt_stdio_output@@AAE_ND@Z 100a7e50 f i libucrtd:output.obj
 0001:000a6fd0       ?state_case_normal_tchar@?$output_processor@DV?$string_output_adapter@D@__crt_stdio_output@@V?$positional_parameter_base@DV?$string_output_adapter@D@__crt_stdio_output@@@2@@__crt_stdio_output@@AAE_ND@Z 100a7fd0 f i libucrtd:output.obj
 0001:000a7150       ?state_case_normal_tchar@?$output_processor@DV?$string_output_adapter@D@__crt_stdio_output@@V?$standard_base@DV?$string_output_adapter@D@__crt_stdio_output@@@2@@__crt_stdio_output@@AAE_ND@Z 100a8150 f i libucrtd:output.obj
 0001:000a72d0       ?state_case_normal_tchar@?$output_processor@_WV?$stream_output_adapter@_W@__crt_stdio_output@@V?$format_validation_base@_WV?$stream_output_adapter@_W@__crt_stdio_output@@@2@@__crt_stdio_output@@AAE_N_W@Z 100a82d0 f i libucrtd:output.obj
 0001:000a72f0       ?state_case_normal_tchar@?$output_processor@_WV?$stream_output_adapter@_W@__crt_stdio_output@@V?$positional_parameter_base@_WV?$stream_output_adapter@_W@__crt_stdio_output@@@2@@__crt_stdio_output@@AAE_N_W@Z 100a82f0 f i libucrtd:output.obj
 0001:000a7310       ?state_case_normal_tchar@?$output_processor@_WV?$stream_output_adapter@_W@__crt_stdio_output@@V?$standard_base@_WV?$stream_output_adapter@_W@__crt_stdio_output@@@2@@__crt_stdio_output@@AAE_N_W@Z 100a8310 f i libucrtd:output.obj
 0001:000a7330       ?state_case_normal_tchar@?$output_processor@_WV?$string_output_adapter@_W@__crt_stdio_output@@V?$format_validation_base@_WV?$string_output_adapter@_W@__crt_stdio_output@@@2@@__crt_stdio_output@@AAE_N_W@Z 100a8330 f i libucrtd:output.obj
 0001:000a7350       ?state_case_normal_tchar@?$output_processor@_WV?$string_output_adapter@_W@__crt_stdio_output@@V?$positional_parameter_base@_WV?$string_output_adapter@_W@__crt_stdio_output@@@2@@__crt_stdio_output@@AAE_N_W@Z 100a8350 f i libucrtd:output.obj
 0001:000a7370       ?state_case_normal_tchar@?$output_processor@_WV?$string_output_adapter@_W@__crt_stdio_output@@V?$standard_base@_WV?$string_output_adapter@_W@__crt_stdio_output@@@2@@__crt_stdio_output@@AAE_N_W@Z 100a8370 f i libucrtd:output.obj
 0001:000a7390       ?state_case_percent@?$output_processor@DV?$stream_output_adapter@D@__crt_stdio_output@@V?$format_validation_base@DV?$stream_output_adapter@D@__crt_stdio_output@@@2@@__crt_stdio_output@@AAE_NXZ 100a8390 f i libucrtd:output.obj
 0001:000a73f0       ?state_case_percent@?$output_processor@DV?$stream_output_adapter@D@__crt_stdio_output@@V?$positional_parameter_base@DV?$stream_output_adapter@D@__crt_stdio_output@@@2@@__crt_stdio_output@@AAE_NXZ 100a83f0 f i libucrtd:output.obj
 0001:000a7450       ?state_case_percent@?$output_processor@DV?$stream_output_adapter@D@__crt_stdio_output@@V?$standard_base@DV?$stream_output_adapter@D@__crt_stdio_output@@@2@@__crt_stdio_output@@AAE_NXZ 100a8450 f i libucrtd:output.obj
 0001:000a74b0       ?state_case_percent@?$output_processor@DV?$string_output_adapter@D@__crt_stdio_output@@V?$format_validation_base@DV?$string_output_adapter@D@__crt_stdio_output@@@2@@__crt_stdio_output@@AAE_NXZ 100a84b0 f i libucrtd:output.obj
 0001:000a7510       ?state_case_percent@?$output_processor@DV?$string_output_adapter@D@__crt_stdio_output@@V?$positional_parameter_base@DV?$string_output_adapter@D@__crt_stdio_output@@@2@@__crt_stdio_output@@AAE_NXZ 100a8510 f i libucrtd:output.obj
 0001:000a7570       ?state_case_percent@?$output_processor@DV?$string_output_adapter@D@__crt_stdio_output@@V?$standard_base@DV?$string_output_adapter@D@__crt_stdio_output@@@2@@__crt_stdio_output@@AAE_NXZ 100a8570 f i libucrtd:output.obj
 0001:000a75d0       ?state_case_percent@?$output_processor@_WV?$stream_output_adapter@_W@__crt_stdio_output@@V?$format_validation_base@_WV?$stream_output_adapter@_W@__crt_stdio_output@@@2@@__crt_stdio_output@@AAE_NXZ 100a85d0 f i libucrtd:output.obj
 0001:000a7630       ?state_case_percent@?$output_processor@_WV?$stream_output_adapter@_W@__crt_stdio_output@@V?$positional_parameter_base@_WV?$stream_output_adapter@_W@__crt_stdio_output@@@2@@__crt_stdio_output@@AAE_NXZ 100a8630 f i libucrtd:output.obj
 0001:000a7690       ?state_case_percent@?$output_processor@_WV?$stream_output_adapter@_W@__crt_stdio_output@@V?$standard_base@_WV?$stream_output_adapter@_W@__crt_stdio_output@@@2@@__crt_stdio_output@@AAE_NXZ 100a8690 f i libucrtd:output.obj
 0001:000a76f0       ?state_case_percent@?$output_processor@_WV?$string_output_adapter@_W@__crt_stdio_output@@V?$format_validation_base@_WV?$string_output_adapter@_W@__crt_stdio_output@@@2@@__crt_stdio_output@@AAE_NXZ 100a86f0 f i libucrtd:output.obj
 0001:000a7750       ?state_case_percent@?$output_processor@_WV?$string_output_adapter@_W@__crt_stdio_output@@V?$positional_parameter_base@_WV?$string_output_adapter@_W@__crt_stdio_output@@@2@@__crt_stdio_output@@AAE_NXZ 100a8750 f i libucrtd:output.obj
 0001:000a77b0       ?state_case_percent@?$output_processor@_WV?$string_output_adapter@_W@__crt_stdio_output@@V?$standard_base@_WV?$string_output_adapter@_W@__crt_stdio_output@@@2@@__crt_stdio_output@@AAE_NXZ 100a87b0 f i libucrtd:output.obj
 0001:000a7810       ?state_case_precision@?$output_processor@DV?$stream_output_adapter@D@__crt_stdio_output@@V?$format_validation_base@DV?$stream_output_adapter@D@__crt_stdio_output@@@2@@__crt_stdio_output@@AAE_NXZ 100a8810 f i libucrtd:output.obj
 0001:000a7890       ?state_case_precision@?$output_processor@DV?$stream_output_adapter@D@__crt_stdio_output@@V?$positional_parameter_base@DV?$stream_output_adapter@D@__crt_stdio_output@@@2@@__crt_stdio_output@@AAE_NXZ 100a8890 f i libucrtd:output.obj
 0001:000a7910       ?state_case_precision@?$output_processor@DV?$stream_output_adapter@D@__crt_stdio_output@@V?$standard_base@DV?$stream_output_adapter@D@__crt_stdio_output@@@2@@__crt_stdio_output@@AAE_NXZ 100a8910 f i libucrtd:output.obj
 0001:000a7990       ?state_case_precision@?$output_processor@DV?$string_output_adapter@D@__crt_stdio_output@@V?$format_validation_base@DV?$string_output_adapter@D@__crt_stdio_output@@@2@@__crt_stdio_output@@AAE_NXZ 100a8990 f i libucrtd:output.obj
 0001:000a7a10       ?state_case_precision@?$output_processor@DV?$string_output_adapter@D@__crt_stdio_output@@V?$positional_parameter_base@DV?$string_output_adapter@D@__crt_stdio_output@@@2@@__crt_stdio_output@@AAE_NXZ 100a8a10 f i libucrtd:output.obj
 0001:000a7a90       ?state_case_precision@?$output_processor@DV?$string_output_adapter@D@__crt_stdio_output@@V?$standard_base@DV?$string_output_adapter@D@__crt_stdio_output@@@2@@__crt_stdio_output@@AAE_NXZ 100a8a90 f i libucrtd:output.obj
 0001:000a7b10       ?state_case_precision@?$output_processor@_WV?$stream_output_adapter@_W@__crt_stdio_output@@V?$format_validation_base@_WV?$stream_output_adapter@_W@__crt_stdio_output@@@2@@__crt_stdio_output@@AAE_NXZ 100a8b10 f i libucrtd:output.obj
 0001:000a7b90       ?state_case_precision@?$output_processor@_WV?$stream_output_adapter@_W@__crt_stdio_output@@V?$positional_parameter_base@_WV?$stream_output_adapter@_W@__crt_stdio_output@@@2@@__crt_stdio_output@@AAE_NXZ 100a8b90 f i libucrtd:output.obj
 0001:000a7c10       ?state_case_precision@?$output_processor@_WV?$stream_output_adapter@_W@__crt_stdio_output@@V?$standard_base@_WV?$stream_output_adapter@_W@__crt_stdio_output@@@2@@__crt_stdio_output@@AAE_NXZ 100a8c10 f i libucrtd:output.obj
 0001:000a7c90       ?state_case_precision@?$output_processor@_WV?$string_output_adapter@_W@__crt_stdio_output@@V?$format_validation_base@_WV?$string_output_adapter@_W@__crt_stdio_output@@@2@@__crt_stdio_output@@AAE_NXZ 100a8c90 f i libucrtd:output.obj
 0001:000a7d10       ?state_case_precision@?$output_processor@_WV?$string_output_adapter@_W@__crt_stdio_output@@V?$positional_parameter_base@_WV?$string_output_adapter@_W@__crt_stdio_output@@@2@@__crt_stdio_output@@AAE_NXZ 100a8d10 f i libucrtd:output.obj
 0001:000a7d90       ?state_case_precision@?$output_processor@_WV?$string_output_adapter@_W@__crt_stdio_output@@V?$standard_base@_WV?$string_output_adapter@_W@__crt_stdio_output@@@2@@__crt_stdio_output@@AAE_NXZ 100a8d90 f i libucrtd:output.obj
 0001:000a7e10       ?state_case_size@?$output_processor@DV?$stream_output_adapter@D@__crt_stdio_output@@V?$format_validation_base@DV?$stream_output_adapter@D@__crt_stdio_output@@@2@@__crt_stdio_output@@AAE_NXZ 100a8e10 f i libucrtd:output.obj
 0001:000a82f0       ?state_case_size@?$output_processor@DV?$stream_output_adapter@D@__crt_stdio_output@@V?$positional_parameter_base@DV?$stream_output_adapter@D@__crt_stdio_output@@@2@@__crt_stdio_output@@AAE_NXZ 100a92f0 f i libucrtd:output.obj
 0001:000a87d0       ?state_case_size@?$output_processor@DV?$stream_output_adapter@D@__crt_stdio_output@@V?$standard_base@DV?$stream_output_adapter@D@__crt_stdio_output@@@2@@__crt_stdio_output@@AAE_NXZ 100a97d0 f i libucrtd:output.obj
 0001:000a8cb0       ?state_case_size@?$output_processor@DV?$string_output_adapter@D@__crt_stdio_output@@V?$format_validation_base@DV?$string_output_adapter@D@__crt_stdio_output@@@2@@__crt_stdio_output@@AAE_NXZ 100a9cb0 f i libucrtd:output.obj
 0001:000a9190       ?state_case_size@?$output_processor@DV?$string_output_adapter@D@__crt_stdio_output@@V?$positional_parameter_base@DV?$string_output_adapter@D@__crt_stdio_output@@@2@@__crt_stdio_output@@AAE_NXZ 100aa190 f i libucrtd:output.obj
 0001:000a9670       ?state_case_size@?$output_processor@DV?$string_output_adapter@D@__crt_stdio_output@@V?$standard_base@DV?$string_output_adapter@D@__crt_stdio_output@@@2@@__crt_stdio_output@@AAE_NXZ 100aa670 f i libucrtd:output.obj
 0001:000a9b50       ?state_case_size@?$output_processor@_WV?$stream_output_adapter@_W@__crt_stdio_output@@V?$format_validation_base@_WV?$stream_output_adapter@_W@__crt_stdio_output@@@2@@__crt_stdio_output@@AAE_NXZ 100aab50 f i libucrtd:output.obj
 0001:000aa030       ?state_case_size@?$output_processor@_WV?$stream_output_adapter@_W@__crt_stdio_output@@V?$positional_parameter_base@_WV?$stream_output_adapter@_W@__crt_stdio_output@@@2@@__crt_stdio_output@@AAE_NXZ 100ab030 f i libucrtd:output.obj
 0001:000aa510       ?state_case_size@?$output_processor@_WV?$stream_output_adapter@_W@__crt_stdio_output@@V?$standard_base@_WV?$stream_output_adapter@_W@__crt_stdio_output@@@2@@__crt_stdio_output@@AAE_NXZ 100ab510 f i libucrtd:output.obj
 0001:000aa9f0       ?state_case_size@?$output_processor@_WV?$string_output_adapter@_W@__crt_stdio_output@@V?$format_validation_base@_WV?$string_output_adapter@_W@__crt_stdio_output@@@2@@__crt_stdio_output@@AAE_NXZ 100ab9f0 f i libucrtd:output.obj
 0001:000aaed0       ?state_case_size@?$output_processor@_WV?$string_output_adapter@_W@__crt_stdio_output@@V?$positional_parameter_base@_WV?$string_output_adapter@_W@__crt_stdio_output@@@2@@__crt_stdio_output@@AAE_NXZ 100abed0 f i libucrtd:output.obj
 0001:000ab3b0       ?state_case_size@?$output_processor@_WV?$string_output_adapter@_W@__crt_stdio_output@@V?$standard_base@_WV?$string_output_adapter@_W@__crt_stdio_output@@@2@@__crt_stdio_output@@AAE_NXZ 100ac3b0 f i libucrtd:output.obj
 0001:000ab890       ?state_case_type@?$output_processor@DV?$stream_output_adapter@D@__crt_stdio_output@@V?$format_validation_base@DV?$stream_output_adapter@D@__crt_stdio_output@@@2@@__crt_stdio_output@@AAE_NXZ 100ac890 f i libucrtd:output.obj
 0001:000abd50       ?state_case_type@?$output_processor@DV?$stream_output_adapter@D@__crt_stdio_output@@V?$positional_parameter_base@DV?$stream_output_adapter@D@__crt_stdio_output@@@2@@__crt_stdio_output@@AAE_NXZ 100acd50 f i libucrtd:output.obj
 0001:000ac210       ?state_case_type@?$output_processor@DV?$stream_output_adapter@D@__crt_stdio_output@@V?$standard_base@DV?$stream_output_adapter@D@__crt_stdio_output@@@2@@__crt_stdio_output@@AAE_NXZ 100ad210 f i libucrtd:output.obj
 0001:000ac6d0       ?state_case_type@?$output_processor@DV?$string_output_adapter@D@__crt_stdio_output@@V?$format_validation_base@DV?$string_output_adapter@D@__crt_stdio_output@@@2@@__crt_stdio_output@@AAE_NXZ 100ad6d0 f i libucrtd:output.obj
 0001:000acb90       ?state_case_type@?$output_processor@DV?$string_output_adapter@D@__crt_stdio_output@@V?$positional_parameter_base@DV?$string_output_adapter@D@__crt_stdio_output@@@2@@__crt_stdio_output@@AAE_NXZ 100adb90 f i libucrtd:output.obj
 0001:000ad050       ?state_case_type@?$output_processor@DV?$string_output_adapter@D@__crt_stdio_output@@V?$standard_base@DV?$string_output_adapter@D@__crt_stdio_output@@@2@@__crt_stdio_output@@AAE_NXZ 100ae050 f i libucrtd:output.obj
 0001:000ad510       ?state_case_type@?$output_processor@_WV?$stream_output_adapter@_W@__crt_stdio_output@@V?$format_validation_base@_WV?$stream_output_adapter@_W@__crt_stdio_output@@@2@@__crt_stdio_output@@AAE_NXZ 100ae510 f i libucrtd:output.obj
 0001:000ada10       ?state_case_type@?$output_processor@_WV?$stream_output_adapter@_W@__crt_stdio_output@@V?$positional_parameter_base@_WV?$stream_output_adapter@_W@__crt_stdio_output@@@2@@__crt_stdio_output@@AAE_NXZ 100aea10 f i libucrtd:output.obj
 0001:000adf10       ?state_case_type@?$output_processor@_WV?$stream_output_adapter@_W@__crt_stdio_output@@V?$standard_base@_WV?$stream_output_adapter@_W@__crt_stdio_output@@@2@@__crt_stdio_output@@AAE_NXZ 100aef10 f i libucrtd:output.obj
 0001:000ae410       ?state_case_type@?$output_processor@_WV?$string_output_adapter@_W@__crt_stdio_output@@V?$format_validation_base@_WV?$string_output_adapter@_W@__crt_stdio_output@@@2@@__crt_stdio_output@@AAE_NXZ 100af410 f i libucrtd:output.obj
 0001:000ae910       ?state_case_type@?$output_processor@_WV?$string_output_adapter@_W@__crt_stdio_output@@V?$positional_parameter_base@_WV?$string_output_adapter@_W@__crt_stdio_output@@@2@@__crt_stdio_output@@AAE_NXZ 100af910 f i libucrtd:output.obj
 0001:000aee10       ?state_case_type@?$output_processor@_WV?$string_output_adapter@_W@__crt_stdio_output@@V?$standard_base@_WV?$string_output_adapter@_W@__crt_stdio_output@@@2@@__crt_stdio_output@@AAE_NXZ 100afe10 f i libucrtd:output.obj
 0001:000af310       ?state_case_width@?$output_processor@DV?$stream_output_adapter@D@__crt_stdio_output@@V?$format_validation_base@DV?$stream_output_adapter@D@__crt_stdio_output@@@2@@__crt_stdio_output@@AAE_NXZ 100b0310 f i libucrtd:output.obj
 0001:000af3a0       ?state_case_width@?$output_processor@DV?$stream_output_adapter@D@__crt_stdio_output@@V?$positional_parameter_base@DV?$stream_output_adapter@D@__crt_stdio_output@@@2@@__crt_stdio_output@@AAE_NXZ 100b03a0 f i libucrtd:output.obj
 0001:000af430       ?state_case_width@?$output_processor@DV?$stream_output_adapter@D@__crt_stdio_output@@V?$standard_base@DV?$stream_output_adapter@D@__crt_stdio_output@@@2@@__crt_stdio_output@@AAE_NXZ 100b0430 f i libucrtd:output.obj
 0001:000af4c0       ?state_case_width@?$output_processor@DV?$string_output_adapter@D@__crt_stdio_output@@V?$format_validation_base@DV?$string_output_adapter@D@__crt_stdio_output@@@2@@__crt_stdio_output@@AAE_NXZ 100b04c0 f i libucrtd:output.obj
 0001:000af550       ?state_case_width@?$output_processor@DV?$string_output_adapter@D@__crt_stdio_output@@V?$positional_parameter_base@DV?$string_output_adapter@D@__crt_stdio_output@@@2@@__crt_stdio_output@@AAE_NXZ 100b0550 f i libucrtd:output.obj
 0001:000af5e0       ?state_case_width@?$output_processor@DV?$string_output_adapter@D@__crt_stdio_output@@V?$standard_base@DV?$string_output_adapter@D@__crt_stdio_output@@@2@@__crt_stdio_output@@AAE_NXZ 100b05e0 f i libucrtd:output.obj
 0001:000af670       ?state_case_width@?$output_processor@_WV?$stream_output_adapter@_W@__crt_stdio_output@@V?$format_validation_base@_WV?$stream_output_adapter@_W@__crt_stdio_output@@@2@@__crt_stdio_output@@AAE_NXZ 100b0670 f i libucrtd:output.obj
 0001:000af700       ?state_case_width@?$output_processor@_WV?$stream_output_adapter@_W@__crt_stdio_output@@V?$positional_parameter_base@_WV?$stream_output_adapter@_W@__crt_stdio_output@@@2@@__crt_stdio_output@@AAE_NXZ 100b0700 f i libucrtd:output.obj
 0001:000af790       ?state_case_width@?$output_processor@_WV?$stream_output_adapter@_W@__crt_stdio_output@@V?$standard_base@_WV?$stream_output_adapter@_W@__crt_stdio_output@@@2@@__crt_stdio_output@@AAE_NXZ 100b0790 f i libucrtd:output.obj
 0001:000af820       ?state_case_width@?$output_processor@_WV?$string_output_adapter@_W@__crt_stdio_output@@V?$format_validation_base@_WV?$string_output_adapter@_W@__crt_stdio_output@@@2@@__crt_stdio_output@@AAE_NXZ 100b0820 f i libucrtd:output.obj
 0001:000af8b0       ?state_case_width@?$output_processor@_WV?$string_output_adapter@_W@__crt_stdio_output@@V?$positional_parameter_base@_WV?$string_output_adapter@_W@__crt_stdio_output@@@2@@__crt_stdio_output@@AAE_NXZ 100b08b0 f i libucrtd:output.obj
 0001:000af940       ?state_case_width@?$output_processor@_WV?$string_output_adapter@_W@__crt_stdio_output@@V?$standard_base@_WV?$string_output_adapter@_W@__crt_stdio_output@@@2@@__crt_stdio_output@@AAE_NXZ 100b0940 f i libucrtd:output.obj
 0001:000af9d0       ?state_count@?$format_validation_base@DV?$stream_output_adapter@D@__crt_stdio_output@@@__crt_stdio_output@@KAIXZ 100b09d0 f i libucrtd:output.obj
 0001:000af9e0       ?state_count@?$format_validation_base@DV?$string_output_adapter@D@__crt_stdio_output@@@__crt_stdio_output@@KAIXZ 100b09e0 f i libucrtd:output.obj
 0001:000af9f0       ?state_count@?$format_validation_base@_WV?$stream_output_adapter@_W@__crt_stdio_output@@@__crt_stdio_output@@KAIXZ 100b09f0 f i libucrtd:output.obj
 0001:000afa00       ?state_count@?$format_validation_base@_WV?$string_output_adapter@_W@__crt_stdio_output@@@__crt_stdio_output@@KAIXZ 100b0a00 f i libucrtd:output.obj
 0001:000afa10       ?state_count@?$standard_base@DV?$stream_output_adapter@D@__crt_stdio_output@@@__crt_stdio_output@@KAIXZ 100b0a10 f i libucrtd:output.obj
 0001:000afa20       ?state_count@?$standard_base@DV?$string_output_adapter@D@__crt_stdio_output@@@__crt_stdio_output@@KAIXZ 100b0a20 f i libucrtd:output.obj
 0001:000afa30       ?state_count@?$standard_base@_WV?$stream_output_adapter@_W@__crt_stdio_output@@@__crt_stdio_output@@KAIXZ 100b0a30 f i libucrtd:output.obj
 0001:000afa40       ?state_count@?$standard_base@_WV?$string_output_adapter@_W@__crt_stdio_output@@@__crt_stdio_output@@KAIXZ 100b0a40 f i libucrtd:output.obj
 0001:000afa50       ?state_transition_table@?$format_validation_base@DV?$stream_output_adapter@D@__crt_stdio_output@@@__crt_stdio_output@@KAABV?$spectre_mitigated_lookup_table@Ustate_transition_pair@__crt_stdio_output@@$0IA@@2@XZ 100b0a50 f i libucrtd:output.obj
 0001:000afa60       ?state_transition_table@?$format_validation_base@DV?$string_output_adapter@D@__crt_stdio_output@@@__crt_stdio_output@@KAABV?$spectre_mitigated_lookup_table@Ustate_transition_pair@__crt_stdio_output@@$0IA@@2@XZ 100b0a60 f i libucrtd:output.obj
 0001:000afa70       ?state_transition_table@?$format_validation_base@_WV?$stream_output_adapter@_W@__crt_stdio_output@@@__crt_stdio_output@@KAABV?$spectre_mitigated_lookup_table@Ustate_transition_pair@__crt_stdio_output@@$0IA@@2@XZ 100b0a70 f i libucrtd:output.obj
 0001:000afa80       ?state_transition_table@?$format_validation_base@_WV?$string_output_adapter@_W@__crt_stdio_output@@@__crt_stdio_output@@KAABV?$spectre_mitigated_lookup_table@Ustate_transition_pair@__crt_stdio_output@@$0IA@@2@XZ 100b0a80 f i libucrtd:output.obj
 0001:000afa90       ?state_transition_table@?$standard_base@DV?$stream_output_adapter@D@__crt_stdio_output@@@__crt_stdio_output@@KAABV?$spectre_mitigated_lookup_table@Ustate_transition_pair@__crt_stdio_output@@$0IA@@2@XZ 100b0a90 f i libucrtd:output.obj
 0001:000afaa0       ?state_transition_table@?$standard_base@DV?$string_output_adapter@D@__crt_stdio_output@@@__crt_stdio_output@@KAABV?$spectre_mitigated_lookup_table@Ustate_transition_pair@__crt_stdio_output@@$0IA@@2@XZ 100b0aa0 f i libucrtd:output.obj
 0001:000afab0       ?state_transition_table@?$standard_base@_WV?$stream_output_adapter@_W@__crt_stdio_output@@@__crt_stdio_output@@KAABV?$spectre_mitigated_lookup_table@Ustate_transition_pair@__crt_stdio_output@@$0IA@@2@XZ 100b0ab0 f i libucrtd:output.obj
 0001:000afac0       ?state_transition_table@?$standard_base@_WV?$string_output_adapter@_W@__crt_stdio_output@@@__crt_stdio_output@@KAABV?$spectre_mitigated_lookup_table@Ustate_transition_pair@__crt_stdio_output@@$0IA@@2@XZ 100b0ac0 f i libucrtd:output.obj
 0001:000afad0       ?tchar_string@?$common_data@D@__crt_stdio_output@@IAEAAPADD@Z 100b0ad0 f i libucrtd:output.obj
 0001:000afaf0       ?tchar_string@?$common_data@D@__crt_stdio_output@@IAEAAPADXZ 100b0af0 f i libucrtd:output.obj
 0001:000afb10       ?tchar_string@?$common_data@_W@__crt_stdio_output@@IAEAAPA_WXZ 100b0b10 f i libucrtd:output.obj
 0001:000afb30       ?tchar_string@?$common_data@_W@__crt_stdio_output@@IAEAAPA_W_W@Z 100b0b30 f i libucrtd:output.obj
 0001:000afb50       ?to_integer_size@__crt_stdio_output@@YAIW4length_modifier@1@@Z 100b0b50 f i libucrtd:output.obj
 0001:000afc20       ?type_case_X@?$output_processor@DV?$stream_output_adapter@D@__crt_stdio_output@@V?$format_validation_base@DV?$stream_output_adapter@D@__crt_stdio_output@@@2@@__crt_stdio_output@@AAE_NXZ 100b0c20 f i libucrtd:output.obj
 0001:000afc40       ?type_case_X@?$output_processor@DV?$stream_output_adapter@D@__crt_stdio_output@@V?$positional_parameter_base@DV?$stream_output_adapter@D@__crt_stdio_output@@@2@@__crt_stdio_output@@AAE_NXZ 100b0c40 f i libucrtd:output.obj
 0001:000afc60       ?type_case_X@?$output_processor@DV?$stream_output_adapter@D@__crt_stdio_output@@V?$standard_base@DV?$stream_output_adapter@D@__crt_stdio_output@@@2@@__crt_stdio_output@@AAE_NXZ 100b0c60 f i libucrtd:output.obj
 0001:000afc80       ?type_case_X@?$output_processor@DV?$string_output_adapter@D@__crt_stdio_output@@V?$format_validation_base@DV?$string_output_adapter@D@__crt_stdio_output@@@2@@__crt_stdio_output@@AAE_NXZ 100b0c80 f i libucrtd:output.obj
 0001:000afca0       ?type_case_X@?$output_processor@DV?$string_output_adapter@D@__crt_stdio_output@@V?$positional_parameter_base@DV?$string_output_adapter@D@__crt_stdio_output@@@2@@__crt_stdio_output@@AAE_NXZ 100b0ca0 f i libucrtd:output.obj
 0001:000afcc0       ?type_case_X@?$output_processor@DV?$string_output_adapter@D@__crt_stdio_output@@V?$standard_base@DV?$string_output_adapter@D@__crt_stdio_output@@@2@@__crt_stdio_output@@AAE_NXZ 100b0cc0 f i libucrtd:output.obj
 0001:000afce0       ?type_case_X@?$output_processor@_WV?$stream_output_adapter@_W@__crt_stdio_output@@V?$format_validation_base@_WV?$stream_output_adapter@_W@__crt_stdio_output@@@2@@__crt_stdio_output@@AAE_NXZ 100b0ce0 f i libucrtd:output.obj
 0001:000afd00       ?type_case_X@?$output_processor@_WV?$stream_output_adapter@_W@__crt_stdio_output@@V?$positional_parameter_base@_WV?$stream_output_adapter@_W@__crt_stdio_output@@@2@@__crt_stdio_output@@AAE_NXZ 100b0d00 f i libucrtd:output.obj
 0001:000afd20       ?type_case_X@?$output_processor@_WV?$stream_output_adapter@_W@__crt_stdio_output@@V?$standard_base@_WV?$stream_output_adapter@_W@__crt_stdio_output@@@2@@__crt_stdio_output@@AAE_NXZ 100b0d20 f i libucrtd:output.obj
 0001:000afd40       ?type_case_X@?$output_processor@_WV?$string_output_adapter@_W@__crt_stdio_output@@V?$format_validation_base@_WV?$string_output_adapter@_W@__crt_stdio_output@@@2@@__crt_stdio_output@@AAE_NXZ 100b0d40 f i libucrtd:output.obj
 0001:000afd60       ?type_case_X@?$output_processor@_WV?$string_output_adapter@_W@__crt_stdio_output@@V?$positional_parameter_base@_WV?$string_output_adapter@_W@__crt_stdio_output@@@2@@__crt_stdio_output@@AAE_NXZ 100b0d60 f i libucrtd:output.obj
 0001:000afd80       ?type_case_X@?$output_processor@_WV?$string_output_adapter@_W@__crt_stdio_output@@V?$standard_base@_WV?$string_output_adapter@_W@__crt_stdio_output@@@2@@__crt_stdio_output@@AAE_NXZ 100b0d80 f i libucrtd:output.obj
 0001:000afda0       ?type_case_Z@?$output_processor@DV?$stream_output_adapter@D@__crt_stdio_output@@V?$format_validation_base@DV?$stream_output_adapter@D@__crt_stdio_output@@@2@@__crt_stdio_output@@AAE_NXZ 100b0da0 f i libucrtd:output.obj
 0001:000afed0       ?type_case_Z@?$output_processor@DV?$stream_output_adapter@D@__crt_stdio_output@@V?$positional_parameter_base@DV?$stream_output_adapter@D@__crt_stdio_output@@@2@@__crt_stdio_output@@AAE_NXZ 100b0ed0 f i libucrtd:output.obj
 0001:000b0000       ?type_case_Z@?$output_processor@DV?$stream_output_adapter@D@__crt_stdio_output@@V?$standard_base@DV?$stream_output_adapter@D@__crt_stdio_output@@@2@@__crt_stdio_output@@AAE_NXZ 100b1000 f i libucrtd:output.obj
 0001:000b0130       ?type_case_Z@?$output_processor@DV?$string_output_adapter@D@__crt_stdio_output@@V?$format_validation_base@DV?$string_output_adapter@D@__crt_stdio_output@@@2@@__crt_stdio_output@@AAE_NXZ 100b1130 f i libucrtd:output.obj
 0001:000b0260       ?type_case_Z@?$output_processor@DV?$string_output_adapter@D@__crt_stdio_output@@V?$positional_parameter_base@DV?$string_output_adapter@D@__crt_stdio_output@@@2@@__crt_stdio_output@@AAE_NXZ 100b1260 f i libucrtd:output.obj
 0001:000b0390       ?type_case_Z@?$output_processor@DV?$string_output_adapter@D@__crt_stdio_output@@V?$standard_base@DV?$string_output_adapter@D@__crt_stdio_output@@@2@@__crt_stdio_output@@AAE_NXZ 100b1390 f i libucrtd:output.obj
 0001:000b04c0       ?type_case_Z@?$output_processor@_WV?$stream_output_adapter@_W@__crt_stdio_output@@V?$format_validation_base@_WV?$stream_output_adapter@_W@__crt_stdio_output@@@2@@__crt_stdio_output@@AAE_NXZ 100b14c0 f i libucrtd:output.obj
 0001:000b05f0       ?type_case_Z@?$output_processor@_WV?$stream_output_adapter@_W@__crt_stdio_output@@V?$positional_parameter_base@_WV?$stream_output_adapter@_W@__crt_stdio_output@@@2@@__crt_stdio_output@@AAE_NXZ 100b15f0 f i libucrtd:output.obj
 0001:000b0720       ?type_case_Z@?$output_processor@_WV?$stream_output_adapter@_W@__crt_stdio_output@@V?$standard_base@_WV?$stream_output_adapter@_W@__crt_stdio_output@@@2@@__crt_stdio_output@@AAE_NXZ 100b1720 f i libucrtd:output.obj
 0001:000b0850       ?type_case_Z@?$output_processor@_WV?$string_output_adapter@_W@__crt_stdio_output@@V?$format_validation_base@_WV?$string_output_adapter@_W@__crt_stdio_output@@@2@@__crt_stdio_output@@AAE_NXZ 100b1850 f i libucrtd:output.obj
 0001:000b0980       ?type_case_Z@?$output_processor@_WV?$string_output_adapter@_W@__crt_stdio_output@@V?$positional_parameter_base@_WV?$string_output_adapter@_W@__crt_stdio_output@@@2@@__crt_stdio_output@@AAE_NXZ 100b1980 f i libucrtd:output.obj
 0001:000b0ab0       ?type_case_Z@?$output_processor@_WV?$string_output_adapter@_W@__crt_stdio_output@@V?$standard_base@_WV?$string_output_adapter@_W@__crt_stdio_output@@@2@@__crt_stdio_output@@AAE_NXZ 100b1ab0 f i libucrtd:output.obj
 0001:000b0be0       ?type_case_a@?$output_processor@DV?$stream_output_adapter@D@__crt_stdio_output@@V?$format_validation_base@DV?$stream_output_adapter@D@__crt_stdio_output@@@2@@__crt_stdio_output@@AAE_NXZ 100b1be0 f i libucrtd:output.obj
 0001:000b0f60       ?type_case_a@?$output_processor@DV?$stream_output_adapter@D@__crt_stdio_output@@V?$positional_parameter_base@DV?$stream_output_adapter@D@__crt_stdio_output@@@2@@__crt_stdio_output@@AAE_NXZ 100b1f60 f i libucrtd:output.obj
 0001:000b12e0       ?type_case_a@?$output_processor@DV?$stream_output_adapter@D@__crt_stdio_output@@V?$standard_base@DV?$stream_output_adapter@D@__crt_stdio_output@@@2@@__crt_stdio_output@@AAE_NXZ 100b22e0 f i libucrtd:output.obj
 0001:000b1660       ?type_case_a@?$output_processor@DV?$string_output_adapter@D@__crt_stdio_output@@V?$format_validation_base@DV?$string_output_adapter@D@__crt_stdio_output@@@2@@__crt_stdio_output@@AAE_NXZ 100b2660 f i libucrtd:output.obj
 0001:000b19e0       ?type_case_a@?$output_processor@DV?$string_output_adapter@D@__crt_stdio_output@@V?$positional_parameter_base@DV?$string_output_adapter@D@__crt_stdio_output@@@2@@__crt_stdio_output@@AAE_NXZ 100b29e0 f i libucrtd:output.obj
 0001:000b1d60       ?type_case_a@?$output_processor@DV?$string_output_adapter@D@__crt_stdio_output@@V?$standard_base@DV?$string_output_adapter@D@__crt_stdio_output@@@2@@__crt_stdio_output@@AAE_NXZ 100b2d60 f i libucrtd:output.obj
 0001:000b20e0       ?type_case_a@?$output_processor@_WV?$stream_output_adapter@_W@__crt_stdio_output@@V?$format_validation_base@_WV?$stream_output_adapter@_W@__crt_stdio_output@@@2@@__crt_stdio_output@@AAE_NXZ 100b30e0 f i libucrtd:output.obj
 0001:000b2470       ?type_case_a@?$output_processor@_WV?$stream_output_adapter@_W@__crt_stdio_output@@V?$positional_parameter_base@_WV?$stream_output_adapter@_W@__crt_stdio_output@@@2@@__crt_stdio_output@@AAE_NXZ 100b3470 f i libucrtd:output.obj
 0001:000b2800       ?type_case_a@?$output_processor@_WV?$stream_output_adapter@_W@__crt_stdio_output@@V?$standard_base@_WV?$stream_output_adapter@_W@__crt_stdio_output@@@2@@__crt_stdio_output@@AAE_NXZ 100b3800 f i libucrtd:output.obj
 0001:000b2b90       ?type_case_a@?$output_processor@_WV?$string_output_adapter@_W@__crt_stdio_output@@V?$format_validation_base@_WV?$string_output_adapter@_W@__crt_stdio_output@@@2@@__crt_stdio_output@@AAE_NXZ 100b3b90 f i libucrtd:output.obj
 0001:000b2f20       ?type_case_a@?$output_processor@_WV?$string_output_adapter@_W@__crt_stdio_output@@V?$positional_parameter_base@_WV?$string_output_adapter@_W@__crt_stdio_output@@@2@@__crt_stdio_output@@AAE_NXZ 100b3f20 f i libucrtd:output.obj
 0001:000b32b0       ?type_case_a@?$output_processor@_WV?$string_output_adapter@_W@__crt_stdio_output@@V?$standard_base@_WV?$string_output_adapter@_W@__crt_stdio_output@@@2@@__crt_stdio_output@@AAE_NXZ 100b42b0 f i libucrtd:output.obj
 0001:000b3640       ?type_case_c@?$output_processor@DV?$stream_output_adapter@D@__crt_stdio_output@@V?$format_validation_base@DV?$stream_output_adapter@D@__crt_stdio_output@@@2@@__crt_stdio_output@@AAE_NXZ 100b4640 f i libucrtd:output.obj
 0001:000b3660       ?type_case_c@?$output_processor@DV?$stream_output_adapter@D@__crt_stdio_output@@V?$positional_parameter_base@DV?$stream_output_adapter@D@__crt_stdio_output@@@2@@__crt_stdio_output@@AAE_NXZ 100b4660 f i libucrtd:output.obj
 0001:000b3680       ?type_case_c@?$output_processor@DV?$stream_output_adapter@D@__crt_stdio_output@@V?$standard_base@DV?$stream_output_adapter@D@__crt_stdio_output@@@2@@__crt_stdio_output@@AAE_NXZ 100b4680 f i libucrtd:output.obj
 0001:000b36a0       ?type_case_c@?$output_processor@DV?$string_output_adapter@D@__crt_stdio_output@@V?$format_validation_base@DV?$string_output_adapter@D@__crt_stdio_output@@@2@@__crt_stdio_output@@AAE_NXZ 100b46a0 f i libucrtd:output.obj
 0001:000b36c0       ?type_case_c@?$output_processor@DV?$string_output_adapter@D@__crt_stdio_output@@V?$positional_parameter_base@DV?$string_output_adapter@D@__crt_stdio_output@@@2@@__crt_stdio_output@@AAE_NXZ 100b46c0 f i libucrtd:output.obj
 0001:000b36e0       ?type_case_c@?$output_processor@DV?$string_output_adapter@D@__crt_stdio_output@@V?$standard_base@DV?$string_output_adapter@D@__crt_stdio_output@@@2@@__crt_stdio_output@@AAE_NXZ 100b46e0 f i libucrtd:output.obj
 0001:000b3700       ?type_case_c@?$output_processor@_WV?$stream_output_adapter@_W@__crt_stdio_output@@V?$format_validation_base@_WV?$stream_output_adapter@_W@__crt_stdio_output@@@2@@__crt_stdio_output@@AAE_NXZ 100b4700 f i libucrtd:output.obj
 0001:000b3720       ?type_case_c@?$output_processor@_WV?$stream_output_adapter@_W@__crt_stdio_output@@V?$positional_parameter_base@_WV?$stream_output_adapter@_W@__crt_stdio_output@@@2@@__crt_stdio_output@@AAE_NXZ 100b4720 f i libucrtd:output.obj
 0001:000b3740       ?type_case_c@?$output_processor@_WV?$stream_output_adapter@_W@__crt_stdio_output@@V?$standard_base@_WV?$stream_output_adapter@_W@__crt_stdio_output@@@2@@__crt_stdio_output@@AAE_NXZ 100b4740 f i libucrtd:output.obj
 0001:000b3760       ?type_case_c@?$output_processor@_WV?$string_output_adapter@_W@__crt_stdio_output@@V?$format_validation_base@_WV?$string_output_adapter@_W@__crt_stdio_output@@@2@@__crt_stdio_output@@AAE_NXZ 100b4760 f i libucrtd:output.obj
 0001:000b3780       ?type_case_c@?$output_processor@_WV?$string_output_adapter@_W@__crt_stdio_output@@V?$positional_parameter_base@_WV?$string_output_adapter@_W@__crt_stdio_output@@@2@@__crt_stdio_output@@AAE_NXZ 100b4780 f i libucrtd:output.obj
 0001:000b37a0       ?type_case_c@?$output_processor@_WV?$string_output_adapter@_W@__crt_stdio_output@@V?$standard_base@_WV?$string_output_adapter@_W@__crt_stdio_output@@@2@@__crt_stdio_output@@AAE_NXZ 100b47a0 f i libucrtd:output.obj
 0001:000b37c0       ?type_case_c_tchar@?$output_processor@DV?$stream_output_adapter@D@__crt_stdio_output@@V?$format_validation_base@DV?$stream_output_adapter@D@__crt_stdio_output@@@2@@__crt_stdio_output@@AAE_ND@Z 100b47c0 f i libucrtd:output.obj
 0001:000b3940       ?type_case_c_tchar@?$output_processor@DV?$stream_output_adapter@D@__crt_stdio_output@@V?$positional_parameter_base@DV?$stream_output_adapter@D@__crt_stdio_output@@@2@@__crt_stdio_output@@AAE_ND@Z 100b4940 f i libucrtd:output.obj
 0001:000b3ac0       ?type_case_c_tchar@?$output_processor@DV?$stream_output_adapter@D@__crt_stdio_output@@V?$standard_base@DV?$stream_output_adapter@D@__crt_stdio_output@@@2@@__crt_stdio_output@@AAE_ND@Z 100b4ac0 f i libucrtd:output.obj
 0001:000b3c40       ?type_case_c_tchar@?$output_processor@DV?$string_output_adapter@D@__crt_stdio_output@@V?$format_validation_base@DV?$string_output_adapter@D@__crt_stdio_output@@@2@@__crt_stdio_output@@AAE_ND@Z 100b4c40 f i libucrtd:output.obj
 0001:000b3dc0       ?type_case_c_tchar@?$output_processor@DV?$string_output_adapter@D@__crt_stdio_output@@V?$positional_parameter_base@DV?$string_output_adapter@D@__crt_stdio_output@@@2@@__crt_stdio_output@@AAE_ND@Z 100b4dc0 f i libucrtd:output.obj
 0001:000b3f40       ?type_case_c_tchar@?$output_processor@DV?$string_output_adapter@D@__crt_stdio_output@@V?$standard_base@DV?$string_output_adapter@D@__crt_stdio_output@@@2@@__crt_stdio_output@@AAE_ND@Z 100b4f40 f i libucrtd:output.obj
 0001:000b40c0       ?type_case_c_tchar@?$output_processor@_WV?$stream_output_adapter@_W@__crt_stdio_output@@V?$format_validation_base@_WV?$stream_output_adapter@_W@__crt_stdio_output@@@2@@__crt_stdio_output@@AAE_N_W@Z 100b50c0 f i libucrtd:output.obj
 0001:000b4230       ?type_case_c_tchar@?$output_processor@_WV?$stream_output_adapter@_W@__crt_stdio_output@@V?$positional_parameter_base@_WV?$stream_output_adapter@_W@__crt_stdio_output@@@2@@__crt_stdio_output@@AAE_N_W@Z 100b5230 f i libucrtd:output.obj
 0001:000b43a0       ?type_case_c_tchar@?$output_processor@_WV?$stream_output_adapter@_W@__crt_stdio_output@@V?$standard_base@_WV?$stream_output_adapter@_W@__crt_stdio_output@@@2@@__crt_stdio_output@@AAE_N_W@Z 100b53a0 f i libucrtd:output.obj
 0001:000b4510       ?type_case_c_tchar@?$output_processor@_WV?$string_output_adapter@_W@__crt_stdio_output@@V?$format_validation_base@_WV?$string_output_adapter@_W@__crt_stdio_output@@@2@@__crt_stdio_output@@AAE_N_W@Z 100b5510 f i libucrtd:output.obj
 0001:000b4680       ?type_case_c_tchar@?$output_processor@_WV?$string_output_adapter@_W@__crt_stdio_output@@V?$positional_parameter_base@_WV?$string_output_adapter@_W@__crt_stdio_output@@@2@@__crt_stdio_output@@AAE_N_W@Z 100b5680 f i libucrtd:output.obj
 0001:000b47f0       ?type_case_c_tchar@?$output_processor@_WV?$string_output_adapter@_W@__crt_stdio_output@@V?$standard_base@_WV?$string_output_adapter@_W@__crt_stdio_output@@@2@@__crt_stdio_output@@AAE_N_W@Z 100b57f0 f i libucrtd:output.obj
 0001:000b4960       ?type_case_d@?$output_processor@DV?$stream_output_adapter@D@__crt_stdio_output@@V?$format_validation_base@DV?$stream_output_adapter@D@__crt_stdio_output@@@2@@__crt_stdio_output@@AAE_NXZ 100b5960 f i libucrtd:output.obj
 0001:000b4990       ?type_case_d@?$output_processor@DV?$stream_output_adapter@D@__crt_stdio_output@@V?$positional_parameter_base@DV?$stream_output_adapter@D@__crt_stdio_output@@@2@@__crt_stdio_output@@AAE_NXZ 100b5990 f i libucrtd:output.obj
 0001:000b49c0       ?type_case_d@?$output_processor@DV?$stream_output_adapter@D@__crt_stdio_output@@V?$standard_base@DV?$stream_output_adapter@D@__crt_stdio_output@@@2@@__crt_stdio_output@@AAE_NXZ 100b59c0 f i libucrtd:output.obj
 0001:000b49f0       ?type_case_d@?$output_processor@DV?$string_output_adapter@D@__crt_stdio_output@@V?$format_validation_base@DV?$string_output_adapter@D@__crt_stdio_output@@@2@@__crt_stdio_output@@AAE_NXZ 100b59f0 f i libucrtd:output.obj
 0001:000b4a20       ?type_case_d@?$output_processor@DV?$string_output_adapter@D@__crt_stdio_output@@V?$positional_parameter_base@DV?$string_output_adapter@D@__crt_stdio_output@@@2@@__crt_stdio_output@@AAE_NXZ 100b5a20 f i libucrtd:output.obj
 0001:000b4a50       ?type_case_d@?$output_processor@DV?$string_output_adapter@D@__crt_stdio_output@@V?$standard_base@DV?$string_output_adapter@D@__crt_stdio_output@@@2@@__crt_stdio_output@@AAE_NXZ 100b5a50 f i libucrtd:output.obj
 0001:000b4a80       ?type_case_d@?$output_processor@_WV?$stream_output_adapter@_W@__crt_stdio_output@@V?$format_validation_base@_WV?$stream_output_adapter@_W@__crt_stdio_output@@@2@@__crt_stdio_output@@AAE_NXZ 100b5a80 f i libucrtd:output.obj
 0001:000b4ab0       ?type_case_d@?$output_processor@_WV?$stream_output_adapter@_W@__crt_stdio_output@@V?$positional_parameter_base@_WV?$stream_output_adapter@_W@__crt_stdio_output@@@2@@__crt_stdio_output@@AAE_NXZ 100b5ab0 f i libucrtd:output.obj
 0001:000b4ae0       ?type_case_d@?$output_processor@_WV?$stream_output_adapter@_W@__crt_stdio_output@@V?$standard_base@_WV?$stream_output_adapter@_W@__crt_stdio_output@@@2@@__crt_stdio_output@@AAE_NXZ 100b5ae0 f i libucrtd:output.obj
 0001:000b4b10       ?type_case_d@?$output_processor@_WV?$string_output_adapter@_W@__crt_stdio_output@@V?$format_validation_base@_WV?$string_output_adapter@_W@__crt_stdio_output@@@2@@__crt_stdio_output@@AAE_NXZ 100b5b10 f i libucrtd:output.obj
 0001:000b4b40       ?type_case_d@?$output_processor@_WV?$string_output_adapter@_W@__crt_stdio_output@@V?$positional_parameter_base@_WV?$string_output_adapter@_W@__crt_stdio_output@@@2@@__crt_stdio_output@@AAE_NXZ 100b5b40 f i libucrtd:output.obj
 0001:000b4b70       ?type_case_d@?$output_processor@_WV?$string_output_adapter@_W@__crt_stdio_output@@V?$standard_base@_WV?$string_output_adapter@_W@__crt_stdio_output@@@2@@__crt_stdio_output@@AAE_NXZ 100b5b70 f i libucrtd:output.obj
 0001:000b4ba0       ?type_case_n@?$output_processor@DV?$stream_output_adapter@D@__crt_stdio_output@@V?$format_validation_base@DV?$stream_output_adapter@D@__crt_stdio_output@@@2@@__crt_stdio_output@@AAE_NXZ 100b5ba0 f i libucrtd:output.obj
 0001:000b4e40       ?type_case_n@?$output_processor@DV?$stream_output_adapter@D@__crt_stdio_output@@V?$positional_parameter_base@DV?$stream_output_adapter@D@__crt_stdio_output@@@2@@__crt_stdio_output@@AAE_NXZ 100b5e40 f i libucrtd:output.obj
 0001:000b50e0       ?type_case_n@?$output_processor@DV?$stream_output_adapter@D@__crt_stdio_output@@V?$standard_base@DV?$stream_output_adapter@D@__crt_stdio_output@@@2@@__crt_stdio_output@@AAE_NXZ 100b60e0 f i libucrtd:output.obj
 0001:000b5380       ?type_case_n@?$output_processor@DV?$string_output_adapter@D@__crt_stdio_output@@V?$format_validation_base@DV?$string_output_adapter@D@__crt_stdio_output@@@2@@__crt_stdio_output@@AAE_NXZ 100b6380 f i libucrtd:output.obj
 0001:000b5620       ?type_case_n@?$output_processor@DV?$string_output_adapter@D@__crt_stdio_output@@V?$positional_parameter_base@DV?$string_output_adapter@D@__crt_stdio_output@@@2@@__crt_stdio_output@@AAE_NXZ 100b6620 f i libucrtd:output.obj
 0001:000b58c0       ?type_case_n@?$output_processor@DV?$string_output_adapter@D@__crt_stdio_output@@V?$standard_base@DV?$string_output_adapter@D@__crt_stdio_output@@@2@@__crt_stdio_output@@AAE_NXZ 100b68c0 f i libucrtd:output.obj
 0001:000b5b60       ?type_case_n@?$output_processor@_WV?$stream_output_adapter@_W@__crt_stdio_output@@V?$format_validation_base@_WV?$stream_output_adapter@_W@__crt_stdio_output@@@2@@__crt_stdio_output@@AAE_NXZ 100b6b60 f i libucrtd:output.obj
 0001:000b5e00       ?type_case_n@?$output_processor@_WV?$stream_output_adapter@_W@__crt_stdio_output@@V?$positional_parameter_base@_WV?$stream_output_adapter@_W@__crt_stdio_output@@@2@@__crt_stdio_output@@AAE_NXZ 100b6e00 f i libucrtd:output.obj
 0001:000b60a0       ?type_case_n@?$output_processor@_WV?$stream_output_adapter@_W@__crt_stdio_output@@V?$standard_base@_WV?$stream_output_adapter@_W@__crt_stdio_output@@@2@@__crt_stdio_output@@AAE_NXZ 100b70a0 f i libucrtd:output.obj
 0001:000b6340       ?type_case_n@?$output_processor@_WV?$string_output_adapter@_W@__crt_stdio_output@@V?$format_validation_base@_WV?$string_output_adapter@_W@__crt_stdio_output@@@2@@__crt_stdio_output@@AAE_NXZ 100b7340 f i libucrtd:output.obj
 0001:000b65e0       ?type_case_n@?$output_processor@_WV?$string_output_adapter@_W@__crt_stdio_output@@V?$positional_parameter_base@_WV?$string_output_adapter@_W@__crt_stdio_output@@@2@@__crt_stdio_output@@AAE_NXZ 100b75e0 f i libucrtd:output.obj
 0001:000b6880       ?type_case_n@?$output_processor@_WV?$string_output_adapter@_W@__crt_stdio_output@@V?$standard_base@_WV?$string_output_adapter@_W@__crt_stdio_output@@@2@@__crt_stdio_output@@AAE_NXZ 100b7880 f i libucrtd:output.obj
 0001:000b6b20       ?type_case_o@?$output_processor@DV?$stream_output_adapter@D@__crt_stdio_output@@V?$format_validation_base@DV?$stream_output_adapter@D@__crt_stdio_output@@@2@@__crt_stdio_output@@AAE_NXZ 100b7b20 f i libucrtd:output.obj
 0001:000b6b70       ?type_case_o@?$output_processor@DV?$stream_output_adapter@D@__crt_stdio_output@@V?$positional_parameter_base@DV?$stream_output_adapter@D@__crt_stdio_output@@@2@@__crt_stdio_output@@AAE_NXZ 100b7b70 f i libucrtd:output.obj
 0001:000b6bc0       ?type_case_o@?$output_processor@DV?$stream_output_adapter@D@__crt_stdio_output@@V?$standard_base@DV?$stream_output_adapter@D@__crt_stdio_output@@@2@@__crt_stdio_output@@AAE_NXZ 100b7bc0 f i libucrtd:output.obj
 0001:000b6c10       ?type_case_o@?$output_processor@DV?$string_output_adapter@D@__crt_stdio_output@@V?$format_validation_base@DV?$string_output_adapter@D@__crt_stdio_output@@@2@@__crt_stdio_output@@AAE_NXZ 100b7c10 f i libucrtd:output.obj
 0001:000b6c60       ?type_case_o@?$output_processor@DV?$string_output_adapter@D@__crt_stdio_output@@V?$positional_parameter_base@DV?$string_output_adapter@D@__crt_stdio_output@@@2@@__crt_stdio_output@@AAE_NXZ 100b7c60 f i libucrtd:output.obj
 0001:000b6cb0       ?type_case_o@?$output_processor@DV?$string_output_adapter@D@__crt_stdio_output@@V?$standard_base@DV?$string_output_adapter@D@__crt_stdio_output@@@2@@__crt_stdio_output@@AAE_NXZ 100b7cb0 f i libucrtd:output.obj
 0001:000b6d00       ?type_case_o@?$output_processor@_WV?$stream_output_adapter@_W@__crt_stdio_output@@V?$format_validation_base@_WV?$stream_output_adapter@_W@__crt_stdio_output@@@2@@__crt_stdio_output@@AAE_NXZ 100b7d00 f i libucrtd:output.obj
 0001:000b6d50       ?type_case_o@?$output_processor@_WV?$stream_output_adapter@_W@__crt_stdio_output@@V?$positional_parameter_base@_WV?$stream_output_adapter@_W@__crt_stdio_output@@@2@@__crt_stdio_output@@AAE_NXZ 100b7d50 f i libucrtd:output.obj
 0001:000b6da0       ?type_case_o@?$output_processor@_WV?$stream_output_adapter@_W@__crt_stdio_output@@V?$standard_base@_WV?$stream_output_adapter@_W@__crt_stdio_output@@@2@@__crt_stdio_output@@AAE_NXZ 100b7da0 f i libucrtd:output.obj
 0001:000b6df0       ?type_case_o@?$output_processor@_WV?$string_output_adapter@_W@__crt_stdio_output@@V?$format_validation_base@_WV?$string_output_adapter@_W@__crt_stdio_output@@@2@@__crt_stdio_output@@AAE_NXZ 100b7df0 f i libucrtd:output.obj
 0001:000b6e40       ?type_case_o@?$output_processor@_WV?$string_output_adapter@_W@__crt_stdio_output@@V?$positional_parameter_base@_WV?$string_output_adapter@_W@__crt_stdio_output@@@2@@__crt_stdio_output@@AAE_NXZ 100b7e40 f i libucrtd:output.obj
 0001:000b6e90       ?type_case_o@?$output_processor@_WV?$string_output_adapter@_W@__crt_stdio_output@@V?$standard_base@_WV?$string_output_adapter@_W@__crt_stdio_output@@@2@@__crt_stdio_output@@AAE_NXZ 100b7e90 f i libucrtd:output.obj
 0001:000b6ee0       ?type_case_p@?$output_processor@DV?$stream_output_adapter@D@__crt_stdio_output@@V?$format_validation_base@DV?$stream_output_adapter@D@__crt_stdio_output@@@2@@__crt_stdio_output@@AAE_NXZ 100b7ee0 f i libucrtd:output.obj
 0001:000b6f20       ?type_case_p@?$output_processor@DV?$stream_output_adapter@D@__crt_stdio_output@@V?$positional_parameter_base@DV?$stream_output_adapter@D@__crt_stdio_output@@@2@@__crt_stdio_output@@AAE_NXZ 100b7f20 f i libucrtd:output.obj
 0001:000b6f60       ?type_case_p@?$output_processor@DV?$stream_output_adapter@D@__crt_stdio_output@@V?$standard_base@DV?$stream_output_adapter@D@__crt_stdio_output@@@2@@__crt_stdio_output@@AAE_NXZ 100b7f60 f i libucrtd:output.obj
 0001:000b6fa0       ?type_case_p@?$output_processor@DV?$string_output_adapter@D@__crt_stdio_output@@V?$format_validation_base@DV?$string_output_adapter@D@__crt_stdio_output@@@2@@__crt_stdio_output@@AAE_NXZ 100b7fa0 f i libucrtd:output.obj
 0001:000b6fe0       ?type_case_p@?$output_processor@DV?$string_output_adapter@D@__crt_stdio_output@@V?$positional_parameter_base@DV?$string_output_adapter@D@__crt_stdio_output@@@2@@__crt_stdio_output@@AAE_NXZ 100b7fe0 f i libucrtd:output.obj
 0001:000b7020       ?type_case_p@?$output_processor@DV?$string_output_adapter@D@__crt_stdio_output@@V?$standard_base@DV?$string_output_adapter@D@__crt_stdio_output@@@2@@__crt_stdio_output@@AAE_NXZ 100b8020 f i libucrtd:output.obj
 0001:000b7060       ?type_case_p@?$output_processor@_WV?$stream_output_adapter@_W@__crt_stdio_output@@V?$format_validation_base@_WV?$stream_output_adapter@_W@__crt_stdio_output@@@2@@__crt_stdio_output@@AAE_NXZ 100b8060 f i libucrtd:output.obj
 0001:000b70a0       ?type_case_p@?$output_processor@_WV?$stream_output_adapter@_W@__crt_stdio_output@@V?$positional_parameter_base@_WV?$stream_output_adapter@_W@__crt_stdio_output@@@2@@__crt_stdio_output@@AAE_NXZ 100b80a0 f i libucrtd:output.obj
 0001:000b70e0       ?type_case_p@?$output_processor@_WV?$stream_output_adapter@_W@__crt_stdio_output@@V?$standard_base@_WV?$stream_output_adapter@_W@__crt_stdio_output@@@2@@__crt_stdio_output@@AAE_NXZ 100b80e0 f i libucrtd:output.obj
 0001:000b7120       ?type_case_p@?$output_processor@_WV?$string_output_adapter@_W@__crt_stdio_output@@V?$format_validation_base@_WV?$string_output_adapter@_W@__crt_stdio_output@@@2@@__crt_stdio_output@@AAE_NXZ 100b8120 f i libucrtd:output.obj
 0001:000b7160       ?type_case_p@?$output_processor@_WV?$string_output_adapter@_W@__crt_stdio_output@@V?$positional_parameter_base@_WV?$string_output_adapter@_W@__crt_stdio_output@@@2@@__crt_stdio_output@@AAE_NXZ 100b8160 f i libucrtd:output.obj
 0001:000b71a0       ?type_case_p@?$output_processor@_WV?$string_output_adapter@_W@__crt_stdio_output@@V?$standard_base@_WV?$string_output_adapter@_W@__crt_stdio_output@@@2@@__crt_stdio_output@@AAE_NXZ 100b81a0 f i libucrtd:output.obj
 0001:000b71e0       ?type_case_s@?$output_processor@DV?$stream_output_adapter@D@__crt_stdio_output@@V?$format_validation_base@DV?$stream_output_adapter@D@__crt_stdio_output@@@2@@__crt_stdio_output@@AAE_NXZ 100b81e0 f i libucrtd:output.obj
 0001:000b7310       ?type_case_s@?$output_processor@DV?$stream_output_adapter@D@__crt_stdio_output@@V?$positional_parameter_base@DV?$stream_output_adapter@D@__crt_stdio_output@@@2@@__crt_stdio_output@@AAE_NXZ 100b8310 f i libucrtd:output.obj
 0001:000b7440       ?type_case_s@?$output_processor@DV?$stream_output_adapter@D@__crt_stdio_output@@V?$standard_base@DV?$stream_output_adapter@D@__crt_stdio_output@@@2@@__crt_stdio_output@@AAE_NXZ 100b8440 f i libucrtd:output.obj
 0001:000b7570       ?type_case_s@?$output_processor@DV?$string_output_adapter@D@__crt_stdio_output@@V?$format_validation_base@DV?$string_output_adapter@D@__crt_stdio_output@@@2@@__crt_stdio_output@@AAE_NXZ 100b8570 f i libucrtd:output.obj
 0001:000b76a0       ?type_case_s@?$output_processor@DV?$string_output_adapter@D@__crt_stdio_output@@V?$positional_parameter_base@DV?$string_output_adapter@D@__crt_stdio_output@@@2@@__crt_stdio_output@@AAE_NXZ 100b86a0 f i libucrtd:output.obj
 0001:000b77d0       ?type_case_s@?$output_processor@DV?$string_output_adapter@D@__crt_stdio_output@@V?$standard_base@DV?$string_output_adapter@D@__crt_stdio_output@@@2@@__crt_stdio_output@@AAE_NXZ 100b87d0 f i libucrtd:output.obj
 0001:000b7900       ?type_case_s@?$output_processor@_WV?$stream_output_adapter@_W@__crt_stdio_output@@V?$format_validation_base@_WV?$stream_output_adapter@_W@__crt_stdio_output@@@2@@__crt_stdio_output@@AAE_NXZ 100b8900 f i libucrtd:output.obj
 0001:000b7a30       ?type_case_s@?$output_processor@_WV?$stream_output_adapter@_W@__crt_stdio_output@@V?$positional_parameter_base@_WV?$stream_output_adapter@_W@__crt_stdio_output@@@2@@__crt_stdio_output@@AAE_NXZ 100b8a30 f i libucrtd:output.obj
 0001:000b7b60       ?type_case_s@?$output_processor@_WV?$stream_output_adapter@_W@__crt_stdio_output@@V?$standard_base@_WV?$stream_output_adapter@_W@__crt_stdio_output@@@2@@__crt_stdio_output@@AAE_NXZ 100b8b60 f i libucrtd:output.obj
 0001:000b7c90       ?type_case_s@?$output_processor@_WV?$string_output_adapter@_W@__crt_stdio_output@@V?$format_validation_base@_WV?$string_output_adapter@_W@__crt_stdio_output@@@2@@__crt_stdio_output@@AAE_NXZ 100b8c90 f i libucrtd:output.obj
 0001:000b7dc0       ?type_case_s@?$output_processor@_WV?$string_output_adapter@_W@__crt_stdio_output@@V?$positional_parameter_base@_WV?$string_output_adapter@_W@__crt_stdio_output@@@2@@__crt_stdio_output@@AAE_NXZ 100b8dc0 f i libucrtd:output.obj
 0001:000b7ef0       ?type_case_s@?$output_processor@_WV?$string_output_adapter@_W@__crt_stdio_output@@V?$standard_base@_WV?$string_output_adapter@_W@__crt_stdio_output@@@2@@__crt_stdio_output@@AAE_NXZ 100b8ef0 f i libucrtd:output.obj
 0001:000b8020       ?type_case_s_compute_narrow_string_length@?$output_processor@DV?$stream_output_adapter@D@__crt_stdio_output@@V?$format_validation_base@DV?$stream_output_adapter@D@__crt_stdio_output@@@2@@__crt_stdio_output@@AAEHHD@Z 100b9020 f i libucrtd:output.obj
 0001:000b8050       ?type_case_s_compute_narrow_string_length@?$output_processor@DV?$stream_output_adapter@D@__crt_stdio_output@@V?$positional_parameter_base@DV?$stream_output_adapter@D@__crt_stdio_output@@@2@@__crt_stdio_output@@AAEHHD@Z 100b9050 f i libucrtd:output.obj
 0001:000b8080       ?type_case_s_compute_narrow_string_length@?$output_processor@DV?$stream_output_adapter@D@__crt_stdio_output@@V?$standard_base@DV?$stream_output_adapter@D@__crt_stdio_output@@@2@@__crt_stdio_output@@AAEHHD@Z 100b9080 f i libucrtd:output.obj
 0001:000b80b0       ?type_case_s_compute_narrow_string_length@?$output_processor@DV?$string_output_adapter@D@__crt_stdio_output@@V?$format_validation_base@DV?$string_output_adapter@D@__crt_stdio_output@@@2@@__crt_stdio_output@@AAEHHD@Z 100b90b0 f i libucrtd:output.obj
 0001:000b80e0       ?type_case_s_compute_narrow_string_length@?$output_processor@DV?$string_output_adapter@D@__crt_stdio_output@@V?$positional_parameter_base@DV?$string_output_adapter@D@__crt_stdio_output@@@2@@__crt_stdio_output@@AAEHHD@Z 100b90e0 f i libucrtd:output.obj
 0001:000b8110       ?type_case_s_compute_narrow_string_length@?$output_processor@DV?$string_output_adapter@D@__crt_stdio_output@@V?$standard_base@DV?$string_output_adapter@D@__crt_stdio_output@@@2@@__crt_stdio_output@@AAEHHD@Z 100b9110 f i libucrtd:output.obj
 0001:000b8140       ?type_case_s_compute_narrow_string_length@?$output_processor@_WV?$stream_output_adapter@_W@__crt_stdio_output@@V?$format_validation_base@_WV?$stream_output_adapter@_W@__crt_stdio_output@@@2@@__crt_stdio_output@@AAEHH_W@Z 100b9140 f i libucrtd:output.obj
 0001:000b81e0       ?type_case_s_compute_narrow_string_length@?$output_processor@_WV?$stream_output_adapter@_W@__crt_stdio_output@@V?$positional_parameter_base@_WV?$stream_output_adapter@_W@__crt_stdio_output@@@2@@__crt_stdio_output@@AAEHH_W@Z 100b91e0 f i libucrtd:output.obj
 0001:000b8280       ?type_case_s_compute_narrow_string_length@?$output_processor@_WV?$stream_output_adapter@_W@__crt_stdio_output@@V?$standard_base@_WV?$stream_output_adapter@_W@__crt_stdio_output@@@2@@__crt_stdio_output@@AAEHH_W@Z 100b9280 f i libucrtd:output.obj
 0001:000b8320       ?type_case_s_compute_narrow_string_length@?$output_processor@_WV?$string_output_adapter@_W@__crt_stdio_output@@V?$format_validation_base@_WV?$string_output_adapter@_W@__crt_stdio_output@@@2@@__crt_stdio_output@@AAEHH_W@Z 100b9320 f i libucrtd:output.obj
 0001:000b83c0       ?type_case_s_compute_narrow_string_length@?$output_processor@_WV?$string_output_adapter@_W@__crt_stdio_output@@V?$positional_parameter_base@_WV?$string_output_adapter@_W@__crt_stdio_output@@@2@@__crt_stdio_output@@AAEHH_W@Z 100b93c0 f i libucrtd:output.obj
 0001:000b8460       ?type_case_s_compute_narrow_string_length@?$output_processor@_WV?$string_output_adapter@_W@__crt_stdio_output@@V?$standard_base@_WV?$string_output_adapter@_W@__crt_stdio_output@@@2@@__crt_stdio_output@@AAEHH_W@Z 100b9460 f i libucrtd:output.obj
 0001:000b8500       ?type_case_u@?$output_processor@DV?$stream_output_adapter@D@__crt_stdio_output@@V?$format_validation_base@DV?$stream_output_adapter@D@__crt_stdio_output@@@2@@__crt_stdio_output@@AAE_NXZ 100b9500 f i libucrtd:output.obj
 0001:000b8520       ?type_case_u@?$output_processor@DV?$stream_output_adapter@D@__crt_stdio_output@@V?$positional_parameter_base@DV?$stream_output_adapter@D@__crt_stdio_output@@@2@@__crt_stdio_output@@AAE_NXZ 100b9520 f i libucrtd:output.obj
 0001:000b8540       ?type_case_u@?$output_processor@DV?$stream_output_adapter@D@__crt_stdio_output@@V?$standard_base@DV?$stream_output_adapter@D@__crt_stdio_output@@@2@@__crt_stdio_output@@AAE_NXZ 100b9540 f i libucrtd:output.obj
 0001:000b8560       ?type_case_u@?$output_processor@DV?$string_output_adapter@D@__crt_stdio_output@@V?$format_validation_base@DV?$string_output_adapter@D@__crt_stdio_output@@@2@@__crt_stdio_output@@AAE_NXZ 100b9560 f i libucrtd:output.obj
 0001:000b8580       ?type_case_u@?$output_processor@DV?$string_output_adapter@D@__crt_stdio_output@@V?$positional_parameter_base@DV?$string_output_adapter@D@__crt_stdio_output@@@2@@__crt_stdio_output@@AAE_NXZ 100b9580 f i libucrtd:output.obj
 0001:000b85a0       ?type_case_u@?$output_processor@DV?$string_output_adapter@D@__crt_stdio_output@@V?$standard_base@DV?$string_output_adapter@D@__crt_stdio_output@@@2@@__crt_stdio_output@@AAE_NXZ 100b95a0 f i libucrtd:output.obj
 0001:000b85c0       ?type_case_u@?$output_processor@_WV?$stream_output_adapter@_W@__crt_stdio_output@@V?$format_validation_base@_WV?$stream_output_adapter@_W@__crt_stdio_output@@@2@@__crt_stdio_output@@AAE_NXZ 100b95c0 f i libucrtd:output.obj
 0001:000b85e0       ?type_case_u@?$output_processor@_WV?$stream_output_adapter@_W@__crt_stdio_output@@V?$positional_parameter_base@_WV?$stream_output_adapter@_W@__crt_stdio_output@@@2@@__crt_stdio_output@@AAE_NXZ 100b95e0 f i libucrtd:output.obj
 0001:000b8600       ?type_case_u@?$output_processor@_WV?$stream_output_adapter@_W@__crt_stdio_output@@V?$standard_base@_WV?$stream_output_adapter@_W@__crt_stdio_output@@@2@@__crt_stdio_output@@AAE_NXZ 100b9600 f i libucrtd:output.obj
 0001:000b8620       ?type_case_u@?$output_processor@_WV?$string_output_adapter@_W@__crt_stdio_output@@V?$format_validation_base@_WV?$string_output_adapter@_W@__crt_stdio_output@@@2@@__crt_stdio_output@@AAE_NXZ 100b9620 f i libucrtd:output.obj
 0001:000b8640       ?type_case_u@?$output_processor@_WV?$string_output_adapter@_W@__crt_stdio_output@@V?$positional_parameter_base@_WV?$string_output_adapter@_W@__crt_stdio_output@@@2@@__crt_stdio_output@@AAE_NXZ 100b9640 f i libucrtd:output.obj
 0001:000b8660       ?type_case_u@?$output_processor@_WV?$string_output_adapter@_W@__crt_stdio_output@@V?$standard_base@_WV?$string_output_adapter@_W@__crt_stdio_output@@@2@@__crt_stdio_output@@AAE_NXZ 100b9660 f i libucrtd:output.obj
 0001:000b8680       ?type_case_x@?$output_processor@DV?$stream_output_adapter@D@__crt_stdio_output@@V?$format_validation_base@DV?$stream_output_adapter@D@__crt_stdio_output@@@2@@__crt_stdio_output@@AAE_NXZ 100b9680 f i libucrtd:output.obj
 0001:000b86a0       ?type_case_x@?$output_processor@DV?$stream_output_adapter@D@__crt_stdio_output@@V?$positional_parameter_base@DV?$stream_output_adapter@D@__crt_stdio_output@@@2@@__crt_stdio_output@@AAE_NXZ 100b96a0 f i libucrtd:output.obj
 0001:000b86c0       ?type_case_x@?$output_processor@DV?$stream_output_adapter@D@__crt_stdio_output@@V?$standard_base@DV?$stream_output_adapter@D@__crt_stdio_output@@@2@@__crt_stdio_output@@AAE_NXZ 100b96c0 f i libucrtd:output.obj
 0001:000b86e0       ?type_case_x@?$output_processor@DV?$string_output_adapter@D@__crt_stdio_output@@V?$format_validation_base@DV?$string_output_adapter@D@__crt_stdio_output@@@2@@__crt_stdio_output@@AAE_NXZ 100b96e0 f i libucrtd:output.obj
 0001:000b8700       ?type_case_x@?$output_processor@DV?$string_output_adapter@D@__crt_stdio_output@@V?$positional_parameter_base@DV?$string_output_adapter@D@__crt_stdio_output@@@2@@__crt_stdio_output@@AAE_NXZ 100b9700 f i libucrtd:output.obj
 0001:000b8720       ?type_case_x@?$output_processor@DV?$string_output_adapter@D@__crt_stdio_output@@V?$standard_base@DV?$string_output_adapter@D@__crt_stdio_output@@@2@@__crt_stdio_output@@AAE_NXZ 100b9720 f i libucrtd:output.obj
 0001:000b8740       ?type_case_x@?$output_processor@_WV?$stream_output_adapter@_W@__crt_stdio_output@@V?$format_validation_base@_WV?$stream_output_adapter@_W@__crt_stdio_output@@@2@@__crt_stdio_output@@AAE_NXZ 100b9740 f i libucrtd:output.obj
 0001:000b8760       ?type_case_x@?$output_processor@_WV?$stream_output_adapter@_W@__crt_stdio_output@@V?$positional_parameter_base@_WV?$stream_output_adapter@_W@__crt_stdio_output@@@2@@__crt_stdio_output@@AAE_NXZ 100b9760 f i libucrtd:output.obj
 0001:000b8780       ?type_case_x@?$output_processor@_WV?$stream_output_adapter@_W@__crt_stdio_output@@V?$standard_base@_WV?$stream_output_adapter@_W@__crt_stdio_output@@@2@@__crt_stdio_output@@AAE_NXZ 100b9780 f i libucrtd:output.obj
 0001:000b87a0       ?type_case_x@?$output_processor@_WV?$string_output_adapter@_W@__crt_stdio_output@@V?$format_validation_base@_WV?$string_output_adapter@_W@__crt_stdio_output@@@2@@__crt_stdio_output@@AAE_NXZ 100b97a0 f i libucrtd:output.obj
 0001:000b87c0       ?type_case_x@?$output_processor@_WV?$string_output_adapter@_W@__crt_stdio_output@@V?$positional_parameter_base@_WV?$string_output_adapter@_W@__crt_stdio_output@@@2@@__crt_stdio_output@@AAE_NXZ 100b97c0 f i libucrtd:output.obj
 0001:000b87e0       ?type_case_x@?$output_processor@_WV?$string_output_adapter@_W@__crt_stdio_output@@V?$standard_base@_WV?$string_output_adapter@_W@__crt_stdio_output@@@2@@__crt_stdio_output@@AAE_NXZ 100b97e0 f i libucrtd:output.obj
 0001:000b8800       ?unget@?$c_string_character_source@D@__crt_strtox@@QAEXD@Z 100b9800 f i libucrtd:output.obj
 0001:000b88d0       ?unget@?$c_string_character_source@_W@__crt_strtox@@QAEX_W@Z 100b98d0 f i libucrtd:output.obj
 0001:000b89a0       ?unsafe_value@?$cached@H@__crt_cached_ptd_host@@QAEHXZ 100b99a0 f i libucrtd:output.obj
 0001:000b89c0       ?unsafe_value@?$cached@K@__crt_cached_ptd_host@@QAEKXZ 100b99c0 f i libucrtd:output.obj
 0001:000b89e0       ?unset_flag@?$output_processor@DV?$stream_output_adapter@D@__crt_stdio_output@@V?$format_validation_base@DV?$stream_output_adapter@D@__crt_stdio_output@@@2@@__crt_stdio_output@@AAEXI@Z 100b99e0 f i libucrtd:output.obj
 0001:000b8a10       ?unset_flag@?$output_processor@DV?$stream_output_adapter@D@__crt_stdio_output@@V?$positional_parameter_base@DV?$stream_output_adapter@D@__crt_stdio_output@@@2@@__crt_stdio_output@@AAEXI@Z 100b9a10 f i libucrtd:output.obj
 0001:000b8a40       ?unset_flag@?$output_processor@DV?$stream_output_adapter@D@__crt_stdio_output@@V?$standard_base@DV?$stream_output_adapter@D@__crt_stdio_output@@@2@@__crt_stdio_output@@AAEXI@Z 100b9a40 f i libucrtd:output.obj
 0001:000b8a70       ?unset_flag@?$output_processor@DV?$string_output_adapter@D@__crt_stdio_output@@V?$format_validation_base@DV?$string_output_adapter@D@__crt_stdio_output@@@2@@__crt_stdio_output@@AAEXI@Z 100b9a70 f i libucrtd:output.obj
 0001:000b8aa0       ?unset_flag@?$output_processor@DV?$string_output_adapter@D@__crt_stdio_output@@V?$positional_parameter_base@DV?$string_output_adapter@D@__crt_stdio_output@@@2@@__crt_stdio_output@@AAEXI@Z 100b9aa0 f i libucrtd:output.obj
 0001:000b8ad0       ?unset_flag@?$output_processor@DV?$string_output_adapter@D@__crt_stdio_output@@V?$standard_base@DV?$string_output_adapter@D@__crt_stdio_output@@@2@@__crt_stdio_output@@AAEXI@Z 100b9ad0 f i libucrtd:output.obj
 0001:000b8b00       ?unset_flag@?$output_processor@_WV?$stream_output_adapter@_W@__crt_stdio_output@@V?$format_validation_base@_WV?$stream_output_adapter@_W@__crt_stdio_output@@@2@@__crt_stdio_output@@AAEXI@Z 100b9b00 f i libucrtd:output.obj
 0001:000b8b30       ?unset_flag@?$output_processor@_WV?$stream_output_adapter@_W@__crt_stdio_output@@V?$positional_parameter_base@_WV?$stream_output_adapter@_W@__crt_stdio_output@@@2@@__crt_stdio_output@@AAEXI@Z 100b9b30 f i libucrtd:output.obj
 0001:000b8b60       ?unset_flag@?$output_processor@_WV?$stream_output_adapter@_W@__crt_stdio_output@@V?$standard_base@_WV?$stream_output_adapter@_W@__crt_stdio_output@@@2@@__crt_stdio_output@@AAEXI@Z 100b9b60 f i libucrtd:output.obj
 0001:000b8b90       ?unset_flag@?$output_processor@_WV?$string_output_adapter@_W@__crt_stdio_output@@V?$format_validation_base@_WV?$string_output_adapter@_W@__crt_stdio_output@@@2@@__crt_stdio_output@@AAEXI@Z 100b9b90 f i libucrtd:output.obj
 0001:000b8bc0       ?unset_flag@?$output_processor@_WV?$string_output_adapter@_W@__crt_stdio_output@@V?$positional_parameter_base@_WV?$string_output_adapter@_W@__crt_stdio_output@@@2@@__crt_stdio_output@@AAEXI@Z 100b9bc0 f i libucrtd:output.obj
 0001:000b8bf0       ?unset_flag@?$output_processor@_WV?$string_output_adapter@_W@__crt_stdio_output@@V?$standard_base@_WV?$string_output_adapter@_W@__crt_stdio_output@@@2@@__crt_stdio_output@@AAEXI@Z 100b9bf0 f i libucrtd:output.obj
 0001:000b8c20       ?update_field_width@?$positional_parameter_base@DV?$stream_output_adapter@D@__crt_stdio_output@@@__crt_stdio_output@@IAE_NXZ 100b9c20 f i libucrtd:output.obj
 0001:000b8e10       ?update_field_width@?$positional_parameter_base@DV?$string_output_adapter@D@__crt_stdio_output@@@__crt_stdio_output@@IAE_NXZ 100b9e10 f i libucrtd:output.obj
 0001:000b9000       ?update_field_width@?$positional_parameter_base@_WV?$stream_output_adapter@_W@__crt_stdio_output@@@__crt_stdio_output@@IAE_NXZ 100ba000 f i libucrtd:output.obj
 0001:000b91f0       ?update_field_width@?$positional_parameter_base@_WV?$string_output_adapter@_W@__crt_stdio_output@@@__crt_stdio_output@@IAE_NXZ 100ba1f0 f i libucrtd:output.obj
 0001:000b93e0       ?update_field_width@?$standard_base@DV?$stream_output_adapter@D@__crt_stdio_output@@@__crt_stdio_output@@IAE_NXZ 100ba3e0 f i libucrtd:output.obj
 0001:000b9410       ?update_field_width@?$standard_base@DV?$string_output_adapter@D@__crt_stdio_output@@@__crt_stdio_output@@IAE_NXZ 100ba410 f i libucrtd:output.obj
 0001:000b9440       ?update_field_width@?$standard_base@_WV?$stream_output_adapter@_W@__crt_stdio_output@@@__crt_stdio_output@@IAE_NXZ 100ba440 f i libucrtd:output.obj
 0001:000b9470       ?update_field_width@?$standard_base@_WV?$string_output_adapter@_W@__crt_stdio_output@@@__crt_stdio_output@@IAE_NXZ 100ba470 f i libucrtd:output.obj
 0001:000b94a0       ?update_locale@__crt_cached_ptd_host@@AAEXXZ 100ba4a0 f i libucrtd:output.obj
 0001:000b94d0       ?update_locale_slow@__crt_cached_ptd_host@@AAEXXZ 100ba4d0 f i libucrtd:output.obj
 0001:000b9580       ?update_precision@?$positional_parameter_base@DV?$stream_output_adapter@D@__crt_stdio_output@@@__crt_stdio_output@@IAE_NXZ 100ba580 f i libucrtd:output.obj
 0001:000b9770       ?update_precision@?$positional_parameter_base@DV?$string_output_adapter@D@__crt_stdio_output@@@__crt_stdio_output@@IAE_NXZ 100ba770 f i libucrtd:output.obj
 0001:000b9960       ?update_precision@?$positional_parameter_base@_WV?$stream_output_adapter@_W@__crt_stdio_output@@@__crt_stdio_output@@IAE_NXZ 100ba960 f i libucrtd:output.obj
 0001:000b9b50       ?update_precision@?$positional_parameter_base@_WV?$string_output_adapter@_W@__crt_stdio_output@@@__crt_stdio_output@@IAE_NXZ 100bab50 f i libucrtd:output.obj
 0001:000b9d40       ?update_precision@?$standard_base@DV?$stream_output_adapter@D@__crt_stdio_output@@@__crt_stdio_output@@IAE_NXZ 100bad40 f i libucrtd:output.obj
 0001:000b9d70       ?update_precision@?$standard_base@DV?$string_output_adapter@D@__crt_stdio_output@@@__crt_stdio_output@@IAE_NXZ 100bad70 f i libucrtd:output.obj
 0001:000b9da0       ?update_precision@?$standard_base@_WV?$stream_output_adapter@_W@__crt_stdio_output@@@__crt_stdio_output@@IAE_NXZ 100bada0 f i libucrtd:output.obj
 0001:000b9dd0       ?update_precision@?$standard_base@_WV?$string_output_adapter@_W@__crt_stdio_output@@@__crt_stdio_output@@IAE_NXZ 100badd0 f i libucrtd:output.obj
 0001:000b9e00       ?valid@?$cached@H@__crt_cached_ptd_host@@QBE_NXZ 100bae00 f i libucrtd:output.obj
 0001:000b9e20       ?valid@?$cached@K@__crt_cached_ptd_host@@QBE_NXZ 100bae20 f i libucrtd:output.obj
 0001:000b9e40       ?valid@__crt_stdio_stream@@QBE_NXZ 100bae40 f i libucrtd:output.obj
 0001:000b9e80       ?validate@?$c_string_character_source@D@__crt_strtox@@QBE_NXZ 100bae80 f i libucrtd:output.obj
 0001:000b9f40       ?validate@?$c_string_character_source@_W@__crt_strtox@@QBE_NXZ 100baf40 f i libucrtd:output.obj
 0001:000ba000       ?validate@?$stream_output_adapter@D@__crt_stdio_output@@QBE_NAAV__crt_cached_ptd_host@@@Z 100bb000 f i libucrtd:output.obj
 0001:000ba0f0       ?validate@?$stream_output_adapter@_W@__crt_stdio_output@@QBE_NAAV__crt_cached_ptd_host@@@Z 100bb0f0 f i libucrtd:output.obj
 0001:000ba1e0       ?validate@?$string_output_adapter@D@__crt_stdio_output@@QBE_NAAV__crt_cached_ptd_host@@@Z 100bb1e0 f i libucrtd:output.obj
 0001:000ba2b0       ?validate@?$string_output_adapter@_W@__crt_stdio_output@@QBE_NAAV__crt_cached_ptd_host@@@Z 100bb2b0 f i libucrtd:output.obj
 0001:000ba380       ?validate_and_store_parameter_data@?$positional_parameter_base@DV?$stream_output_adapter@D@__crt_stdio_output@@@__crt_stdio_output@@AAE_NAAUparameter_data@12@W4parameter_type@12@DW4length_modifier@2@@Z 100bb380 f i libucrtd:output.obj
 0001:000ba4a0       ?validate_and_store_parameter_data@?$positional_parameter_base@DV?$string_output_adapter@D@__crt_stdio_output@@@__crt_stdio_output@@AAE_NAAUparameter_data@12@W4parameter_type@12@DW4length_modifier@2@@Z 100bb4a0 f i libucrtd:output.obj
 0001:000ba5c0       ?validate_and_store_parameter_data@?$positional_parameter_base@_WV?$stream_output_adapter@_W@__crt_stdio_output@@@__crt_stdio_output@@AAE_NAAUparameter_data@12@W4parameter_type@12@_WW4length_modifier@2@@Z 100bb5c0 f i libucrtd:output.obj
 0001:000ba6e0       ?validate_and_store_parameter_data@?$positional_parameter_base@_WV?$string_output_adapter@_W@__crt_stdio_output@@@__crt_stdio_output@@AAE_NAAUparameter_data@12@W4parameter_type@12@_WW4length_modifier@2@@Z 100bb6e0 f i libucrtd:output.obj
 0001:000ba800       ?validate_and_update_state_at_beginning_of_format_character@?$positional_parameter_base@DV?$stream_output_adapter@D@__crt_stdio_output@@@__crt_stdio_output@@IAE_NXZ 100bb800 f i libucrtd:output.obj
 0001:000baab0       ?validate_and_update_state_at_beginning_of_format_character@?$positional_parameter_base@DV?$string_output_adapter@D@__crt_stdio_output@@@__crt_stdio_output@@IAE_NXZ 100bbab0 f i libucrtd:output.obj
 0001:000bad60       ?validate_and_update_state_at_beginning_of_format_character@?$positional_parameter_base@_WV?$stream_output_adapter@_W@__crt_stdio_output@@@__crt_stdio_output@@IAE_NXZ 100bbd60 f i libucrtd:output.obj
 0001:000bb010       ?validate_and_update_state_at_beginning_of_format_character@?$positional_parameter_base@_WV?$string_output_adapter@_W@__crt_stdio_output@@@__crt_stdio_output@@IAE_NXZ 100bc010 f i libucrtd:output.obj
 0001:000bb2c0       ?validate_and_update_state_at_beginning_of_format_character@?$standard_base@DV?$stream_output_adapter@D@__crt_stdio_output@@@__crt_stdio_output@@IAE_NXZ 100bc2c0 f i libucrtd:output.obj
 0001:000bb2e0       ?validate_and_update_state_at_beginning_of_format_character@?$standard_base@DV?$string_output_adapter@D@__crt_stdio_output@@@__crt_stdio_output@@IAE_NXZ 100bc2e0 f i libucrtd:output.obj
 0001:000bb300       ?validate_and_update_state_at_beginning_of_format_character@?$standard_base@_WV?$stream_output_adapter@_W@__crt_stdio_output@@@__crt_stdio_output@@IAE_NXZ 100bc300 f i libucrtd:output.obj
 0001:000bb320       ?validate_and_update_state_at_beginning_of_format_character@?$standard_base@_WV?$string_output_adapter@_W@__crt_stdio_output@@@__crt_stdio_output@@IAE_NXZ 100bc320 f i libucrtd:output.obj
 0001:000bb340       ?validate_and_update_state_at_end_of_format_string@?$format_validation_base@DV?$stream_output_adapter@D@__crt_stdio_output@@@__crt_stdio_output@@IAE_NXZ 100bc340 f i libucrtd:output.obj
 0001:000bb420       ?validate_and_update_state_at_end_of_format_string@?$format_validation_base@DV?$string_output_adapter@D@__crt_stdio_output@@@__crt_stdio_output@@IAE_NXZ 100bc420 f i libucrtd:output.obj
 0001:000bb500       ?validate_and_update_state_at_end_of_format_string@?$format_validation_base@_WV?$stream_output_adapter@_W@__crt_stdio_output@@@__crt_stdio_output@@IAE_NXZ 100bc500 f i libucrtd:output.obj
 0001:000bb5e0       ?validate_and_update_state_at_end_of_format_string@?$format_validation_base@_WV?$string_output_adapter@_W@__crt_stdio_output@@@__crt_stdio_output@@IAE_NXZ 100bc5e0 f i libucrtd:output.obj
 0001:000bb6c0       ?validate_and_update_state_at_end_of_format_string@?$positional_parameter_base@DV?$stream_output_adapter@D@__crt_stdio_output@@@__crt_stdio_output@@IAE_NXZ 100bc6c0 f i libucrtd:output.obj
 0001:000bb8e0       ?validate_and_update_state_at_end_of_format_string@?$positional_parameter_base@DV?$string_output_adapter@D@__crt_stdio_output@@@__crt_stdio_output@@IAE_NXZ 100bc8e0 f i libucrtd:output.obj
 0001:000bbb00       ?validate_and_update_state_at_end_of_format_string@?$positional_parameter_base@_WV?$stream_output_adapter@_W@__crt_stdio_output@@@__crt_stdio_output@@IAE_NXZ 100bcb00 f i libucrtd:output.obj
 0001:000bbd20       ?validate_and_update_state_at_end_of_format_string@?$positional_parameter_base@_WV?$string_output_adapter@_W@__crt_stdio_output@@@__crt_stdio_output@@IAE_NXZ 100bcd20 f i libucrtd:output.obj
 0001:000bbf40       ?validate_and_update_state_at_end_of_format_string@?$standard_base@DV?$stream_output_adapter@D@__crt_stdio_output@@@__crt_stdio_output@@IBE_NXZ 100bcf40 f i libucrtd:output.obj
 0001:000bbf60       ?validate_and_update_state_at_end_of_format_string@?$standard_base@DV?$string_output_adapter@D@__crt_stdio_output@@@__crt_stdio_output@@IBE_NXZ 100bcf60 f i libucrtd:output.obj
 0001:000bbf80       ?validate_and_update_state_at_end_of_format_string@?$standard_base@_WV?$stream_output_adapter@_W@__crt_stdio_output@@@__crt_stdio_output@@IBE_NXZ 100bcf80 f i libucrtd:output.obj
 0001:000bbfa0       ?validate_and_update_state_at_end_of_format_string@?$standard_base@_WV?$string_output_adapter@_W@__crt_stdio_output@@@__crt_stdio_output@@IBE_NXZ 100bcfa0 f i libucrtd:output.obj
 0001:000bbfc0       ?validate_state_for_type_case_a@?$positional_parameter_base@DV?$stream_output_adapter@D@__crt_stdio_output@@@__crt_stdio_output@@IAE_NXZ 100bcfc0 f i libucrtd:output.obj
 0001:000bc110       ?validate_state_for_type_case_a@?$positional_parameter_base@DV?$string_output_adapter@D@__crt_stdio_output@@@__crt_stdio_output@@IAE_NXZ 100bd110 f i libucrtd:output.obj
 0001:000bc260       ?validate_state_for_type_case_a@?$positional_parameter_base@_WV?$stream_output_adapter@_W@__crt_stdio_output@@@__crt_stdio_output@@IAE_NXZ 100bd260 f i libucrtd:output.obj
 0001:000bc3b0       ?validate_state_for_type_case_a@?$positional_parameter_base@_WV?$string_output_adapter@_W@__crt_stdio_output@@@__crt_stdio_output@@IAE_NXZ 100bd3b0 f i libucrtd:output.obj
 0001:000bc500       ?validate_state_for_type_case_a@?$standard_base@DV?$stream_output_adapter@D@__crt_stdio_output@@@__crt_stdio_output@@IBE_NXZ 100bd500 f i libucrtd:output.obj
 0001:000bc520       ?validate_state_for_type_case_a@?$standard_base@DV?$string_output_adapter@D@__crt_stdio_output@@@__crt_stdio_output@@IBE_NXZ 100bd520 f i libucrtd:output.obj
 0001:000bc540       ?validate_state_for_type_case_a@?$standard_base@_WV?$stream_output_adapter@_W@__crt_stdio_output@@@__crt_stdio_output@@IBE_NXZ 100bd540 f i libucrtd:output.obj
 0001:000bc560       ?validate_state_for_type_case_a@?$standard_base@_WV?$string_output_adapter@_W@__crt_stdio_output@@@__crt_stdio_output@@IBE_NXZ 100bd560 f i libucrtd:output.obj
 0001:000bc580       ?validate_stream_is_ansi_if_required@?$__acrt_stdio_char_traits@D@@SA_NQAU_iobuf@@@Z 100bd580 f i libucrtd:output.obj
 0001:000bc700       ?validate_stream_is_ansi_if_required@?$__acrt_stdio_char_traits@_W@@SA_NQAU_iobuf@@@Z 100bd700 f i libucrtd:output.obj
 0001:000bc710       ?wide_character_to_digit@__crt_strtox@@YAH_W@Z 100bd710 f i libucrtd:output.obj
 0001:000bcb00       ?wide_null_string@?$output_processor@DV?$stream_output_adapter@D@__crt_stdio_output@@V?$format_validation_base@DV?$stream_output_adapter@D@__crt_stdio_output@@@2@@__crt_stdio_output@@CAPA_WXZ 100bdb00 f i libucrtd:output.obj
 0001:000bcb10       ?wide_null_string@?$output_processor@DV?$stream_output_adapter@D@__crt_stdio_output@@V?$positional_parameter_base@DV?$stream_output_adapter@D@__crt_stdio_output@@@2@@__crt_stdio_output@@CAPA_WXZ 100bdb10 f i libucrtd:output.obj
 0001:000bcb20       ?wide_null_string@?$output_processor@DV?$stream_output_adapter@D@__crt_stdio_output@@V?$standard_base@DV?$stream_output_adapter@D@__crt_stdio_output@@@2@@__crt_stdio_output@@CAPA_WXZ 100bdb20 f i libucrtd:output.obj
 0001:000bcb30       ?wide_null_string@?$output_processor@DV?$string_output_adapter@D@__crt_stdio_output@@V?$format_validation_base@DV?$string_output_adapter@D@__crt_stdio_output@@@2@@__crt_stdio_output@@CAPA_WXZ 100bdb30 f i libucrtd:output.obj
 0001:000bcb40       ?wide_null_string@?$output_processor@DV?$string_output_adapter@D@__crt_stdio_output@@V?$positional_parameter_base@DV?$string_output_adapter@D@__crt_stdio_output@@@2@@__crt_stdio_output@@CAPA_WXZ 100bdb40 f i libucrtd:output.obj
 0001:000bcb50       ?wide_null_string@?$output_processor@DV?$string_output_adapter@D@__crt_stdio_output@@V?$standard_base@DV?$string_output_adapter@D@__crt_stdio_output@@@2@@__crt_stdio_output@@CAPA_WXZ 100bdb50 f i libucrtd:output.obj
 0001:000bcb60       ?wide_null_string@?$output_processor@_WV?$stream_output_adapter@_W@__crt_stdio_output@@V?$format_validation_base@_WV?$stream_output_adapter@_W@__crt_stdio_output@@@2@@__crt_stdio_output@@CAPA_WXZ 100bdb60 f i libucrtd:output.obj
 0001:000bcb70       ?wide_null_string@?$output_processor@_WV?$stream_output_adapter@_W@__crt_stdio_output@@V?$positional_parameter_base@_WV?$stream_output_adapter@_W@__crt_stdio_output@@@2@@__crt_stdio_output@@CAPA_WXZ 100bdb70 f i libucrtd:output.obj
 0001:000bcb80       ?wide_null_string@?$output_processor@_WV?$stream_output_adapter@_W@__crt_stdio_output@@V?$standard_base@_WV?$stream_output_adapter@_W@__crt_stdio_output@@@2@@__crt_stdio_output@@CAPA_WXZ 100bdb80 f i libucrtd:output.obj
 0001:000bcb90       ?wide_null_string@?$output_processor@_WV?$string_output_adapter@_W@__crt_stdio_output@@V?$format_validation_base@_WV?$string_output_adapter@_W@__crt_stdio_output@@@2@@__crt_stdio_output@@CAPA_WXZ 100bdb90 f i libucrtd:output.obj
 0001:000bcba0       ?wide_null_string@?$output_processor@_WV?$string_output_adapter@_W@__crt_stdio_output@@V?$positional_parameter_base@_WV?$string_output_adapter@_W@__crt_stdio_output@@@2@@__crt_stdio_output@@CAPA_WXZ 100bdba0 f i libucrtd:output.obj
 0001:000bcbb0       ?wide_null_string@?$output_processor@_WV?$string_output_adapter@_W@__crt_stdio_output@@V?$standard_base@_WV?$string_output_adapter@_W@__crt_stdio_output@@@2@@__crt_stdio_output@@CAPA_WXZ 100bdbb0 f i libucrtd:output.obj
 0001:000bcbc0       ?write_character@?$output_adapter_common@DV?$stream_output_adapter@D@__crt_stdio_output@@@__crt_stdio_output@@QBEXDQAHAAV__crt_cached_ptd_host@@@Z 100bdbc0 f i libucrtd:output.obj
 0001:000bcc10       ?write_character@?$output_adapter_common@_WV?$stream_output_adapter@_W@__crt_stdio_output@@@__crt_stdio_output@@QBEX_WQAHAAV__crt_cached_ptd_host@@@Z 100bdc10 f i libucrtd:output.obj
 0001:000bcc60       ?write_character@?$string_output_adapter@D@__crt_stdio_output@@QBE_NDQAHAAV__crt_cached_ptd_host@@@Z 100bdc60 f i libucrtd:output.obj
 0001:000bcd20       ?write_character@?$string_output_adapter@_W@__crt_stdio_output@@QBE_N_WQAHAAV__crt_cached_ptd_host@@@Z 100bdd20 f i libucrtd:output.obj
 0001:000bcde0       ?write_character_without_count_update@?$stream_output_adapter@D@__crt_stdio_output@@QBE_NDAAV__crt_cached_ptd_host@@@Z 100bdde0 f i libucrtd:output.obj
 0001:000bce70       ?write_character_without_count_update@?$stream_output_adapter@_W@__crt_stdio_output@@QBE_N_WAAV__crt_cached_ptd_host@@@Z 100bde70 f i libucrtd:output.obj
 0001:000bcf00       ?write_stored_string_tchar@?$output_processor@DV?$stream_output_adapter@D@__crt_stdio_output@@V?$format_validation_base@DV?$stream_output_adapter@D@__crt_stdio_output@@@2@@__crt_stdio_output@@AAE_ND@Z 100bdf00 f i libucrtd:output.obj
 0001:000bd070       ?write_stored_string_tchar@?$output_processor@DV?$stream_output_adapter@D@__crt_stdio_output@@V?$positional_parameter_base@DV?$stream_output_adapter@D@__crt_stdio_output@@@2@@__crt_stdio_output@@AAE_ND@Z 100be070 f i libucrtd:output.obj
 0001:000bd1e0       ?write_stored_string_tchar@?$output_processor@DV?$stream_output_adapter@D@__crt_stdio_output@@V?$standard_base@DV?$stream_output_adapter@D@__crt_stdio_output@@@2@@__crt_stdio_output@@AAE_ND@Z 100be1e0 f i libucrtd:output.obj
 0001:000bd350       ?write_stored_string_tchar@?$output_processor@DV?$string_output_adapter@D@__crt_stdio_output@@V?$format_validation_base@DV?$string_output_adapter@D@__crt_stdio_output@@@2@@__crt_stdio_output@@AAE_ND@Z 100be350 f i libucrtd:output.obj
 0001:000bd4c0       ?write_stored_string_tchar@?$output_processor@DV?$string_output_adapter@D@__crt_stdio_output@@V?$positional_parameter_base@DV?$string_output_adapter@D@__crt_stdio_output@@@2@@__crt_stdio_output@@AAE_ND@Z 100be4c0 f i libucrtd:output.obj
 0001:000bd630       ?write_stored_string_tchar@?$output_processor@DV?$string_output_adapter@D@__crt_stdio_output@@V?$standard_base@DV?$string_output_adapter@D@__crt_stdio_output@@@2@@__crt_stdio_output@@AAE_ND@Z 100be630 f i libucrtd:output.obj
 0001:000bd7a0       ?write_stored_string_tchar@?$output_processor@_WV?$stream_output_adapter@_W@__crt_stdio_output@@V?$format_validation_base@_WV?$stream_output_adapter@_W@__crt_stdio_output@@@2@@__crt_stdio_output@@AAE_N_W@Z 100be7a0 f i libucrtd:output.obj
 0001:000bd8f0       ?write_stored_string_tchar@?$output_processor@_WV?$stream_output_adapter@_W@__crt_stdio_output@@V?$positional_parameter_base@_WV?$stream_output_adapter@_W@__crt_stdio_output@@@2@@__crt_stdio_output@@AAE_N_W@Z 100be8f0 f i libucrtd:output.obj
 0001:000bda40       ?write_stored_string_tchar@?$output_processor@_WV?$stream_output_adapter@_W@__crt_stdio_output@@V?$standard_base@_WV?$stream_output_adapter@_W@__crt_stdio_output@@@2@@__crt_stdio_output@@AAE_N_W@Z 100bea40 f i libucrtd:output.obj
 0001:000bdb90       ?write_stored_string_tchar@?$output_processor@_WV?$string_output_adapter@_W@__crt_stdio_output@@V?$format_validation_base@_WV?$string_output_adapter@_W@__crt_stdio_output@@@2@@__crt_stdio_output@@AAE_N_W@Z 100beb90 f i libucrtd:output.obj
 0001:000bdce0       ?write_stored_string_tchar@?$output_processor@_WV?$string_output_adapter@_W@__crt_stdio_output@@V?$positional_parameter_base@_WV?$string_output_adapter@_W@__crt_stdio_output@@@2@@__crt_stdio_output@@AAE_N_W@Z 100bece0 f i libucrtd:output.obj
 0001:000bde30       ?write_stored_string_tchar@?$output_processor@_WV?$string_output_adapter@_W@__crt_stdio_output@@V?$standard_base@_WV?$string_output_adapter@_W@__crt_stdio_output@@@2@@__crt_stdio_output@@AAE_N_W@Z 100bee30 f i libucrtd:output.obj
 0001:000bdf80       ?write_string@?$stream_output_adapter@D@__crt_stdio_output@@QBEXQBDHQAHAAV__crt_cached_ptd_host@@@Z 100bef80 f i libucrtd:output.obj
 0001:000bdff0       ?write_string@?$stream_output_adapter@_W@__crt_stdio_output@@QBEXQB_WHQAHAAV__crt_cached_ptd_host@@@Z 100beff0 f i libucrtd:output.obj
 0001:000be060       ?write_string@?$string_output_adapter@D@__crt_stdio_output@@QBEXQBDHQAHAAV__crt_cached_ptd_host@@@Z 100bf060 f i libucrtd:output.obj
 0001:000be1a0       ?write_string@?$string_output_adapter@_W@__crt_stdio_output@@QBEXQB_WHQAHAAV__crt_cached_ptd_host@@@Z 100bf1a0 f i libucrtd:output.obj
 0001:000be2f0       ?write_string_impl@?$output_adapter_common@DV?$stream_output_adapter@D@__crt_stdio_output@@@__crt_stdio_output@@IBEXQBDHQAHAAV__crt_cached_ptd_host@@@Z 100bf2f0 f i libucrtd:output.obj
 0001:000be3e0       ?write_string_impl@?$output_adapter_common@_WV?$stream_output_adapter@_W@__crt_stdio_output@@@__crt_stdio_output@@IBEXQB_WHQAHAAV__crt_cached_ptd_host@@@Z 100bf3e0 f i libucrtd:output.obj
 0001:000be4d0       ___acrt_disable_global_locale_sync 100bf4d0 f i libucrtd:output.obj
 0001:000be500       ___acrt_enable_global_locale_sync 100bf500 f i libucrtd:output.obj
 0001:000be530       ___acrt_isleadbyte_l_noupdate 100bf530 f i libucrtd:output.obj
 0001:000be560       ___acrt_locale_changed     100bf560 f i libucrtd:output.obj
 0001:000be590       ___acrt_locale_get_ctype_array_value 100bf590 f i libucrtd:output.obj
 0001:000be5c0       ___ascii_iswalpha          100bf5c0 f i libucrtd:output.obj
 0001:000be610       ___ascii_toupper           100bf610 f i libucrtd:output.obj
 0001:000be640       ___ascii_towupper          100bf640 f i libucrtd:output.obj
 0001:000be660       ___stdio_common_vfprintf   100bf660 f   libucrtd:output.obj
 0001:000be6c0       ___stdio_common_vfprintf_p 100bf6c0 f   libucrtd:output.obj
 0001:000be720       ___stdio_common_vfprintf_s 100bf720 f   libucrtd:output.obj
 0001:000be780       ___stdio_common_vfwprintf  100bf780 f   libucrtd:output.obj
 0001:000be7e0       ___stdio_common_vfwprintf_p 100bf7e0 f   libucrtd:output.obj
 0001:000be840       ___stdio_common_vfwprintf_s 100bf840 f   libucrtd:output.obj
 0001:000be8a0       ___stdio_common_vsnprintf_s 100bf8a0 f   libucrtd:output.obj
 0001:000be910       ___stdio_common_vsnwprintf_s 100bf910 f   libucrtd:output.obj
 0001:000be980       ___stdio_common_vsprintf   100bf980 f   libucrtd:output.obj
 0001:000be9e0       ___stdio_common_vsprintf_p 100bf9e0 f   libucrtd:output.obj
 0001:000bea40       ___stdio_common_vsprintf_s 100bfa40 f   libucrtd:output.obj
 0001:000beaa0       ___stdio_common_vswprintf  100bfaa0 f   libucrtd:output.obj
 0001:000beb00       ___stdio_common_vswprintf_p 100bfb00 f   libucrtd:output.obj
 0001:000beb60       ___stdio_common_vswprintf_s 100bfb60 f   libucrtd:output.obj
 0001:000bebc0       __ctype_fast_check_internal 100bfbc0 f i libucrtd:output.obj
 0001:000bebe0       __isdigit_fast_internal    100bfbe0 f i libucrtd:output.obj
 0001:000bec00       __tolower_fast_internal    100bfc00 f i libucrtd:output.obj
 0001:000bec20       ??$__crt_fast_decode_pointer@P6AXPB_W00II@Z@@YAP6AXPB_W00II@ZQ6AX000II@Z@Z 100bfc20 f i libucrtd:invalid_parameter.obj
 0001:000bec60       ??$__crt_fast_encode_pointer@P6AXPB_W00II@Z@@YAP6AXPB_W00II@ZQ6AX000II@Z@Z 100bfc60 f i libucrtd:invalid_parameter.obj
 0001:000beca0       ??$initialize_from_array@$$BY00Q6AXPB_W00II@Z@?$dual_state_global@P6AXPB_W00II@Z@__crt_state_management@@QAAXAAY00Q6AXPB_W00II@Z@Z 100bfca0 f i libucrtd:invalid_parameter.obj
 0001:000bed00       ?__crt_rotate_pointer_value@@YAIIH@Z 100bfd00 f i libucrtd:invalid_parameter.obj
 0001:000bed20       ?check_synchronize_global_state_index@__crt_cached_ptd_host@@AAEIXZ 100bfd20 f i libucrtd:invalid_parameter.obj
 0001:000bed80       ?dangerous_get_state_array@?$dual_state_global@P6AXPB_W00II@Z@__crt_state_management@@QAEPAP6AXPB_W00II@ZXZ 100bfd80 f i libucrtd:invalid_parameter.obj
 0001:000beda0       ?get_current_global_state_index@__crt_cached_ptd_host@@QAEIXZ 100bfda0 f i libucrtd:invalid_parameter.obj
 0001:000bedc0       ?get_current_state_index@__crt_state_management@@YAIXZ 100bfdc0 f i libucrtd:invalid_parameter.obj
 0001:000bedd0       ?get_raw_ptd_noexit@__crt_cached_ptd_host@@QAEPAU__acrt_ptd@@XZ 100bfdd0 f i libucrtd:invalid_parameter.obj
 0001:000bedf0       ?try_synchronize_per_thread_data@__crt_cached_ptd_host@@AAEPAU__acrt_ptd@@XZ 100bfdf0 f i libucrtd:invalid_parameter.obj
 0001:000bee20       ?value@?$dual_state_global@P6AXPB_W00II@Z@__crt_state_management@@QAEAAP6AXPB_W00II@ZAAV__crt_cached_ptd_host@@@Z 100bfe20 f i libucrtd:invalid_parameter.obj
 0001:000bee50       ?value@?$dual_state_global@P6AXPB_W00II@Z@__crt_state_management@@QAEAAP6AXPB_W00II@ZXZ 100bfe50 f i libucrtd:invalid_parameter.obj
 0001:000bee70       ___acrt_call_reportfault   100bfe70 f   libucrtd:invalid_parameter.obj
 0001:000bf020       ___acrt_initialize_invalid_parameter_handler 100c0020 f   libucrtd:invalid_parameter.obj
 0001:000bf050       __get_invalid_parameter_handler 100c0050 f   libucrtd:invalid_parameter.obj
 0001:000bf080       __get_thread_local_invalid_parameter_handler 100c0080 f   libucrtd:invalid_parameter.obj
 0001:000bf0b0       __invalid_parameter        100c00b0 f   libucrtd:invalid_parameter.obj
 0001:000bf100       __invalid_parameter_internal 100c0100 f   libucrtd:invalid_parameter.obj
 0001:000bf200       __invalid_parameter_noinfo 100c0200 f   libucrtd:invalid_parameter.obj
 0001:000bf220       __invalid_parameter_noinfo_noreturn 100c0220 f   libucrtd:invalid_parameter.obj
 0001:000bf260       __invoke_watson            100c0260 f   libucrtd:invalid_parameter.obj
 0001:000bf2b0       __set_invalid_parameter_handler 100c02b0 f   libucrtd:invalid_parameter.obj
 0001:000bf310       __set_thread_local_invalid_parameter_handler 100c0310 f   libucrtd:invalid_parameter.obj
 0001:000bf350       _strcmp                    100c0350 f   libucrtd:strcmp.obj
 0001:000bf400       ??$is_overflow_condition@_K@__crt_strtox@@YA_NI_K@Z 100c0400 f i libucrtd:atox.obj
 0001:000bf4b0       ??$make_c_string_character_source@D$$T@__crt_strtox@@YA?AV?$c_string_character_source@D@0@QBD$$T@Z 100c04b0 f i libucrtd:atox.obj
 0001:000bf4d0       ??$make_c_string_character_source@_W$$T@__crt_strtox@@YA?AV?$c_string_character_source@_W@0@QB_W$$T@Z 100c04d0 f i libucrtd:atox.obj
 0001:000bf4f0       ??$parse_integer@KV?$c_string_character_source@D@__crt_strtox@@$00@__crt_strtox@@YAKAAV__crt_cached_ptd_host@@V?$c_string_character_source@D@0@H_N@Z 100c04f0 f i libucrtd:atox.obj
 0001:000bf930       ??$parse_integer@KV?$c_string_character_source@_W@__crt_strtox@@$00@__crt_strtox@@YAKAAV__crt_cached_ptd_host@@V?$c_string_character_source@_W@0@H_N@Z 100c0930 f i libucrtd:atox.obj
 0001:000bfd70       ??$parse_integer@_KV?$c_string_character_source@D@__crt_strtox@@$00@__crt_strtox@@YA_KAAV__crt_cached_ptd_host@@V?$c_string_character_source@D@0@H_N@Z 100c0d70 f i libucrtd:atox.obj
 0001:000c0250       ??$parse_integer@_KV?$c_string_character_source@_W@__crt_strtox@@$00@__crt_strtox@@YA_KAAV__crt_cached_ptd_host@@V?$c_string_character_source@_W@0@H_N@Z 100c1250 f i libucrtd:atox.obj
 0001:000c0740       ??$parse_integer_from_string@JD$$T@__crt_strtox@@YAJQBD$$THQAU__crt_locale_pointers@@@Z 100c1740 f i libucrtd:atox.obj
 0001:000c07b0       ??$parse_integer_from_string@J_W$$T@__crt_strtox@@YAJQB_W$$THQAU__crt_locale_pointers@@@Z 100c17b0 f i libucrtd:atox.obj
 0001:000c0820       ??$parse_integer_from_string@_JD$$T@__crt_strtox@@YA_JQBD$$THQAU__crt_locale_pointers@@@Z 100c1820 f i libucrtd:atox.obj
 0001:000c0890       ??$parse_integer_from_string@_J_W$$T@__crt_strtox@@YA_JQB_W$$THQAU__crt_locale_pointers@@@Z 100c1890 f i libucrtd:atox.obj
 0001:000c0900       ?is_space@__crt_strtox@@YA_NDQAU__crt_locale_pointers@@@Z 100c1900 f i libucrtd:atox.obj
 0001:000c0950       ?is_space@__crt_strtox@@YA_N_WPAU__crt_locale_pointers@@@Z 100c1950 f i libucrtd:atox.obj
 0001:000c0990       ?maximum_signed_value@__crt_strtox@@YA_J_K@Z 100c1990 f i libucrtd:atox.obj
 0001:000c09b0       ?minimum_signed_value@__crt_strtox@@YA_J_K@Z 100c19b0 f i libucrtd:atox.obj
 0001:000c09d0       ___acrt_get_locale_data_prefix 100c19d0 f i libucrtd:atox.obj
 0001:000c09f0       __atoi64                   100c19f0 f   libucrtd:atox.obj
 0001:000c0a10       __atoi64_l                 100c1a10 f   libucrtd:atox.obj
 0001:000c0a40       __atoi_l                   100c1a40 f   libucrtd:atox.obj
 0001:000c0a70       __atol_l                   100c1a70 f   libucrtd:atox.obj
 0001:000c0aa0       __atoll_l                  100c1aa0 f   libucrtd:atox.obj
 0001:000c0ad0       __chvalidchk_l             100c1ad0 f i libucrtd:atox.obj
 0001:000c0b00       __ischartype_l             100c1b00 f i libucrtd:atox.obj
 0001:000c0ba0       __wtoi                     100c1ba0 f   libucrtd:atox.obj
 0001:000c0bc0       __wtoi64                   100c1bc0 f   libucrtd:atox.obj
 0001:000c0be0       __wtoi64_l                 100c1be0 f   libucrtd:atox.obj
 0001:000c0c10       __wtoi_l                   100c1c10 f   libucrtd:atox.obj
 0001:000c0c40       __wtol                     100c1c40 f   libucrtd:atox.obj
 0001:000c0c60       __wtol_l                   100c1c60 f   libucrtd:atox.obj
 0001:000c0c90       __wtoll                    100c1c90 f   libucrtd:atox.obj
 0001:000c0cb0       __wtoll_l                  100c1cb0 f   libucrtd:atox.obj
 0001:000c0ce0       _atoi                      100c1ce0 f   libucrtd:atox.obj
 0001:000c0d00       _atol                      100c1d00 f   libucrtd:atox.obj
 0001:000c0d20       _atoll                     100c1d20 f   libucrtd:atox.obj
 0001:000c0d40       ??$?RU?$__crt_report_hook_node@D@@@__crt_internal_free_policy@@QBEXQBU?$__crt_report_hook_node@D@@@Z 100c1d40 f i libucrtd:dbgrpt.obj
 0001:000c0d70       ??$?RU?$__crt_report_hook_node@_W@@@__crt_internal_free_policy@@QBEXQBU?$__crt_report_hook_node@_W@@@Z 100c1d70 f i libucrtd:dbgrpt.obj
 0001:000c2010       ??$get_module_file_name@AAPAUHINSTANCE__@@AAY0BAF@DK@?$__crt_char_traits@D@@SAKAAPAUHINSTANCE__@@AAY0BAF@D$$QAK@Z 100c3010 f i libucrtd:dbgrpt.obj
 0001:000c2040       ??$get_module_file_name@AAPAUHINSTANCE__@@AAY0BAF@_WK@?$__crt_char_traits@_W@@SAKAAPAUHINSTANCE__@@AAY0BAF@_W$$QAK@Z 100c3040 f i libucrtd:dbgrpt.obj
 0001:000c2070       ??$tcscpy_s@AAY0BAF@DIPBD@?$__crt_char_traits@D@@SAHAAY0BAF@D$$QAI$$QAPBD@Z 100c3070 f i libucrtd:dbgrpt.obj
 0001:000c20a0       ??$tcscpy_s@AAY0BAF@_WIPB_W@?$__crt_char_traits@_W@@SAHAAY0BAF@_W$$QAI$$QAPB_W@Z 100c30a0 f i libucrtd:dbgrpt.obj
 0001:000c20d0       ??$tcslen@AAY0BAF@D@?$__crt_char_traits@D@@SAIAAY0BAF@D@Z 100c30d0 f i libucrtd:dbgrpt.obj
 0001:000c20f0       ??$tcslen@AAY0BAF@_W@?$__crt_char_traits@_W@@SAIAAY0BAF@_W@Z 100c30f0 f i libucrtd:dbgrpt.obj
 0001:000c2110       ??$tcslen@ABQBD@?$__crt_char_traits@D@@SAIABQBD@Z 100c3110 f i libucrtd:dbgrpt.obj
 0001:000c2130       ??$tcslen@ABQB_W@?$__crt_char_traits@_W@@SAIABQB_W@Z 100c3130 f i libucrtd:dbgrpt.obj
 0001:000c2270       ??0?$__crt_unique_heap_ptr@U?$__crt_report_hook_node@D@@U__crt_internal_free_policy@@@@QAE@QAU?$__crt_report_hook_node@D@@@Z 100c3270 f i libucrtd:dbgrpt.obj
 0001:000c2290       ??0?$__crt_unique_heap_ptr@U?$__crt_report_hook_node@_W@@U__crt_internal_free_policy@@@@QAE@QAU?$__crt_report_hook_node@_W@@@Z 100c3290 f i libucrtd:dbgrpt.obj
 0001:000c22b0       ??1?$__crt_unique_heap_ptr@U?$__crt_report_hook_node@D@@U__crt_internal_free_policy@@@@QAE@XZ 100c32b0 f i libucrtd:dbgrpt.obj
 0001:000c22d0       ??1?$__crt_unique_heap_ptr@U?$__crt_report_hook_node@_W@@U__crt_internal_free_policy@@@@QAE@XZ 100c32d0 f i libucrtd:dbgrpt.obj
 0001:000c22f0       ??B?$__crt_unique_heap_ptr@U?$__crt_report_hook_node@D@@U__crt_internal_free_policy@@@@QBE_NXZ 100c32f0 f i libucrtd:dbgrpt.obj
 0001:000c2310       ??B?$__crt_unique_heap_ptr@U?$__crt_report_hook_node@_W@@U__crt_internal_free_policy@@@@QBE_NXZ 100c3310 f i libucrtd:dbgrpt.obj
 0001:000c29d0       ?detach@?$__crt_unique_heap_ptr@U?$__crt_report_hook_node@D@@U__crt_internal_free_policy@@@@QAEPAU?$__crt_report_hook_node@D@@XZ 100c39d0 f i libucrtd:dbgrpt.obj
 0001:000c2a00       ?detach@?$__crt_unique_heap_ptr@U?$__crt_report_hook_node@_W@@U__crt_internal_free_policy@@@@QAEPAU?$__crt_report_hook_node@_W@@XZ 100c3a00 f i libucrtd:dbgrpt.obj
 0001:000c2a30       ?get@?$__crt_unique_heap_ptr@U?$__crt_report_hook_node@D@@U__crt_internal_free_policy@@@@QBEPAU?$__crt_report_hook_node@D@@XZ 100c3a30 f i libucrtd:dbgrpt.obj
 0001:000c2a50       ?get@?$__crt_unique_heap_ptr@U?$__crt_report_hook_node@_W@@U__crt_internal_free_policy@@@@QBEPAU?$__crt_report_hook_node@_W@@XZ 100c3a50 f i libucrtd:dbgrpt.obj
 0001:000c2ad0       ?is_valid@?$__crt_unique_heap_ptr@U?$__crt_report_hook_node@D@@U__crt_internal_free_policy@@@@QBE_NXZ 100c3ad0 f i libucrtd:dbgrpt.obj
 0001:000c2b10       ?is_valid@?$__crt_unique_heap_ptr@U?$__crt_report_hook_node@_W@@U__crt_internal_free_policy@@@@QBE_NXZ 100c3b10 f i libucrtd:dbgrpt.obj
 0001:000c2b50       ?release@?$__crt_unique_heap_ptr@U?$__crt_report_hook_node@D@@U__crt_internal_free_policy@@@@QAEXXZ 100c3b50 f i libucrtd:dbgrpt.obj
 0001:000c2b80       ?release@?$__crt_unique_heap_ptr@U?$__crt_report_hook_node@_W@@U__crt_internal_free_policy@@@@QAEXXZ 100c3b80 f i libucrtd:dbgrpt.obj
 0001:000c2bb0       __CrtDbgReport             100c3bb0 f   libucrtd:dbgrpt.obj
 0001:000c2c10       __CrtDbgReportW            100c3c10 f   libucrtd:dbgrpt.obj
 0001:000c2c70       __CrtSetReportHook2        100c3c70 f   libucrtd:dbgrpt.obj
 0001:000c2c90       __CrtSetReportHookW2       100c3c90 f   libucrtd:dbgrpt.obj
 0001:000c2cb0       ___acrt_MessageWindowA     100c3cb0 f   libucrtd:dbgrpt.obj
 0001:000c2ce0       ___acrt_MessageWindowW     100c3ce0 f   libucrtd:dbgrpt.obj
 0001:000c2d10       __invoke_watson_if_error   100c3d10 f i libucrtd:dbgrpt.obj
 0001:000c2d50       __invoke_watson_if_oneof   100c3d50 f i libucrtd:dbgrpt.obj
 0001:000c2da0       __snwprintf_s              100c3da0 f i libucrtd:dbgrpt.obj
 0001:000c2df0       __vsnwprintf_s_l           100c3df0 f i libucrtd:dbgrpt.obj
 0001:000c2e60       __abs64                    100c3e60 f   libucrtd:abs.obj
 0001:000c2ec0       _abs                       100c3ec0 f   libucrtd:abs.obj
 0001:000c2ef0       _strcpy                    100c3ef0 f   libucrtd:strcat.obj
 0001:000c2f00       _strcat                    100c3f00 f   libucrtd:strcat.obj
 0001:000c3030       _strlen                    100c4030 f   libucrtd:strlen.obj
 0001:000c30e0       ??$?RE@__crt_internal_free_policy@@QBEXQBE@Z 100c40e0 f i libucrtd:input.obj
 0001:000c3390       ??$assemble_floating_point_ind@M@__crt_strtox@@YAXAAM@Z 100c4390 f i libucrtd:input.obj
 0001:000c33f0       ??$assemble_floating_point_ind@N@__crt_strtox@@YAXAAN@Z 100c43f0 f i libucrtd:input.obj
 0001:000c3460       ??$assemble_floating_point_infinity@M@__crt_strtox@@YAX_NAAM@Z 100c4460 f i libucrtd:input.obj
 0001:000c34e0       ??$assemble_floating_point_infinity@N@__crt_strtox@@YAX_NAAN@Z 100c44e0 f i libucrtd:input.obj
 0001:000c3590       ??$assemble_floating_point_qnan@M@__crt_strtox@@YAX_NAAM@Z 100c4590 f i libucrtd:input.obj
 0001:000c3610       ??$assemble_floating_point_qnan@N@__crt_strtox@@YAX_NAAN@Z 100c4610 f i libucrtd:input.obj
 0001:000c36c0       ??$assemble_floating_point_snan@M@__crt_strtox@@YAX_NAAM@Z 100c46c0 f i libucrtd:input.obj
 0001:000c3750       ??$assemble_floating_point_snan@N@__crt_strtox@@YAX_NAAN@Z 100c4750 f i libucrtd:input.obj
 0001:000c3800       ??$assemble_floating_point_value_t@M@__crt_strtox@@YA?AW4SLD_STATUS@@_NH_KAAM@Z 100c4800 f i libucrtd:input.obj
 0001:000c3890       ??$assemble_floating_point_value_t@N@__crt_strtox@@YA?AW4SLD_STATUS@@_NH_KAAN@Z 100c4890 f i libucrtd:input.obj
 0001:000c3960       ??$assemble_floating_point_zero@M@__crt_strtox@@YAX_NAAM@Z 100c4960 f i libucrtd:input.obj
 0001:000c39e0       ??$assemble_floating_point_zero@N@__crt_strtox@@YAX_NAAN@Z 100c49e0 f i libucrtd:input.obj
 0001:000c4240       ??$convert_decimal_string_to_floating_type@M@__crt_strtox@@YA?AW4SLD_STATUS@@ABUfloating_point_string@0@AAM@Z 100c5240 f i libucrtd:input.obj
 0001:000c4270       ??$convert_decimal_string_to_floating_type@N@__crt_strtox@@YA?AW4SLD_STATUS@@ABUfloating_point_string@0@AAN@Z 100c5270 f i libucrtd:input.obj
 0001:000c42a0       ??$convert_hexadecimal_string_to_floating_type@M@__crt_strtox@@YA?AW4SLD_STATUS@@ABUfloating_point_string@0@AAM@Z 100c52a0 f i libucrtd:input.obj
 0001:000c42d0       ??$convert_hexadecimal_string_to_floating_type@N@__crt_strtox@@YA?AW4SLD_STATUS@@ABUfloating_point_string@0@AAN@Z 100c52d0 f i libucrtd:input.obj
 0001:000c4300       ??$fill_buffer@D@?$input_processor@DV?$stream_input_adapter@D@__crt_stdio_input@@@__crt_stdio_input@@CAXQADII@Z 100c5300 f i libucrtd:input.obj
 0001:000c43a0       ??$fill_buffer@D@?$input_processor@DV?$string_input_adapter@D@__crt_stdio_input@@@__crt_stdio_input@@CAXQADII@Z 100c53a0 f i libucrtd:input.obj
 0001:000c4440       ??$fill_buffer@D@?$input_processor@_WV?$stream_input_adapter@_W@__crt_stdio_input@@@__crt_stdio_input@@CAXQADII@Z 100c5440 f i libucrtd:input.obj
 0001:000c44e0       ??$fill_buffer@D@?$input_processor@_WV?$string_input_adapter@_W@__crt_stdio_input@@@__crt_stdio_input@@CAXQADII@Z 100c54e0 f i libucrtd:input.obj
 0001:000c4580       ??$fill_buffer@_W@?$input_processor@DV?$stream_input_adapter@D@__crt_stdio_input@@@__crt_stdio_input@@CAXQA_WII@Z 100c5580 f i libucrtd:input.obj
 0001:000c4620       ??$fill_buffer@_W@?$input_processor@DV?$string_input_adapter@D@__crt_stdio_input@@@__crt_stdio_input@@CAXQA_WII@Z 100c5620 f i libucrtd:input.obj
 0001:000c46c0       ??$fill_buffer@_W@?$input_processor@_WV?$stream_input_adapter@_W@__crt_stdio_input@@@__crt_stdio_input@@CAXQA_WII@Z 100c56c0 f i libucrtd:input.obj
 0001:000c4760       ??$fill_buffer@_W@?$input_processor@_WV?$string_input_adapter@_W@__crt_stdio_input@@@__crt_stdio_input@@CAXQA_WII@Z 100c5760 f i libucrtd:input.obj
 0001:000c4800       ??$getc_nolock@PAU_iobuf@@@?$__crt_char_traits@D@@SAH$$QAPAU_iobuf@@@Z 100c5800 f i libucrtd:input.obj
 0001:000c4820       ??$getc_nolock@PAU_iobuf@@@?$__crt_char_traits@_W@@SAG$$QAPAU_iobuf@@@Z 100c5820 f i libucrtd:input.obj
 0001:000c4840       ??$istspace@ABE@?$__crt_char_traits@D@@SAHABE@Z 100c5840 f i libucrtd:input.obj
 0001:000c4860       ??$istspace@AB_W@?$__crt_char_traits@_W@@SAHAB_W@Z 100c5860 f i libucrtd:input.obj
 0001:000c4880       ??$make_input_adapter_character_source@V?$stream_input_adapter@D@__crt_stdio_input@@@__crt_strtox@@YA?AV?$input_adapter_character_source@V?$stream_input_adapter@D@__crt_stdio_input@@@0@QAV?$stream_input_adapter@D@__crt_stdio_input@@_KQA_N@Z 100c5880 f i libucrtd:input.obj
 0001:000c48b0       ??$make_input_adapter_character_source@V?$stream_input_adapter@_W@__crt_stdio_input@@@__crt_strtox@@YA?AV?$input_adapter_character_source@V?$stream_input_adapter@_W@__crt_stdio_input@@@0@QAV?$stream_input_adapter@_W@__crt_stdio_input@@_KQA_N@Z 100c58b0 f i libucrtd:input.obj
 0001:000c48e0       ??$make_input_adapter_character_source@V?$string_input_adapter@D@__crt_stdio_input@@@__crt_strtox@@YA?AV?$input_adapter_character_source@V?$string_input_adapter@D@__crt_stdio_input@@@0@QAV?$string_input_adapter@D@__crt_stdio_input@@_KQA_N@Z 100c58e0 f i libucrtd:input.obj
 0001:000c4910       ??$make_input_adapter_character_source@V?$string_input_adapter@_W@__crt_stdio_input@@@__crt_strtox@@YA?AV?$input_adapter_character_source@V?$string_input_adapter@_W@__crt_stdio_input@@@0@QAV?$string_input_adapter@_W@__crt_stdio_input@@_KQA_N@Z 100c5910 f i libucrtd:input.obj
 0001:000c4940       ??$parse_floating_point@V?$input_adapter_character_source@V?$stream_input_adapter@D@__crt_stdio_input@@@__crt_strtox@@M@__crt_strtox@@YA?AW4SLD_STATUS@@QAU__crt_locale_pointers@@V?$input_adapter_character_source@V?$stream_input_adapter@D@__crt_stdio_input@@@0@QAM@Z 100c5940 f i libucrtd:input.obj
 0001:000c4b70       ??$parse_floating_point@V?$input_adapter_character_source@V?$stream_input_adapter@D@__crt_stdio_input@@@__crt_strtox@@N@__crt_strtox@@YA?AW4SLD_STATUS@@QAU__crt_locale_pointers@@V?$input_adapter_character_source@V?$stream_input_adapter@D@__crt_stdio_input@@@0@QAN@Z 100c5b70 f i libucrtd:input.obj
 0001:000c4da0       ??$parse_floating_point@V?$input_adapter_character_source@V?$stream_input_adapter@_W@__crt_stdio_input@@@__crt_strtox@@M@__crt_strtox@@YA?AW4SLD_STATUS@@QAU__crt_locale_pointers@@V?$input_adapter_character_source@V?$stream_input_adapter@_W@__crt_stdio_input@@@0@QAM@Z 100c5da0 f i libucrtd:input.obj
 0001:000c4fd0       ??$parse_floating_point@V?$input_adapter_character_source@V?$stream_input_adapter@_W@__crt_stdio_input@@@__crt_strtox@@N@__crt_strtox@@YA?AW4SLD_STATUS@@QAU__crt_locale_pointers@@V?$input_adapter_character_source@V?$stream_input_adapter@_W@__crt_stdio_input@@@0@QAN@Z 100c5fd0 f i libucrtd:input.obj
 0001:000c5200       ??$parse_floating_point@V?$input_adapter_character_source@V?$string_input_adapter@D@__crt_stdio_input@@@__crt_strtox@@M@__crt_strtox@@YA?AW4SLD_STATUS@@QAU__crt_locale_pointers@@V?$input_adapter_character_source@V?$string_input_adapter@D@__crt_stdio_input@@@0@QAM@Z 100c6200 f i libucrtd:input.obj
 0001:000c5430       ??$parse_floating_point@V?$input_adapter_character_source@V?$string_input_adapter@D@__crt_stdio_input@@@__crt_strtox@@N@__crt_strtox@@YA?AW4SLD_STATUS@@QAU__crt_locale_pointers@@V?$input_adapter_character_source@V?$string_input_adapter@D@__crt_stdio_input@@@0@QAN@Z 100c6430 f i libucrtd:input.obj
 0001:000c5660       ??$parse_floating_point@V?$input_adapter_character_source@V?$string_input_adapter@_W@__crt_stdio_input@@@__crt_strtox@@M@__crt_strtox@@YA?AW4SLD_STATUS@@QAU__crt_locale_pointers@@V?$input_adapter_character_source@V?$string_input_adapter@_W@__crt_stdio_input@@@0@QAM@Z 100c6660 f i libucrtd:input.obj
 0001:000c5890       ??$parse_floating_point@V?$input_adapter_character_source@V?$string_input_adapter@_W@__crt_stdio_input@@@__crt_strtox@@N@__crt_strtox@@YA?AW4SLD_STATUS@@QAU__crt_locale_pointers@@V?$input_adapter_character_source@V?$string_input_adapter@_W@__crt_stdio_input@@@0@QAN@Z 100c6890 f i libucrtd:input.obj
 0001:000c5ac0       ??$parse_floating_point_from_source@V?$input_adapter_character_source@V?$stream_input_adapter@D@__crt_stdio_input@@@__crt_strtox@@@__crt_strtox@@YA?AW4floating_point_parse_result@0@QAU__crt_locale_pointers@@AAV?$input_adapter_character_source@V?$stream_input_adapter@D@__crt_stdio_input@@@0@AAUfloating_point_string@0@@Z 100c6ac0 f i libucrtd:input.obj
 0001:000c6240       ??$parse_floating_point_from_source@V?$input_adapter_character_source@V?$stream_input_adapter@_W@__crt_stdio_input@@@__crt_strtox@@@__crt_strtox@@YA?AW4floating_point_parse_result@0@QAU__crt_locale_pointers@@AAV?$input_adapter_character_source@V?$stream_input_adapter@_W@__crt_stdio_input@@@0@AAUfloating_point_string@0@@Z 100c7240 f i libucrtd:input.obj
 0001:000c69d0       ??$parse_floating_point_from_source@V?$input_adapter_character_source@V?$string_input_adapter@D@__crt_stdio_input@@@__crt_strtox@@@__crt_strtox@@YA?AW4floating_point_parse_result@0@QAU__crt_locale_pointers@@AAV?$input_adapter_character_source@V?$string_input_adapter@D@__crt_stdio_input@@@0@AAUfloating_point_string@0@@Z 100c79d0 f i libucrtd:input.obj
 0001:000c7150       ??$parse_floating_point_from_source@V?$input_adapter_character_source@V?$string_input_adapter@_W@__crt_stdio_input@@@__crt_strtox@@@__crt_strtox@@YA?AW4floating_point_parse_result@0@QAU__crt_locale_pointers@@AAV?$input_adapter_character_source@V?$string_input_adapter@_W@__crt_stdio_input@@@0@AAUfloating_point_string@0@@Z 100c8150 f i libucrtd:input.obj
 0001:000c78e0       ??$parse_floating_point_possible_infinity@DV?$input_adapter_character_source@V?$stream_input_adapter@D@__crt_stdio_input@@@__crt_strtox@@_K@__crt_strtox@@YA?AW4floating_point_parse_result@0@AADAAV?$input_adapter_character_source@V?$stream_input_adapter@D@__crt_stdio_input@@@0@_K@Z 100c88e0 f i libucrtd:input.obj
 0001:000c7a30       ??$parse_floating_point_possible_infinity@DV?$input_adapter_character_source@V?$string_input_adapter@D@__crt_stdio_input@@@__crt_strtox@@_K@__crt_strtox@@YA?AW4floating_point_parse_result@0@AADAAV?$input_adapter_character_source@V?$string_input_adapter@D@__crt_stdio_input@@@0@_K@Z 100c8a30 f i libucrtd:input.obj
 0001:000c7b80       ??$parse_floating_point_possible_infinity@_WV?$input_adapter_character_source@V?$stream_input_adapter@_W@__crt_stdio_input@@@__crt_strtox@@_K@__crt_strtox@@YA?AW4floating_point_parse_result@0@AA_WAAV?$input_adapter_character_source@V?$stream_input_adapter@_W@__crt_stdio_input@@@0@_K@Z 100c8b80 f i libucrtd:input.obj
 0001:000c7cd0       ??$parse_floating_point_possible_infinity@_WV?$input_adapter_character_source@V?$string_input_adapter@_W@__crt_stdio_input@@@__crt_strtox@@_K@__crt_strtox@@YA?AW4floating_point_parse_result@0@AA_WAAV?$input_adapter_character_source@V?$string_input_adapter@_W@__crt_stdio_input@@@0@_K@Z 100c8cd0 f i libucrtd:input.obj
 0001:000c7e20       ??$parse_floating_point_possible_nan@DV?$input_adapter_character_source@V?$stream_input_adapter@D@__crt_stdio_input@@@__crt_strtox@@_K@__crt_strtox@@YA?AW4floating_point_parse_result@0@AADAAV?$input_adapter_character_source@V?$stream_input_adapter@D@__crt_stdio_input@@@0@_K@Z 100c8e20 f i libucrtd:input.obj
 0001:000c8080       ??$parse_floating_point_possible_nan@DV?$input_adapter_character_source@V?$string_input_adapter@D@__crt_stdio_input@@@__crt_strtox@@_K@__crt_strtox@@YA?AW4floating_point_parse_result@0@AADAAV?$input_adapter_character_source@V?$string_input_adapter@D@__crt_stdio_input@@@0@_K@Z 100c9080 f i libucrtd:input.obj
 0001:000c82e0       ??$parse_floating_point_possible_nan@_WV?$input_adapter_character_source@V?$stream_input_adapter@_W@__crt_stdio_input@@@__crt_strtox@@_K@__crt_strtox@@YA?AW4floating_point_parse_result@0@AA_WAAV?$input_adapter_character_source@V?$stream_input_adapter@_W@__crt_stdio_input@@@0@_K@Z 100c92e0 f i libucrtd:input.obj
 0001:000c8540       ??$parse_floating_point_possible_nan@_WV?$input_adapter_character_source@V?$string_input_adapter@_W@__crt_stdio_input@@@__crt_strtox@@_K@__crt_strtox@@YA?AW4floating_point_parse_result@0@AA_WAAV?$input_adapter_character_source@V?$string_input_adapter@_W@__crt_stdio_input@@@0@_K@Z 100c9540 f i libucrtd:input.obj
 0001:000c87a0       ??$parse_floating_point_possible_nan_is_ind@DV?$input_adapter_character_source@V?$stream_input_adapter@D@__crt_stdio_input@@@__crt_strtox@@@__crt_strtox@@YA_NAADAAV?$input_adapter_character_source@V?$stream_input_adapter@D@__crt_stdio_input@@@0@@Z 100c97a0 f i libucrtd:input.obj
 0001:000c87d0       ??$parse_floating_point_possible_nan_is_ind@DV?$input_adapter_character_source@V?$string_input_adapter@D@__crt_stdio_input@@@__crt_strtox@@@__crt_strtox@@YA_NAADAAV?$input_adapter_character_source@V?$string_input_adapter@D@__crt_stdio_input@@@0@@Z 100c97d0 f i libucrtd:input.obj
 0001:000c8800       ??$parse_floating_point_possible_nan_is_ind@_WV?$input_adapter_character_source@V?$stream_input_adapter@_W@__crt_stdio_input@@@__crt_strtox@@@__crt_strtox@@YA_NAA_WAAV?$input_adapter_character_source@V?$stream_input_adapter@_W@__crt_stdio_input@@@0@@Z 100c9800 f i libucrtd:input.obj
 0001:000c8830       ??$parse_floating_point_possible_nan_is_ind@_WV?$input_adapter_character_source@V?$string_input_adapter@_W@__crt_stdio_input@@@__crt_strtox@@@__crt_strtox@@YA_NAA_WAAV?$input_adapter_character_source@V?$string_input_adapter@_W@__crt_stdio_input@@@0@@Z 100c9830 f i libucrtd:input.obj
 0001:000c8860       ??$parse_floating_point_possible_nan_is_snan@DV?$input_adapter_character_source@V?$stream_input_adapter@D@__crt_stdio_input@@@__crt_strtox@@@__crt_strtox@@YA_NAADAAV?$input_adapter_character_source@V?$stream_input_adapter@D@__crt_stdio_input@@@0@@Z 100c9860 f i libucrtd:input.obj
 0001:000c8890       ??$parse_floating_point_possible_nan_is_snan@DV?$input_adapter_character_source@V?$string_input_adapter@D@__crt_stdio_input@@@__crt_strtox@@@__crt_strtox@@YA_NAADAAV?$input_adapter_character_source@V?$string_input_adapter@D@__crt_stdio_input@@@0@@Z 100c9890 f i libucrtd:input.obj
 0001:000c88c0       ??$parse_floating_point_possible_nan_is_snan@_WV?$input_adapter_character_source@V?$stream_input_adapter@_W@__crt_stdio_input@@@__crt_strtox@@@__crt_strtox@@YA_NAA_WAAV?$input_adapter_character_source@V?$stream_input_adapter@_W@__crt_stdio_input@@@0@@Z 100c98c0 f i libucrtd:input.obj
 0001:000c88f0       ??$parse_floating_point_possible_nan_is_snan@_WV?$input_adapter_character_source@V?$string_input_adapter@_W@__crt_stdio_input@@@__crt_strtox@@@__crt_strtox@@YA_NAA_WAAV?$input_adapter_character_source@V?$string_input_adapter@_W@__crt_stdio_input@@@0@@Z 100c98f0 f i libucrtd:input.obj
 0001:000c8920       ??$parse_floating_point_write_result@M@__crt_strtox@@YA?AW4SLD_STATUS@@W4floating_point_parse_result@0@ABUfloating_point_string@0@QAM@Z 100c9920 f i libucrtd:input.obj
 0001:000c8b10       ??$parse_floating_point_write_result@N@__crt_strtox@@YA?AW4SLD_STATUS@@W4floating_point_parse_result@0@ABUfloating_point_string@0@QAN@Z 100c9b10 f i libucrtd:input.obj
 0001:000c8d00       ??$parse_integer@_KV?$input_adapter_character_source@V?$stream_input_adapter@D@__crt_stdio_input@@@__crt_strtox@@$00@__crt_strtox@@YA_KAAV__crt_cached_ptd_host@@V?$input_adapter_character_source@V?$stream_input_adapter@D@__crt_stdio_input@@@0@H_N@Z 100c9d00 f i libucrtd:input.obj
 0001:000c91f0       ??$parse_integer@_KV?$input_adapter_character_source@V?$stream_input_adapter@D@__crt_stdio_input@@@__crt_strtox@@@__crt_strtox@@YA_KQAU__crt_locale_pointers@@V?$input_adapter_character_source@V?$stream_input_adapter@D@__crt_stdio_input@@@0@H_N@Z 100ca1f0 f i libucrtd:input.obj
 0001:000c9260       ??$parse_integer@_KV?$input_adapter_character_source@V?$stream_input_adapter@_W@__crt_stdio_input@@@__crt_strtox@@$00@__crt_strtox@@YA_KAAV__crt_cached_ptd_host@@V?$input_adapter_character_source@V?$stream_input_adapter@_W@__crt_stdio_input@@@0@H_N@Z 100ca260 f i libucrtd:input.obj
 0001:000c9760       ??$parse_integer@_KV?$input_adapter_character_source@V?$stream_input_adapter@_W@__crt_stdio_input@@@__crt_strtox@@@__crt_strtox@@YA_KQAU__crt_locale_pointers@@V?$input_adapter_character_source@V?$stream_input_adapter@_W@__crt_stdio_input@@@0@H_N@Z 100ca760 f i libucrtd:input.obj
 0001:000c97d0       ??$parse_integer@_KV?$input_adapter_character_source@V?$string_input_adapter@D@__crt_stdio_input@@@__crt_strtox@@$00@__crt_strtox@@YA_KAAV__crt_cached_ptd_host@@V?$input_adapter_character_source@V?$string_input_adapter@D@__crt_stdio_input@@@0@H_N@Z 100ca7d0 f i libucrtd:input.obj
 0001:000c9cc0       ??$parse_integer@_KV?$input_adapter_character_source@V?$string_input_adapter@D@__crt_stdio_input@@@__crt_strtox@@@__crt_strtox@@YA_KQAU__crt_locale_pointers@@V?$input_adapter_character_source@V?$string_input_adapter@D@__crt_stdio_input@@@0@H_N@Z 100cacc0 f i libucrtd:input.obj
 0001:000c9d30       ??$parse_integer@_KV?$input_adapter_character_source@V?$string_input_adapter@_W@__crt_stdio_input@@@__crt_strtox@@$00@__crt_strtox@@YA_KAAV__crt_cached_ptd_host@@V?$input_adapter_character_source@V?$string_input_adapter@_W@__crt_stdio_input@@@0@H_N@Z 100cad30 f i libucrtd:input.obj
 0001:000ca230       ??$parse_integer@_KV?$input_adapter_character_source@V?$string_input_adapter@_W@__crt_stdio_input@@@__crt_strtox@@@__crt_strtox@@YA_KQAU__crt_locale_pointers@@V?$input_adapter_character_source@V?$string_input_adapter@_W@__crt_stdio_input@@@0@H_N@Z 100cb230 f i libucrtd:input.obj
 0001:000ca2a0       ??$parse_next_characters_from_source@DV?$input_adapter_character_source@V?$stream_input_adapter@D@__crt_stdio_input@@@__crt_strtox@@@__crt_strtox@@YA_NQBD0IAADAAV?$input_adapter_character_source@V?$stream_input_adapter@D@__crt_stdio_input@@@0@@Z 100cb2a0 f i libucrtd:input.obj
 0001:000ca320       ??$parse_next_characters_from_source@DV?$input_adapter_character_source@V?$string_input_adapter@D@__crt_stdio_input@@@__crt_strtox@@@__crt_strtox@@YA_NQBD0IAADAAV?$input_adapter_character_source@V?$string_input_adapter@D@__crt_stdio_input@@@0@@Z 100cb320 f i libucrtd:input.obj
 0001:000ca3a0       ??$parse_next_characters_from_source@_WV?$input_adapter_character_source@V?$stream_input_adapter@_W@__crt_stdio_input@@@__crt_strtox@@@__crt_strtox@@YA_NQB_W0IAA_WAAV?$input_adapter_character_source@V?$stream_input_adapter@_W@__crt_stdio_input@@@0@@Z 100cb3a0 f i libucrtd:input.obj
 0001:000ca420       ??$parse_next_characters_from_source@_WV?$input_adapter_character_source@V?$string_input_adapter@_W@__crt_stdio_input@@@__crt_strtox@@@__crt_strtox@@YA_NQB_W0IAA_WAAV?$input_adapter_character_source@V?$string_input_adapter@_W@__crt_stdio_input@@@0@@Z 100cb420 f i libucrtd:input.obj
 0001:000ca4a0       ??$process_floating_point_specifier_t@M@?$input_processor@DV?$stream_input_adapter@D@__crt_stdio_input@@@__crt_stdio_input@@AAE_NXZ 100cb4a0 f i libucrtd:input.obj
 0001:000ca560       ??$process_floating_point_specifier_t@M@?$input_processor@DV?$string_input_adapter@D@__crt_stdio_input@@@__crt_stdio_input@@AAE_NXZ 100cb560 f i libucrtd:input.obj
 0001:000ca620       ??$process_floating_point_specifier_t@M@?$input_processor@_WV?$stream_input_adapter@_W@__crt_stdio_input@@@__crt_stdio_input@@AAE_NXZ 100cb620 f i libucrtd:input.obj
 0001:000ca6e0       ??$process_floating_point_specifier_t@M@?$input_processor@_WV?$string_input_adapter@_W@__crt_stdio_input@@@__crt_stdio_input@@AAE_NXZ 100cb6e0 f i libucrtd:input.obj
 0001:000ca7a0       ??$process_floating_point_specifier_t@N@?$input_processor@DV?$stream_input_adapter@D@__crt_stdio_input@@@__crt_stdio_input@@AAE_NXZ 100cb7a0 f i libucrtd:input.obj
 0001:000ca860       ??$process_floating_point_specifier_t@N@?$input_processor@DV?$string_input_adapter@D@__crt_stdio_input@@@__crt_stdio_input@@AAE_NXZ 100cb860 f i libucrtd:input.obj
 0001:000ca920       ??$process_floating_point_specifier_t@N@?$input_processor@_WV?$stream_input_adapter@_W@__crt_stdio_input@@@__crt_stdio_input@@AAE_NXZ 100cb920 f i libucrtd:input.obj
 0001:000ca9e0       ??$process_floating_point_specifier_t@N@?$input_processor@_WV?$string_input_adapter@_W@__crt_stdio_input@@@__crt_stdio_input@@AAE_NXZ 100cb9e0 f i libucrtd:input.obj
 0001:000caaa0       ??$process_string_specifier_tchar@D@?$input_processor@DV?$stream_input_adapter@D@__crt_stdio_input@@@__crt_stdio_input@@AAE_NW4conversion_mode@1@D@Z 100cbaa0 f i libucrtd:input.obj
 0001:000cae40       ??$process_string_specifier_tchar@D@?$input_processor@DV?$string_input_adapter@D@__crt_stdio_input@@@__crt_stdio_input@@AAE_NW4conversion_mode@1@D@Z 100cbe40 f i libucrtd:input.obj
 0001:000cb1e0       ??$process_string_specifier_tchar@D@?$input_processor@_WV?$stream_input_adapter@_W@__crt_stdio_input@@@__crt_stdio_input@@AAE_NW4conversion_mode@1@D@Z 100cc1e0 f i libucrtd:input.obj
 0001:000cb590       ??$process_string_specifier_tchar@D@?$input_processor@_WV?$string_input_adapter@_W@__crt_stdio_input@@@__crt_stdio_input@@AAE_NW4conversion_mode@1@D@Z 100cc590 f i libucrtd:input.obj
 0001:000cb940       ??$process_string_specifier_tchar@_W@?$input_processor@DV?$stream_input_adapter@D@__crt_stdio_input@@@__crt_stdio_input@@AAE_NW4conversion_mode@1@_W@Z 100cc940 f i libucrtd:input.obj
 0001:000cbce0       ??$process_string_specifier_tchar@_W@?$input_processor@DV?$string_input_adapter@D@__crt_stdio_input@@@__crt_stdio_input@@AAE_NW4conversion_mode@1@_W@Z 100ccce0 f i libucrtd:input.obj
 0001:000cc080       ??$process_string_specifier_tchar@_W@?$input_processor@_WV?$stream_input_adapter@_W@__crt_stdio_input@@@__crt_stdio_input@@AAE_NW4conversion_mode@1@_W@Z 100cd080 f i libucrtd:input.obj
 0001:000cc430       ??$process_string_specifier_tchar@_W@?$input_processor@_WV?$string_input_adapter@_W@__crt_stdio_input@@@__crt_stdio_input@@AAE_NW4conversion_mode@1@_W@Z 100cd430 f i libucrtd:input.obj
 0001:000cc7e0       ??$reset_buffer@D@?$input_processor@DV?$stream_input_adapter@D@__crt_stdio_input@@@__crt_stdio_input@@CAXQADI@Z 100cd7e0 f i libucrtd:input.obj
 0001:000cc870       ??$reset_buffer@D@?$input_processor@DV?$string_input_adapter@D@__crt_stdio_input@@@__crt_stdio_input@@CAXQADI@Z 100cd870 f i libucrtd:input.obj
 0001:000cc900       ??$reset_buffer@D@?$input_processor@_WV?$stream_input_adapter@_W@__crt_stdio_input@@@__crt_stdio_input@@CAXQADI@Z 100cd900 f i libucrtd:input.obj
 0001:000cc990       ??$reset_buffer@D@?$input_processor@_WV?$string_input_adapter@_W@__crt_stdio_input@@@__crt_stdio_input@@CAXQADI@Z 100cd990 f i libucrtd:input.obj
 0001:000cca20       ??$reset_buffer@_W@?$input_processor@DV?$stream_input_adapter@D@__crt_stdio_input@@@__crt_stdio_input@@CAXQA_WI@Z 100cda20 f i libucrtd:input.obj
 0001:000ccab0       ??$reset_buffer@_W@?$input_processor@DV?$string_input_adapter@D@__crt_stdio_input@@@__crt_stdio_input@@CAXQA_WI@Z 100cdab0 f i libucrtd:input.obj
 0001:000ccb40       ??$reset_buffer@_W@?$input_processor@_WV?$stream_input_adapter@_W@__crt_stdio_input@@@__crt_stdio_input@@CAXQA_WI@Z 100cdb40 f i libucrtd:input.obj
 0001:000ccbd0       ??$reset_buffer@_W@?$input_processor@_WV?$string_input_adapter@_W@__crt_stdio_input@@@__crt_stdio_input@@CAXQA_WI@Z 100cdbd0 f i libucrtd:input.obj
 0001:000ccc60       ??$skip_whitespace@Vstream_input_adapter@__crt_stdio_input@@D@__crt_stdio_input@@YAHAAV?$stream_input_adapter@D@0@QAU__crt_locale_pointers@@@Z 100cdc60 f i libucrtd:input.obj
 0001:000cccb0       ??$skip_whitespace@Vstream_input_adapter@__crt_stdio_input@@_W@__crt_stdio_input@@YAGAAV?$stream_input_adapter@_W@0@QAU__crt_locale_pointers@@@Z 100cdcb0 f i libucrtd:input.obj
 0001:000ccd00       ??$skip_whitespace@Vstring_input_adapter@__crt_stdio_input@@D@__crt_stdio_input@@YAHAAV?$string_input_adapter@D@0@QAU__crt_locale_pointers@@@Z 100cdd00 f i libucrtd:input.obj
 0001:000ccd50       ??$skip_whitespace@Vstring_input_adapter@__crt_stdio_input@@_W@__crt_stdio_input@@YAGAAV?$string_input_adapter@_W@0@QAU__crt_locale_pointers@@@Z 100cdd50 f i libucrtd:input.obj
 0001:000ccda0       ??$tcsnlen@ABQBDABI@?$__crt_char_traits@D@@SAIABQBDABI@Z 100cdda0 f i libucrtd:input.obj
 0001:000ccdd0       ??$tcsnlen@ABQB_WABI@?$__crt_char_traits@_W@@SAIABQB_WABI@Z 100cddd0 f i libucrtd:input.obj
 0001:000cce00       ??$tcstoull@PBDPAPADH@?$__crt_char_traits@D@@SA_K$$QAPBD$$QAPAPAD$$QAH@Z 100cde00 f i libucrtd:input.obj
 0001:000cce30       ??$tcstoull@PB_WPAPA_WH@?$__crt_char_traits@_W@@SA_K$$QAPB_W$$QAPAPA_W$$QAH@Z 100cde30 f i libucrtd:input.obj
 0001:000cce60       ??$ungettc_nolock@ABGPAU_iobuf@@@?$__crt_char_traits@_W@@SAGABG$$QAPAU_iobuf@@@Z 100cde60 f i libucrtd:input.obj
 0001:000cce90       ??$ungettc_nolock@ABHPAU_iobuf@@@?$__crt_char_traits@D@@SAHABH$$QAPAU_iobuf@@@Z 100cde90 f i libucrtd:input.obj
 0001:000ccec0       ??$write_floating_point@M@?$input_processor@DV?$stream_input_adapter@D@__crt_stdio_input@@@__crt_stdio_input@@AAE_NABM@Z 100cdec0 f i libucrtd:input.obj
 0001:000ccff0       ??$write_floating_point@M@?$input_processor@DV?$string_input_adapter@D@__crt_stdio_input@@@__crt_stdio_input@@AAE_NABM@Z 100cdff0 f i libucrtd:input.obj
 0001:000cd120       ??$write_floating_point@M@?$input_processor@_WV?$stream_input_adapter@_W@__crt_stdio_input@@@__crt_stdio_input@@AAE_NABM@Z 100ce120 f i libucrtd:input.obj
 0001:000cd250       ??$write_floating_point@M@?$input_processor@_WV?$string_input_adapter@_W@__crt_stdio_input@@@__crt_stdio_input@@AAE_NABM@Z 100ce250 f i libucrtd:input.obj
 0001:000cd380       ??$write_floating_point@N@?$input_processor@DV?$stream_input_adapter@D@__crt_stdio_input@@@__crt_stdio_input@@AAE_NABN@Z 100ce380 f i libucrtd:input.obj
 0001:000cd4b0       ??$write_floating_point@N@?$input_processor@DV?$string_input_adapter@D@__crt_stdio_input@@@__crt_stdio_input@@AAE_NABN@Z 100ce4b0 f i libucrtd:input.obj
 0001:000cd5e0       ??$write_floating_point@N@?$input_processor@_WV?$stream_input_adapter@_W@__crt_stdio_input@@@__crt_stdio_input@@AAE_NABN@Z 100ce5e0 f i libucrtd:input.obj
 0001:000cd710       ??$write_floating_point@N@?$input_processor@_WV?$string_input_adapter@_W@__crt_stdio_input@@@__crt_stdio_input@@AAE_NABN@Z 100ce710 f i libucrtd:input.obj
 0001:000cd840       ??0<lambda_0b87716a0b73cdfba1cd37fcaaa20711>@@QAE@AAV?$input_adapter_character_source@V?$stream_input_adapter@D@__crt_stdio_input@@@__crt_strtox@@AADAA_K@Z 100ce840 f i libucrtd:input.obj
 0001:000cd980       ??0<lambda_448605b25275ab87d3c5d4aa7a38a0aa>@@QAE@AAV?$input_adapter_character_source@V?$string_input_adapter@_W@__crt_stdio_input@@@__crt_strtox@@AA_WAA_K@Z 100ce980 f i libucrtd:input.obj
 0001:000cd9c0       ??0<lambda_46698efe93618fff5274d84d009d2be1>@@QAE@AAV?$input_adapter_character_source@V?$stream_input_adapter@_W@__crt_stdio_input@@@__crt_strtox@@AA_WAA_K@Z 100ce9c0 f i libucrtd:input.obj
 0001:000cda00       ??0<lambda_5f3f4d49f9676d963a9a63518de6904a>@@QAE@AAV?$input_adapter_character_source@V?$stream_input_adapter@_W@__crt_stdio_input@@@__crt_strtox@@AA_WAA_K@Z 100cea00 f i libucrtd:input.obj
 0001:000cda40       ??0<lambda_644f8ab42ed3fd1d660977a2364b3a7d>@@QAE@AAV?$input_adapter_character_source@V?$string_input_adapter@D@__crt_stdio_input@@@__crt_strtox@@AADAA_K@Z 100cea40 f i libucrtd:input.obj
 0001:000cdab0       ??0<lambda_c7c3f778895f47e7f4eff38a8fef279a>@@QAE@AAV?$input_adapter_character_source@V?$stream_input_adapter@D@__crt_stdio_input@@@__crt_strtox@@AADAA_K@Z 100ceab0 f i libucrtd:input.obj
 0001:000cdaf0       ??0<lambda_cbb29514201643ebc3996c8b1c7ae90c>@@QAE@AAV?$input_adapter_character_source@V?$stream_input_adapter@_W@__crt_stdio_input@@@__crt_strtox@@AA_WAA_K@Z 100ceaf0 f i libucrtd:input.obj
 0001:000cdb60       ??0<lambda_e41f1170c8800e4a6fed1afad60fab6f>@@QAE@AAV?$input_adapter_character_source@V?$stream_input_adapter@D@__crt_stdio_input@@@__crt_strtox@@AADAA_K@Z 100ceb60 f i libucrtd:input.obj
 0001:000cdba0       ??0<lambda_e5165159ec566db3a71156c9b71536ca>@@QAE@AAV?$input_adapter_character_source@V?$string_input_adapter@_W@__crt_stdio_input@@@__crt_strtox@@AA_WAA_K@Z 100ceba0 f i libucrtd:input.obj
 0001:000cdbe0       ??0<lambda_f1fa4c266c18b246f3ed9c36247dab4f>@@QAE@AAV?$input_adapter_character_source@V?$string_input_adapter@D@__crt_stdio_input@@@__crt_strtox@@AADAA_K@Z 100cebe0 f i libucrtd:input.obj
 0001:000cdc20       ??0<lambda_f765c90ab33e8386abf09c0f079d37e9>@@QAE@AAV?$input_adapter_character_source@V?$string_input_adapter@D@__crt_stdio_input@@@__crt_strtox@@AADAA_K@Z 100cec20 f i libucrtd:input.obj
 0001:000cdc60       ??0<lambda_fd76cae15b6f790020ebaa7b78a868c2>@@QAE@AAV?$input_adapter_character_source@V?$string_input_adapter@_W@__crt_stdio_input@@@__crt_strtox@@AA_WAA_K@Z 100cec60 f i libucrtd:input.obj
 0001:000cdca0       ??0?$__crt_unique_heap_ptr@EU__crt_internal_free_policy@@@@QAE@QAE@Z 100ceca0 f i libucrtd:input.obj
 0001:000cdcc0       ??0?$format_string_parser@D@__crt_stdio_input@@QAE@_KQBE@Z 100cecc0 f i libucrtd:input.obj
 0001:000cdd60       ??0?$format_string_parser@_W@__crt_stdio_input@@QAE@_KQB_W@Z 100ced60 f i libucrtd:input.obj
 0001:000cddc0       ??0?$input_adapter_character_source@V?$stream_input_adapter@D@__crt_stdio_input@@@__crt_strtox@@QAE@$$QAV01@@Z 100cedc0 f i libucrtd:input.obj
 0001:000cde40       ??0?$input_adapter_character_source@V?$stream_input_adapter@D@__crt_stdio_input@@@__crt_strtox@@QAE@QAV?$stream_input_adapter@D@__crt_stdio_input@@_KQA_N@Z 100cee40 f i libucrtd:input.obj
 0001:000cdea0       ??0?$input_adapter_character_source@V?$stream_input_adapter@_W@__crt_stdio_input@@@__crt_strtox@@QAE@$$QAV01@@Z 100ceea0 f i libucrtd:input.obj
 0001:000cdf20       ??0?$input_adapter_character_source@V?$stream_input_adapter@_W@__crt_stdio_input@@@__crt_strtox@@QAE@QAV?$stream_input_adapter@_W@__crt_stdio_input@@_KQA_N@Z 100cef20 f i libucrtd:input.obj
 0001:000cdf80       ??0?$input_adapter_character_source@V?$string_input_adapter@D@__crt_stdio_input@@@__crt_strtox@@QAE@$$QAV01@@Z 100cef80 f i libucrtd:input.obj
 0001:000ce000       ??0?$input_adapter_character_source@V?$string_input_adapter@D@__crt_stdio_input@@@__crt_strtox@@QAE@QAV?$string_input_adapter@D@__crt_stdio_input@@_KQA_N@Z 100cf000 f i libucrtd:input.obj
 0001:000ce060       ??0?$input_adapter_character_source@V?$string_input_adapter@_W@__crt_stdio_input@@@__crt_strtox@@QAE@$$QAV01@@Z 100cf060 f i libucrtd:input.obj
 0001:000ce0e0       ??0?$input_adapter_character_source@V?$string_input_adapter@_W@__crt_stdio_input@@@__crt_strtox@@QAE@QAV?$string_input_adapter@_W@__crt_stdio_input@@_KQA_N@Z 100cf0e0 f i libucrtd:input.obj
 0001:000ce140       ??0?$input_processor@DV?$stream_input_adapter@D@__crt_stdio_input@@@__crt_stdio_input@@QAE@ABV?$stream_input_adapter@D@1@_KQBDQAU__crt_locale_pointers@@QAD@Z 100cf140 f i libucrtd:input.obj
 0001:000ce1d0       ??0?$input_processor@DV?$string_input_adapter@D@__crt_stdio_input@@@__crt_stdio_input@@QAE@ABV?$string_input_adapter@D@1@_KQBDQAU__crt_locale_pointers@@QAD@Z 100cf1d0 f i libucrtd:input.obj
 0001:000ce270       ??0?$input_processor@_WV?$stream_input_adapter@_W@__crt_stdio_input@@@__crt_stdio_input@@QAE@ABV?$stream_input_adapter@_W@1@_KQB_WQAU__crt_locale_pointers@@QAD@Z 100cf270 f i libucrtd:input.obj
 0001:000ce300       ??0?$input_processor@_WV?$string_input_adapter@_W@__crt_stdio_input@@@__crt_stdio_input@@QAE@ABV?$string_input_adapter@_W@1@_KQB_WQAU__crt_locale_pointers@@QAD@Z 100cf300 f i libucrtd:input.obj
 0001:000ce3a0       ??0?$scanset_buffer@E@__crt_stdio_input@@QAE@XZ 100cf3a0 f i libucrtd:input.obj
 0001:000ce3c0       ??0?$scanset_buffer@_W@__crt_stdio_input@@QAE@XZ 100cf3c0 f i libucrtd:input.obj
 0001:000ce3e0       ??0?$scanset_storage@$00@__crt_stdio_input@@QAE@XZ 100cf3e0 f i libucrtd:input.obj
 0001:000ce420       ??0?$scanset_storage@$01@__crt_stdio_input@@QAE@XZ 100cf420 f i libucrtd:input.obj
 0001:000ce450       ??0?$stream_input_adapter@D@__crt_stdio_input@@QAE@QAU_iobuf@@@Z 100cf450 f i libucrtd:input.obj
 0001:000ce490       ??0?$stream_input_adapter@_W@__crt_stdio_input@@QAE@QAU_iobuf@@@Z 100cf490 f i libucrtd:input.obj
 0001:000ce4d0       ??0?$string_input_adapter@D@__crt_stdio_input@@QAE@QBDI@Z 100cf4d0 f i libucrtd:input.obj
 0001:000ce510       ??0?$string_input_adapter@_W@__crt_stdio_input@@QAE@QB_WI@Z 100cf510 f i libucrtd:input.obj
 0001:000ce550       ??0_LocaleUpdate@@QAE@QAU__crt_locale_pointers@@@Z 100cf550 f i libucrtd:input.obj
 0001:000ce660       ??0big_integer@__crt_strtox@@QAE@ABU01@@Z 100cf660 f i libucrtd:input.obj
 0001:000ce6b0       ??0big_integer@__crt_strtox@@QAE@XZ 100cf6b0 f i libucrtd:input.obj
 0001:000ce6f0       ??0floating_point_value@__crt_strtox@@QAE@QAM@Z 100cf6f0 f i libucrtd:input.obj
 0001:000ce750       ??0floating_point_value@__crt_strtox@@QAE@QAN@Z 100cf750 f i libucrtd:input.obj
 0001:000ce7b0       ??1?$__crt_unique_heap_ptr@EU__crt_internal_free_policy@@@@QAE@XZ 100cf7b0 f i libucrtd:input.obj
 0001:000ce7d0       ??1?$format_string_parser@_W@__crt_stdio_input@@QAE@XZ 100cf7d0 f i libucrtd:input.obj
 0001:000ce7f0       ??1?$input_adapter_character_source@V?$stream_input_adapter@D@__crt_stdio_input@@@__crt_strtox@@QAE@XZ 100cf7f0 f i libucrtd:input.obj
 0001:000ce840       ??1?$input_adapter_character_source@V?$stream_input_adapter@_W@__crt_stdio_input@@@__crt_strtox@@QAE@XZ 100cf840 f i libucrtd:input.obj
 0001:000ce890       ??1?$input_adapter_character_source@V?$string_input_adapter@D@__crt_stdio_input@@@__crt_strtox@@QAE@XZ 100cf890 f i libucrtd:input.obj
 0001:000ce8e0       ??1?$input_adapter_character_source@V?$string_input_adapter@_W@__crt_stdio_input@@@__crt_strtox@@QAE@XZ 100cf8e0 f i libucrtd:input.obj
 0001:000ce930       ??1?$input_processor@_WV?$stream_input_adapter@_W@__crt_stdio_input@@@__crt_stdio_input@@QAE@XZ 100cf930 f i libucrtd:input.obj
 0001:000ce950       ??1?$input_processor@_WV?$string_input_adapter@_W@__crt_stdio_input@@@__crt_stdio_input@@QAE@XZ 100cf950 f i libucrtd:input.obj
 0001:000ce970       ??1?$scanset_buffer@_W@__crt_stdio_input@@QAE@XZ 100cf970 f i libucrtd:input.obj
 0001:000ce990       ??1?$scanset_storage@$01@__crt_stdio_input@@QAE@XZ 100cf990 f i libucrtd:input.obj
 0001:000ce9b0       ??1_LocaleUpdate@@QAE@XZ   100cf9b0 f i libucrtd:input.obj
 0001:000ce9f0       ??4?$__crt_unique_heap_ptr@EU__crt_internal_free_policy@@@@QAEAAV0@$$QAV0@@Z 100cf9f0 f i libucrtd:input.obj
 0001:000cea30       ??4big_integer@__crt_strtox@@QAEAAU01@ABU01@@Z 100cfa30 f i libucrtd:input.obj
 0001:000cea80       ??B?$__crt_unique_heap_ptr@EU__crt_internal_free_policy@@@@QBE_NXZ 100cfa80 f i libucrtd:input.obj
 0001:000ceaa0       ??M__crt_strtox@@YA_NABUbig_integer@0@0@Z 100cfaa0 f i libucrtd:input.obj
 0001:000ceb50       ??R<lambda_0b87716a0b73cdfba1cd37fcaaa20711>@@QBE@XZ 100cfb50 f i libucrtd:input.obj
 0001:000cee20       ??R<lambda_448605b25275ab87d3c5d4aa7a38a0aa>@@QBE@XZ 100cfe20 f i libucrtd:input.obj
 0001:000cee90       ??R<lambda_46698efe93618fff5274d84d009d2be1>@@QBE@XZ 100cfe90 f i libucrtd:input.obj
 0001:000cef00       ??R<lambda_5f3f4d49f9676d963a9a63518de6904a>@@QBE@XZ 100cff00 f i libucrtd:input.obj
 0001:000cef70       ??R<lambda_644f8ab42ed3fd1d660977a2364b3a7d>@@QBE@XZ 100cff70 f i libucrtd:input.obj
 0001:000cf010       ??R<lambda_c7c3f778895f47e7f4eff38a8fef279a>@@QBE@XZ 100d0010 f i libucrtd:input.obj
 0001:000cf080       ??R<lambda_cbb29514201643ebc3996c8b1c7ae90c>@@QBE@XZ 100d0080 f i libucrtd:input.obj
 0001:000cf120       ??R<lambda_e41f1170c8800e4a6fed1afad60fab6f>@@QBE@XZ 100d0120 f i libucrtd:input.obj
 0001:000cf190       ??R<lambda_e5165159ec566db3a71156c9b71536ca>@@QBE@XZ 100d0190 f i libucrtd:input.obj
 0001:000cf200       ??R<lambda_f1fa4c266c18b246f3ed9c36247dab4f>@@QBE@XZ 100d0200 f i libucrtd:input.obj
 0001:000cf270       ??R<lambda_f765c90ab33e8386abf09c0f079d37e9>@@QBE@XZ 100d0270 f i libucrtd:input.obj
 0001:000cf2e0       ??R<lambda_fd76cae15b6f790020ebaa7b78a868c2>@@QBE@XZ 100d02e0 f i libucrtd:input.obj
 0001:000cf350       ?GetLocaleT@_LocaleUpdate@@QAEPAU__crt_locale_pointers@@XZ 100d0350 f i libucrtd:input.obj
 0001:000cf370       ?accumulate_decimal_digits_into_big_integer@__crt_strtox@@YAXQBE0AAUbig_integer@1@@Z 100d0370 f i libucrtd:input.obj
 0001:000cf450       ?add@__crt_strtox@@YA_NAAUbig_integer@1@I@Z 100d0450 f i libucrtd:input.obj
 0001:000cf590       ?add_carry@__crt_strtox@@YAIAAIII@Z 100d0590 f i libucrtd:input.obj
