 intExplorer

 Timestamp is 637a0602 (Sun Nov 20 13:48:34 2022)

 Preferred load address is 10000000

 Start         Length     Name                   Class
 0001:00000000 00000130H .text$di                CODE
 0001:00000130 000927a0H .text$mn                CODE
 0001:000928d0 00000c40H .text$x                 CODE
 0001:00093510 00000145H .text$yd                CODE
 0002:00000000 00000654H .idata$5                DATA
 0002:00000654 0000000cH .00cfg                  DATA
 0002:00000660 00000004H .CRT$XCA                DATA
 0002:00000664 00000010H .CRT$XCU                DATA
 0002:00000674 00000004H .CRT$XCZ                DATA
 0002:00000678 00000004H .CRT$XIA                DATA
 0002:0000067c 00000018H .CRT$XIC                DATA
 0002:00000694 00000004H .CRT$XIZ                DATA
 0002:00000698 00000004H .CRT$XLA                DATA
 0002:0000069c 00000004H .CRT$XLZ                DATA
 0002:000006a0 00000004H .CRT$XPA                DATA
 0002:000006a4 00000008H .CRT$XPX                DATA
 0002:000006ac 00000004H .CRT$XPXA               DATA
 0002:000006b0 00000004H .CRT$XPZ                DATA
 0002:000006b4 00000004H .CRT$XTA                DATA
 0002:000006b8 00000008H .CRT$XTZ                DATA
 0002:000006bc 00000000H .gfids$y                DATA
 0002:000006c0 00009bc0H .rdata                  DATA
 0002:0000a280 00000040H .rdata$CastGuardVftablesA DATA
 0002:0000a2c0 00000040H .rdata$CastGuardVftablesC DATA
 0002:0000a300 00000018H .rdata$T                DATA
 0002:0000a318 000006e4H .rdata$r                DATA
 0002:0000a9fc 00000104H .rdata$sxdata           DATA
 0002:0000ab00 000007dcH .rdata$voltmd           DATA
 0002:0000b2dc 00000438H .rdata$zzzdbg           DATA
 0002:0000b714 00000004H .rtc$IAA                DATA
 0002:0000b718 00000020H .rtc$IMZ                DATA
 0002:0000b738 00000004H .rtc$IZZ                DATA
 0002:0000b73c 00000004H .rtc$TAA                DATA
 0002:0000b740 00000020H .rtc$TMZ                DATA
 0002:0000b760 00000004H .rtc$TZZ                DATA
 0002:0000b764 00000004H .tls                    DATA
 0002:0000b768 00000004H .tls$                   DATA
 0002:0000b76c 00000004H .tls$ZZZ                DATA
 0002:0000b770 000016e0H .xdata$x                DATA
 0002:0000ce50 000001e4H .edata                  DATA
 0002:0000d034 0000008cH .idata$2                DATA
 0002:0000d0c0 00000014H .idata$3                DATA
 0002:0000d0d4 00000654H .idata$4                DATA
 0002:0000d728 00003606H .idata$6                DATA
 0003:00000000 00000b40H .data                   DATA
 0003:00000b40 0000019cH .data$r                 DATA
 0003:00000cdc 00000144H .data$rs                DATA
 0003:00000e20 00003dccH .bss                    DATA
 0004:00000000 00000060H .rsrc$01                DATA
 0004:00000060 00000180H .rsrc$02                DATA

  Address         Publics by Value              Rva+Base       Lib:Object

 0000:00000000       ___AbsoluteZero            00000000     <absolute>
 0000:00000000       ___arm64x_extra_rfe_table  00000000     <absolute>
 0000:00000000       ___arm64x_extra_rfe_table_size 00000000     <absolute>
 0000:00000000       ___arm64x_native_entrypoint 00000000     <absolute>
 0000:00000000       ___arm64x_redirection_metadata 00000000     <absolute>
 0000:00000000       ___arm64x_redirection_metadata_count 00000000     <absolute>
 0000:00000000       ___dynamic_value_reloc_table 00000000     <absolute>
 0000:00000000       ___enclave_config          00000000     <absolute>
 0000:00000000       ___guard_check_icall_a64n_fptr 00000000     <absolute>
 0000:00000000       ___guard_eh_cont_count     00000000     <absolute>
 0000:00000000       ___guard_eh_cont_table     00000000     <absolute>
 0000:00000000       ___guard_fids_count        00000000     <absolute>
 0000:00000000       ___guard_fids_table        00000000     <absolute>
 0000:00000000       ___guard_iat_count         00000000     <absolute>
 0000:00000000       ___guard_iat_table         00000000     <absolute>
 0000:00000000       ___guard_longjmp_count     00000000     <absolute>
 0000:00000000       ___guard_longjmp_table     00000000     <absolute>
 0000:00000000       ___hybrid_auxiliary_iat    00000000     <absolute>
 0000:00000000       ___hybrid_auxiliary_iat_copy 00000000     <absolute>
 0000:00000000       ___hybrid_code_map         00000000     <absolute>
 0000:00000000       ___hybrid_code_map_count   00000000     <absolute>
 0000:00000000       ___x64_code_ranges_to_entry_points 00000000     <absolute>
 0000:00000000       ___x64_code_ranges_to_entry_points_count 00000000     <absolute>
 0000:00000000       __except_list              00000000     <absolute>
 0000:0000002c       __tls_array                0000002c     <absolute>
 0000:00000041       ___safe_se_handler_count   00000041     <absolute>
 0000:00000100       ___guard_flags             00000100     <absolute>
 0000:00000000       ___ImageBase               10000000     <linker-defined>
 0001:00000130       ??1Entry@?$Hash@VStr_for_hash@@$0BAB@$0BAA@@@QAE@XZ 10001130 f i Bmptool.obj
 0001:00000170       ??1Entry@?$Hash@VStr_for_hash@@$0EAD@$0EAA@@@QAE@XZ 10001170 f i Bmptool.obj
 0001:000001b0       ??1Str_for_hash@@QAE@XZ    100011b0 f i Bmptool.obj
 0001:000001d0       ??2@YAPAXI@Z               100011d0 f i Bmptool.obj
 0001:00000220       ??3@YAXPAX@Z               10001220 f i Bmptool.obj
 0001:000002a0       ??_EEntry@?$Hash@VStr_for_hash@@$0BAB@$0BAA@@@QAEPAXI@Z 100012a0 f i Bmptool.obj
 0001:00000370       ??_EEntry@?$Hash@VStr_for_hash@@$0EAD@$0EAA@@@QAEPAXI@Z 10001370 f i Bmptool.obj
 0001:00000440       ??_H@YGXPAXIIP6EPAX0@Z@Z   10001440 f i Bmptool.obj
 0001:000004d0       ??_U@YAPAXI@Z              100014d0 f i Bmptool.obj
 0001:00000520       ??_V@YAXPAX@Z              10001520 f i Bmptool.obj
 0001:000005a0       ?GetResVal@@YAHPAEHHHHHH@Z 100015a0 f   Bmptool.obj
 0001:00000760       ?GetSumm@@YAKPAD@Z         10001760 f   Bmptool.obj
 0001:00000820       ?LoadBitmapLikeGrayscale@@YA_NPADPAH1PAPAE@Z 10001820 f   Bmptool.obj
 0001:000009c0       ?ReadBMP24@@YA_NPADPAUBMFH@@PAPAE@Z 100019c0 f   Bmptool.obj
 0001:00000b00       ?ReadBMP8@@YA_NPADPAUBMFH@@PAPAE@Z 10001b00 f   Bmptool.obj
 0001:00000c40       ?ReadBMP8PAL@@YA_NPADPAUBMFH@@PAPAEPAE@Z 10001c40 f   Bmptool.obj
 0001:00000eb0       ?ReadBMP8TOBPX@@YA_NPADPAPAE@Z 10001eb0 f   Bmptool.obj
 0001:00001050       ?SaveToBMP24@@YAXPADHHPAE@Z 10002050 f   Bmptool.obj
 0001:000011c0       ?SaveToBMP8@@YAXPADHHPAEPAUPAL3@@@Z 100021c0 f   Bmptool.obj
 0001:000013e0       ??0?$ClassArray@V_str@@@@QAE@XZ 100023e0 f i DataXchange.obj
 0001:00001480       ??0?$DynArray@PAV_str@@$0P@@@QAE@XZ 10002480 f i DataXchange.obj
 0001:000014c0       ??0SXP_DevScope@@QAE@XZ    100024c0 f   DataXchange.obj
 0001:00001520       ??1?$ClassArray@V_str@@@@UAE@XZ 10002520 f i DataXchange.obj
 0001:000015c0       ??1?$DynArray@PAV_str@@$0P@@@QAE@XZ 100025c0 f i DataXchange.obj
 0001:00001630       ??1SXP_DevScope@@QAE@XZ    10002630 f   DataXchange.obj
 0001:000016a0       ??A?$DynArray@PAVSimpleDialog@@$0P@@@QAEAAPAVSimpleDialog@@H@Z 100026a0 f i DataXchange.obj
 0001:00001730       ??A?$DynArray@PAV_str@@$0P@@@QAEAAPAV_str@@H@Z 10002730 f i DataXchange.obj
 0001:000017c0       ??_E?$ClassArray@V_str@@@@UAEPAXI@Z 100027c0 f i DataXchange.obj
 0001:000017c0       ??_G?$ClassArray@V_str@@@@UAEPAXI@Z 100027c0 f i DataXchange.obj
 0001:00001820       ??_E_str@@UAEPAXI@Z        10002820 f i DataXchange.obj
 0001:00001820       ??_G_str@@UAEPAXI@Z        10002820 f i DataXchange.obj
 0001:00001890       ?Add@?$ClassArray@V_str@@@@QAEHPAV_str@@@Z 10002890 f i DataXchange.obj
 0001:00001910       ?Add@?$DynArray@PAV_str@@$0P@@@QAEHABQAV_str@@@Z 10002910 f i DataXchange.obj
 0001:00001990       ?Check@?$DynArray@PAV_str@@$0P@@@QAEXH@Z 10002990 f i DataXchange.obj
 0001:00001a70       ?CheckDirectCasting@?$ClassArray@V_str@@@@UAE_NXZ 10002a70 f i DataXchange.obj
 0001:00001a90       ?Clear@?$ClassArray@V_str@@@@QAEXXZ 10002a90 f i DataXchange.obj
 0001:00001ae0       ?Clear@?$DynArray@PAV_str@@$0P@@@QAEXXZ 10002ae0 f i DataXchange.obj
 0001:00001b60       ?CloseAll@SXP_DevScope@@QAEXXZ 10002b60 f   DataXchange.obj
 0001:00001be0       ?CloseRequest@SXP_DevScope@@QAEXK@Z 10002be0 f   DataXchange.obj
 0001:00001d00       ?Del@?$DynArray@PAV_str@@$0P@@@QAEXHH@Z 10002d00 f i DataXchange.obj
 0001:00001dd0       ?DelElement@?$ClassArray@V_str@@@@UAE_NH@Z 10002dd0 f i DataXchange.obj
 0001:00001ea0       ?EraseTempFiles@@YAXXZ     10002ea0 f   DataXchange.obj
 0001:00001fc0       ?ExpandWith@?$ClassArray@V_str@@@@UAEHPBDPAX@Z 10002fc0 f i DataXchange.obj
 0001:00002090       ?FilterRQ2Send@@YAXPAVsicExplorer@@PAVParsedRQ@@_N@Z 10003090 f   DataXchange.obj
 0001:00003540       ?ForceOpenFile@@YAPAXPAD@Z 10004540 f   DataXchange.obj
 0001:000036e0       ?FullCopy@?$ClassArray@V_str@@@@UAE_NPAX0PAVBaseClass@@00PAVCopyContex@@@Z 100046e0 f i DataXchange.obj
 0001:00003810       ?GetAmount@?$DynArray@PAVSimpleDialog@@$0P@@@QBEHXZ 10004810 f i DataXchange.obj
 0001:00003830       ?GetAmount@?$DynArray@PAV_str@@$0P@@@QBEHXZ 10004830 f i DataXchange.obj
 0001:00003850       ?GetAmountOfElements@?$ClassArray@V_str@@@@UAEHXZ 10004850 f i DataXchange.obj
 0001:00003890       ?GetClassNameA@?$ClassArray@V_str@@@@UAEPBDXZ 10004890 f i DataXchange.obj
 0001:000039f0       ?GetClassStorage@?$ClassArray@V_str@@@@UAEPAVOneClassStorage@@XZ 100049f0 f i DataXchange.obj
 0001:00003a80       ?GetElementClass@?$ClassArray@V_str@@@@UAEPAVBaseClass@@H@Z 10004a80 f i DataXchange.obj
 0001:00003ad0       ?GetElementID@?$ClassArray@V_str@@@@UAEPBDH@Z 10004ad0 f i DataXchange.obj
 0001:00003b70       ?GetElementPtr@?$ClassArray@V_str@@@@UAEPAXHPAX@Z 10004b70 f i DataXchange.obj
 0001:00003bc0       ?GetExpansionBaseClass@?$ClassArray@V_str@@@@UAEPBDXZ 10004bc0 f i DataXchange.obj
 0001:00003ca0       ?GetExpansionRules@?$ClassArray@V_str@@@@UAEHXZ 10004ca0 f i DataXchange.obj
 0001:00003cc0       ?GetRequestResult@SXP_DevScope@@QAEKKPAVParsedRQ@@@Z 10004cc0 f   DataXchange.obj
 0001:00003e00       ?GetValues@?$DynArray@PAV_str@@$0P@@@QBEPAPAV_str@@XZ 10004e00 f i DataXchange.obj
 0001:00003e20       ?InitDevs@@YAXXZ           10004e20 f   DataXchange.obj
 0001:00003e80       ?LoadBin@?$ClassArray@V_str@@@@UAEXPAX0PAVBinStream@@PAVEnumerator@@@Z 10004e80 f i DataXchange.obj
 0001:00004010       ?LoadDefaults@@YAHPAPAE@Z  10005010 f   DataXchange.obj
 0001:000040c0       ?Move@?$DynArray@PAV_str@@$0P@@@QAE_NHH@Z 100050c0 f i DataXchange.obj
 0001:000041d0       ?MoveElement@?$ClassArray@V_str@@@@UAE_NHD@Z 100051d0 f i DataXchange.obj
 0001:00004230       ?Process@SXP_DevScope@@QAEXXZ 10005230 f   DataXchange.obj
 0001:000042b0       ?ProcessDataXchange@@YAXXZ 100052b0 f   DataXchange.obj
 0001:00005030       ?ProcessDownloadInternetFiles@@YAXXZ 10006030 f   DataXchange.obj
 0001:000052a0       ?ProcessServers@@YAXXZ     100062a0 f   DataXchange.obj
 0001:000052e0       ?ReadDir@@YAXPAD0AAPAX1@Z  100062e0 f   DataXchange.obj
 0001:00005ba0       ?RegisterDevice@SXP_DevScope@@QAEXPAD0@Z 10006ba0 f   DataXchange.obj
 0001:00005dd0       ?ReportIt@@YAXPADZZ        10006dd0 f   DataXchange.obj
 0001:00005f10       ?SaveBin@?$ClassArray@V_str@@@@UAEXPAX0PAVBinStream@@PAVEnumerator@@2@Z 10006f10 f i DataXchange.obj
 0001:000060a0       ?SaveCurrentResult@@YAPADPAVOneSicWindow@@PAD@Z 100070a0 f   DataXchange.obj
 0001:00006230       ?SaveCurrentResultTo@@YAPADPAVOneSicWindow@@PAD@Z 10007230 f   DataXchange.obj
 0001:000062c0       ?SendGlobalRequest@@YAKPAVsicExplorer@@PAD_N@Z 100072c0 f   DataXchange.obj
 0001:00006310       ?SendRecBuffer@@YAXPAEH_N@Z 10007310 f   DataXchange.obj
 0001:00006580       ?SendRequest@SXP_DevScope@@QAEKPAVsicExplorer@@PAD_N2@Z 10007580 f   DataXchange.obj
 0001:000066f0       ?SendRequest@SXP_DevScope@@QAEKPAVsicExplorer@@PAVParsedRQ@@_N2@Z 100076f0 f   DataXchange.obj
 0001:00006940       ?Shutdown@SXP_DevScope@@QAEXXZ 10007940 f   DataXchange.obj
 0001:00006a00       ?StartDownloadInternetFile@@YAXPAD00@Z 10007a00 f   DataXchange.obj
 0001:00006da0       ?exec_LW_abort@@YAXHPAPADPAH@Z 10007da0 f   DataXchange.obj
 0001:00006de0       ?exec_LW_bonus@@YAXHPAPADPAH@Z 10007de0 f   DataXchange.obj
 0001:00006f10       ?exec_LW_cfile@@YAXHPAPADPAH@Z 10007f10 f   DataXchange.obj
 0001:000070e0       ?exec_LW_compose@@YAXHPAPADPAH@Z 100080e0 f   DataXchange.obj
 0001:000072d0       ?exec_LW_compress@@YAXHPAPADPAH@Z 100082d0 f   DataXchange.obj
 0001:000077f0       ?exec_LW_decompress@@YAXHPAPADPAH@Z 100087f0 f   DataXchange.obj
 0001:00007f80       ?exec_LW_dff@@YAXHPAPADPAH@Z 10008f80 f   DataXchange.obj
 0001:00008250       ?exec_LW_dfp@@YAXHPAPADPAH@Z 10009250 f   DataXchange.obj
 0001:00008510       ?exec_LW_dtbl@@YAXHPAPADPAH@Z 10009510 f   DataXchange.obj
 0001:00008760       ?exec_LW_enb@@YAXHPAPADPAH@Z 10009760 f   DataXchange.obj
 0001:000089f0       ?exec_LW_enbbox@@YAXHPAPADPAH@Z 100099f0 f   DataXchange.obj
 0001:00008c30       ?exec_LW_file@@YAXHPAPAD@Z 10009c30 f   DataXchange.obj
 0001:000093f0       ?exec_LW_gvar@@YAXHPAPADPAH@Z 1000a3f0 f   DataXchange.obj
 0001:00009520       ?exec_LW_key@@YAXHPAPADPAH@Z 1000a520 f   DataXchange.obj
 0001:00009630       ?exec_LW_lock@@YAXHPAPADPAH@Z 1000a630 f   DataXchange.obj
 0001:00009880       ?exec_LW_lockall@@YAXHPAPADPAH@Z 1000a880 f   DataXchange.obj
 0001:00009a00       ?exec_LW_lockbox@@YAXHPAPADPAH@Z 1000aa00 f   DataXchange.obj
 0001:00009c40       ?exec_LW_mapdata@@YAXHPAPADPAH@Z 1000ac40 f   DataXchange.obj
 0001:00009d20       ?exec_LW_mem@@YAXHPAPADPAH@Z 1000ad20 f   DataXchange.obj
 0001:00009e00       ?exec_LW_message@@YAXHPAPADPAH@Z 1000ae00 f   DataXchange.obj
 0001:00009f40       ?exec_LW_move@@YAXHPAPADPAH@Z 1000af40 f   DataXchange.obj
 0001:0000a090       ?exec_LW_mpclear@@YAXHPAPADPAH@Z 1000b090 f   DataXchange.obj
 0001:0000a0d0       ?exec_LW_mpt@@YAXHPAPADPAH@Z 1000b0d0 f   DataXchange.obj
 0001:0000a360       ?exec_LW_mupdate@@YAXHPAPADPAH@Z 1000b360 f   DataXchange.obj
 0001:0000a4c0       ?exec_LW_pfile@@YAXHPAPAD@Z 1000b4c0 f   DataXchange.obj
 0001:0000a750       ?exec_LW_proc@@YAXHPAPADPAH@Z 1000b750 f   DataXchange.obj
 0001:0000a7c0       ?exec_LW_show@@YAXHPAPAD@Z 1000b7c0 f   DataXchange.obj
 0001:0000aec0       ?exec_LW_showrec@@YAXHPAPADPAH@Z 1000bec0 f   DataXchange.obj
 0001:0000afd0       ?exec_LW_tbl@@YAXHPAPADPAH@Z 1000bfd0 f   DataXchange.obj
 0001:0000b220       ?exec_LW_time@@YAXHPAPADPAH@Z 1000c220 f   DataXchange.obj
 0001:0000b390       ?exec_LW_upload@@YAXHPAPADPAH@Z 1000c390 f   DataXchange.obj
 0001:0000b910       ?exec_LW_uprec@@YAXHPAPADPAH@Z 1000c910 f   DataXchange.obj
 0001:0000ba60       ?exec_LW_vis@@YAXHPAPADPAH@Z 1000ca60 f   DataXchange.obj
 0001:0000bd20       ?exec_LW_visbox@@YAXHPAPADPAH@Z 1000cd20 f   DataXchange.obj
 0001:0000bf80       ?exec_LW_xcfile@@YAXHPAPADPAH@Z 1000cf80 f   DataXchange.obj
 0001:0000c1b0       ?new_element@?$ClassArray@V_str@@@@UAEPAVBaseClass@@XZ 1000d1b0 f i DataXchange.obj
 0001:0000c290       ?reset_class@?$ClassArray@V_str@@@@UAEXPAX@Z 1000d290 f i DataXchange.obj
 0001:0000c420       ?strchr@@YAPADQADH@Z       1000d420 f i DataXchange.obj
 0001:0000c460       ?strstr@@YAPADQADQBD@Z     1000d460 f i DataXchange.obj
 0001:0000c4a0       ___local_stdio_printf_options 1000d4a0 f i DataXchange.obj
 0001:0000c4c0       ___local_stdio_scanf_options 1000d4c0 f i DataXchange.obj
 0001:0000c520       __vfprintf_l               1000d520 f i DataXchange.obj
 0001:0000c570       __vfscanf_l                1000d570 f i DataXchange.obj
 0001:0000c5c0       __vsnprintf_l              1000d5c0 f i DataXchange.obj
 0001:0000c640       __vsprintf_l               1000d640 f i DataXchange.obj
 0001:0000c690       __vsscanf_l                1000d690 f i DataXchange.obj
 0001:0000c6f0       _fprintf                   1000d6f0 f i DataXchange.obj
 0001:0000c750       _fscanf                    1000d750 f i DataXchange.obj
 0001:0000c7b0       _sprintf                   1000d7b0 f i DataXchange.obj
 0001:0000c810       _sscanf                    1000d810 f i DataXchange.obj
 0001:0000c870       _vsprintf                  1000d870 f i DataXchange.obj
 0001:0000c8c0       ??0OneBox@@QAE@XZ          1000d8c0 f   Explore.obj
 0001:0000c910       ??0OneInterfaceElement@@QAE@XZ 1000d910 f   Explore.obj
 0001:0000c960       ??0OneSicWindow@@QAE@XZ    1000d960 f   Explore.obj
 0001:0000c9b0       ??1OneBox@@QAE@XZ          1000d9b0 f   Explore.obj
 0001:0000ca00       ??1OneInterfaceElement@@QAE@XZ 1000da00 f i Explore.obj
 0001:0000ca70       ??1OneSicWindow@@QAE@XZ    1000da70 f   Explore.obj
 0001:0000cb00       ??1sicExplorer@@QAE@XZ     1000db00 f   Explore.obj
 0001:0000cb70       ??_GOneBox@@QAEPAXI@Z      1000db70 f i Explore.obj
 0001:0000cbd0       ?CReadX@@YAHPAPADHHPAVOneBox@@@Z 1000dbd0 f   Explore.obj
 0001:0000cff0       ?CReadY@@YAHPAPADHHPAVOneBox@@@Z 1000dff0 f   Explore.obj
 0001:0000d410       ?ChangeOutput@sicExplorer@@QAEXHHHH@Z 1000e410 f   Explore.obj
 0001:0000d830       ?Clear@OneInterfaceElement@@QAEXXZ 1000e830 f   Explore.obj
 0001:0000d960       ?ClearActive@OneInterfaceElement@@QAEXXZ 1000e960 f   Explore.obj
 0001:0000da20       ?ClearParams@OneInterfaceElement@@QAEXXZ 1000ea20 f   Explore.obj
 0001:0000dae0       ?CreateGVar@sicExplorer@@QAEPADPADH@Z 1000eae0 f   Explore.obj
 0001:0000dc10       ?CreateSXProcess@OneSicWindow@@QAEPAXP6AXPAVsicExplorer@@PAXH@Z2H@Z 1000ec10 f   Explore.obj
 0001:0000dd30       ?CreateSXProcess@sicExplorer@@QAEPAXP6AXPAV1@PAXH@Z2H@Z 1000ed30 f   Explore.obj
 0001:0000dda0       ?CreateTable@sicExplorer@@QAEPAUOneSXPTable@@PAD@Z 1000eda0 f   Explore.obj
 0001:0000dea0       ?CreateVar@OneSicWindow@@QAEPADPADH@Z 1000eea0 f   Explore.obj
 0001:0000e040       ?CreateVar@sicExplorer@@QAEPADPADH@Z 1000f040 f   Explore.obj
 0001:0000e0b0       ?DownloadRefs@OneSicWindow@@QAEXXZ 1000f0b0 f   Explore.obj
 0001:0000e640       ?Erase@OneSicWindow@@QAEXXZ 1000f640 f   Explore.obj
 0001:0000ea50       ?EraseAllDialogs@sicExplorer@@QAEXXZ 1000fa50 f   Explore.obj
 0001:0000ecc0       ?EraseSXP@@YAXXZ           1000fcc0 f   Explore.obj
 0001:0000ed30       ?GETHX@@YAHD@Z             1000fd30 f   Explore.obj
 0001:0000ed80       ?GetAccessKey@@YAPADH@Z    1000fd80 f   Explore.obj
 0001:0000eda0       ?GetFontByName@sicExplorer@@QAEPAVRLCFont@@PAD@Z 1000fda0 f   Explore.obj
 0001:0000f150       ?GetGPPictureIndex@sicExplorer@@QAEHPAD@Z 10010150 f   Explore.obj
 0001:0000fad0       ?GetGVar@sicExplorer@@QAEPADPAD@Z 10010ad0 f   Explore.obj
 0001:0000fb60       ?GetHVAL@@YAKPAD@Z         10010b60 f   Explore.obj
 0001:0000fe60       ?GetTable@sicExplorer@@QAEPAUOneSXPTable@@PAD@Z 10010e60 f   Explore.obj
 0001:0000fef0       ?GetTableHash@@YAKPAUOneSXPTable@@H@Z 10010ef0 f   Explore.obj
 0001:00010030       ?GetVar@OneSicWindow@@QAEPADPAD@Z 10011030 f   Explore.obj
 0001:000100c0       ?GetVar@sicExplorer@@QAEPADPAD@Z 100110c0 f   Explore.obj
 0001:00010130       ?InstallSXP_Device@@YAXPAD0@Z 10011130 f   Explore.obj
 0001:00010150       ?LoadCookies@OneSicWindow@@QAEXXZ 10011150 f   Explore.obj
 0001:000102e0       ?LoadDefaultSettings@OneSicWindow@@QAEXXZ 100112e0 f   Explore.obj
 0001:00010850       ?NewWindow@sicExplorer@@QAEXPAD0@Z 10011850 f   Explore.obj
 0001:00010ab0       ?ParseTheWholeText@OneSicWindow@@QAEHXZ 10011ab0 f   Explore.obj
 0001:00017040       ?Process@OneSicWindow@@QAEXXZ 10018040 f   Explore.obj
 0001:00017760       ?ReParse@OneSicWindow@@QAEXXZ 10018760 f   Explore.obj
 0001:00017cd0       ?ReadCoordinates@@YAXPAPADAAH111PAVOneBox@@@Z 10018cd0 f   Explore.obj
 0001:00018570       ?ReadNumber@@YAHPADPAHH@Z  10019570 f   Explore.obj
 0001:00018650       ?Refresh@sicExplorer@@QAEXXZ 10019650 f   Explore.obj
 0001:00018840       ?RegisterOutput@sicExplorer@@QAEXHHHH@Z 10019840 f   Explore.obj
 0001:00018890       ?Replace@@YAXPAPADPAD1AAH@Z 10019890 f   Explore.obj
 0001:00018a00       ?SaveCookies@OneSicWindow@@QAEXXZ 10019a00 f   Explore.obj
 0001:00018b90       ?SendTableRefresh@sicExplorer@@QAEXPAD0@Z 10019b90 f   Explore.obj
 0001:00018e70       ?SetAccessKey@@YAXHPAD@Z   10019e70 f   Explore.obj
 0001:00018ed0       ?StepBack@sicExplorer@@QAEXXZ 10019ed0 f   Explore.obj
 0001:00018f10       ?StepForward@sicExplorer@@QAEXXZ 10019f10 f   Explore.obj
 0001:00018f60       _CloseSXP                  10019f60 f   Explore.obj
 0001:00018fc0       _InitSXP                   10019fc0 f   Explore.obj
 0001:000190f0       _OpenRef                   1001a0f0 f   Explore.obj
 0001:000191d0       _ProcessSXP                1001a1d0 f   Explore.obj
 0001:0001a100       _ResizeSXP                 1001b100 f   Explore.obj
 0001:0001a160       _RunSXP                    1001b160 f   Explore.obj
 0001:0001a280       _SXP_GetVar                1001b280 f   Explore.obj
 0001:0001a370       _SXP_Refresh               1001b370 f   Explore.obj
 0001:0001a3b0       _SXP_SetVar                1001b3b0 f   Explore.obj
 0001:0001a520       _SXP_StepBack              1001b520 f   Explore.obj
 0001:0001a560       _SXP_StepForw              1001b560 f   Explore.obj
 0001:0001a5a0       ??$_get_cmemb@V_DWORD@@@@YAPAV_DWORD@@PAV0@PBD@Z 1001b5a0 f i FnDefine.obj
 0001:0001a780       ??$_get_cmemb@V_bool@@@@YAPAV_bool@@PAV0@PBD@Z 1001b780 f i FnDefine.obj
 0001:0001a960       ??$_get_cmemb@V_gpfile@@@@YAPAV_gpfile@@PAV0@PBD@Z 1001b960 f i FnDefine.obj
 0001:0001ab40       ??$_get_cmemb@V_int@@@@YAPAV_int@@PAV0@PBD@Z 1001bb40 f i FnDefine.obj
 0001:0001ad20       ??$_get_cmemb@V_str@@@@YAPAV_str@@PAV0@PBD@Z 1001bd20 f i FnDefine.obj
 0001:0001af00       ??$reg_auto@V_str@@@@YAXPAVBaseClass@@AAV_str@@PBDPAXK@Z 1001bf00 f i FnDefine.obj
 0001:0001b060       ??$reg_class@V_DWORD@@@@YAXPAV_DWORD@@PAD@Z 1001c060 f i FnDefine.obj
 0001:0001b0c0       ??$reg_class@V_bool@@@@YAXPAV_bool@@PAD@Z 1001c0c0 f i FnDefine.obj
 0001:0001b120       ??$reg_class@V_gpfile@@@@YAXPAV_gpfile@@PAD@Z 1001c120 f i FnDefine.obj
 0001:0001b180       ??$reg_class@V_int@@@@YAXPAV_int@@PAD@Z 1001c180 f i FnDefine.obj
 0001:0001b1e0       ??$reg_class@V_str@@@@YAXPAV_str@@PAD@Z 1001c1e0 f i FnDefine.obj
 0001:0001b240       ??$reg_class_auto@V_str@@@@YAXPAV_str@@PAD@Z 1001c240 f i FnDefine.obj
 0001:0001b2a0       ??0OneFontParam@@QAE@XZ    1001c2a0 f i FnDefine.obj
 0001:0001b390       ??1OneFontParam@@UAE@XZ    1001c390 f i FnDefine.obj
 0001:0001b3f0       ??A?$DynArray@PAVOneClassMemberStorage@@$0P@@@QAEAAPAVOneClassMemberStorage@@H@Z 1001c3f0 f i FnDefine.obj
 0001:0001b480       ??A?$DynArray@PAVOneFontParam@@$0P@@@QAEAAPAVOneFontParam@@H@Z 1001c480 f i FnDefine.obj
 0001:0001b510       ??_EOneFontParam@@UAEPAXI@Z 1001c510 f i FnDefine.obj
 0001:0001b510       ??_GOneFontParam@@UAEPAXI@Z 1001c510 f i FnDefine.obj
 0001:0001b570       ??_EVitButton@@UAEPAXI@Z   1001c570 f i FnDefine.obj
 0001:0001b570       ??_GVitButton@@UAEPAXI@Z   1001c570 f i FnDefine.obj
 0001:0001b5e0       ??_E_DWORD@@UAEPAXI@Z      1001c5e0 f i FnDefine.obj
 0001:0001b5e0       ??_G_DWORD@@UAEPAXI@Z      1001c5e0 f i FnDefine.obj
 0001:0001b650       ??_E_bool@@UAEPAXI@Z       1001c650 f i FnDefine.obj
 0001:0001b650       ??_G_bool@@UAEPAXI@Z       1001c650 f i FnDefine.obj
 0001:0001b6c0       ??_E_gpfile@@UAEPAXI@Z     1001c6c0 f i FnDefine.obj
 0001:0001b6c0       ??_G_gpfile@@UAEPAXI@Z     1001c6c0 f i FnDefine.obj
 0001:0001b730       ??_E_int@@UAEPAXI@Z        1001c730 f i FnDefine.obj
 0001:0001b730       ??_G_int@@UAEPAXI@Z        1001c730 f i FnDefine.obj
 0001:0001b7a0       ?ADI_APan@@YA_NPAVsicExplorer@@PAVDialogsSystem@@PAH222HPAPADH3PAD@Z 1001c7a0 f   FnDefine.obj
 0001:0001bc90       ?ADI_AddDBTBL@@YA_NPAVsicExplorer@@PAVDialogsSystem@@PAH222HPAPADH3PAD@Z 1001cc90 f   FnDefine.obj
 0001:0001cfd0       ?ADI_Btn@@YA_NPAVsicExplorer@@PAVDialogsSystem@@PAH222HPAPADH3PAD@Z 1001dfd0 f   FnDefine.obj
 0001:0001d400       ?ADI_Chk@@YA_NPAVsicExplorer@@PAVDialogsSystem@@PAH222HPAPADH3PAD@Z 1001e400 f   FnDefine.obj
 0001:0001d750       ?ADI_Combo2@@YA_NPAVsicExplorer@@PAVDialogsSystem@@PAH222HPAPADH3PAD@Z 1001e750 f   FnDefine.obj
 0001:0001dba0       ?ADI_Combo@@YA_NPAVsicExplorer@@PAVDialogsSystem@@PAH222HPAPADH3PAD@Z 1001eba0 f   FnDefine.obj
 0001:0001df80       ?ADI_Edit@@YA_NPAVsicExplorer@@PAVDialogsSystem@@PAH222HPAPADH3PAD@Z 1001ef80 f   FnDefine.obj
 0001:0001e1d0       ?ADI_FBrowse@@YA_NPAVsicExplorer@@PAVDialogsSystem@@PAH222HPAPADH3PAD@Z 1001f1d0 f   FnDefine.obj
 0001:0001e6e0       ?ADI_Hint@@YA_NPAVsicExplorer@@PAVDialogsSystem@@PAH222HPAPADH3PAD@Z 1001f6e0 f   FnDefine.obj
 0001:0001e940       ?ADI_HintParam@@YA_NPAVsicExplorer@@PAVDialogsSystem@@PAH222HPAPADH3PAD@Z 1001f940 f   FnDefine.obj
 0001:0001ea50       ?ADI_Label@@YA_NPAVsicExplorer@@PAVDialogsSystem@@PAH222HPAPADH3PAD@Z 1001fa50 f   FnDefine.obj
 0001:0001ed40       ?ADI_Map@@YA_NPAVsicExplorer@@PAVDialogsSystem@@PAH222HPAPADH3PAD@Z 1001fd40 f   FnDefine.obj
 0001:0001eee0       ?ADI_NewFont@@YA_NPAVsicExplorer@@PAVDialogsSystem@@PAH222HPAPADH3PAD@Z 1001fee0 f   FnDefine.obj
 0001:0001f250       ?ADI_Pan@@YA_NPAVsicExplorer@@PAVDialogsSystem@@PAH222HPAPADH3PAD@Z 10020250 f   FnDefine.obj
 0001:0001f3f0       ?ADI_Ping@@YA_NPAVsicExplorer@@PAVDialogsSystem@@PAH222HPAPADH3PAD@Z 100203f0 f   FnDefine.obj
 0001:0001f4c0       ?ADI_Pix@@YA_NPAVsicExplorer@@PAVDialogsSystem@@PAH222HPAPADH3PAD@Z 100204c0 f   FnDefine.obj
 0001:0001f6b0       ?ADI_Poly@@YA_NPAVsicExplorer@@PAVDialogsSystem@@PAH222HPAPADH3PAD@Z 100206b0 f   FnDefine.obj
 0001:0001f8b0       ?ADI_Rad@@YA_NPAVsicExplorer@@PAVDialogsSystem@@PAH222HPAPADH3PAD@Z 100208b0 f   FnDefine.obj
 0001:0001fc20       ?ADI_SBtn@@YA_NPAVsicExplorer@@PAVDialogsSystem@@PAH222HPAPADH3PAD@Z 10020c20 f   FnDefine.obj
 0001:0001fe90       ?ADI_Sort@@YA_NPAVsicExplorer@@PAVDialogsSystem@@PAH222HPAPADH3PAD@Z 10020e90 f   FnDefine.obj
 0001:000201b0       ?ADI_Stbl@@YA_NPAVsicExplorer@@PAVDialogsSystem@@PAH222HPAPADH3PAD@Z 100211b0 f   FnDefine.obj
 0001:00021520       ?ADI_Table@@YA_NPAVsicExplorer@@PAVDialogsSystem@@PAH222HPAPADH3PAD@Z 10022520 f   FnDefine.obj
 0001:00022cf0       ?ADI_Time@@YA_NPAVsicExplorer@@PAVDialogsSystem@@PAH222HPAPADH3PAD@Z 10023cf0 f   FnDefine.obj
 0001:00022e50       ?ADI_Txt@@YA_NPAVsicExplorer@@PAVDialogsSystem@@PAH222HPAPADH3PAD@Z 10023e50 f   FnDefine.obj
 0001:000240a0       ?ADI_Ubtn@@YA_NPAVsicExplorer@@PAVDialogsSystem@@PAH222HPAPADH3PAD@Z 100250a0 f   FnDefine.obj
 0001:000242f0       ?ADI_def_gp_btn@@YA_NPAVsicExplorer@@PAVDialogsSystem@@PAH222HPAPADH3PAD@Z 100252f0 f   FnDefine.obj
 0001:00024440       ?ADI_ftxt@@YA_NPAVsicExplorer@@PAVDialogsSystem@@PAH222HPAPADH3PAD@Z 10025440 f   FnDefine.obj
 0001:00024600       ?ADI_getf@@YA_NPAVsicExplorer@@PAVDialogsSystem@@PAH222HPAPADH3PAD@Z 10025600 f   FnDefine.obj
 0001:00024670       ?ADI_gpBtn@@YA_NPAVsicExplorer@@PAVDialogsSystem@@PAH222HPAPADH3PAD@Z 10025670 f   FnDefine.obj
 0001:00024900       ?ADI_if@@YA_NPAVsicExplorer@@PAVDialogsSystem@@PAH222HPAPADH3PAD@Z 10025900 f   FnDefine.obj
 0001:00024930       ?ADI_mtxt@@YA_NPAVsicExplorer@@PAVDialogsSystem@@PAH222HPAPADH3PAD@Z 10025930 f   FnDefine.obj
 0001:00024c40       ?ADI_murl@@YA_NPAVsicExplorer@@PAVDialogsSystem@@PAH222HPAPADH3PAD@Z 10025c40 f   FnDefine.obj
 0001:00024ce0       ?ADI_uurl@@YA_NPAVsicExplorer@@PAVDialogsSystem@@PAH222HPAPADH3PAD@Z 10025ce0 f   FnDefine.obj
 0001:00024e20       ?Add@?$ClassArray@VOneFontParam@@@@QAEHPAVOneFontParam@@@Z 10025e20 f i FnDefine.obj
 0001:00024ea0       ?Add@?$ClassArray@VSimpleDialog@@@@QAEHPAVSimpleDialog@@@Z 10025ea0 f i FnDefine.obj
 0001:00024f20       ?Add@?$DynArray@PAVOneFontParam@@$0P@@@QAEHABQAVOneFontParam@@@Z 10025f20 f i FnDefine.obj
 0001:00024fa0       ?Add@?$DynArray@PAVSimpleDialog@@$0P@@@QAEHABQAVSimpleDialog@@@Z 10025fa0 f i FnDefine.obj
 0001:00025020       ?BrowseChDisk@@YAXPAVsicExplorer@@PAXH@Z 10026020 f   FnDefine.obj
 0001:00025130       ?CBB_Close2@@YAXPAVsicExplorer@@PAXH@Z 10026130 f   FnDefine.obj
 0001:000251e0       ?CBB_Process2@@YAXPAVsicExplorer@@PAXH@Z 100261e0 f   FnDefine.obj
 0001:000252b0       ?CBB_Process@@YAXPAVsicExplorer@@PAXH@Z 100262b0 f   FnDefine.obj
 0001:000254c0       ?CHK_Process@@YAXPAVsicExplorer@@PAXH@Z 100264c0 f   FnDefine.obj
 0001:000255e0       ?Check@?$DynArray@PAVOneFontParam@@$0P@@@QAEXH@Z 100265e0 f i FnDefine.obj
 0001:000256c0       ?Check@?$DynArray@PAVSimpleDialog@@$0P@@@QAEXH@Z 100266c0 f i FnDefine.obj
 0001:000257a0       ?CheckCondition@@YA_NPAD@Z 100267a0 f   FnDefine.obj
 0001:000257c0       ?CheckDirectCasting@OneFontParam@@UAE_NXZ 100267c0 f i FnDefine.obj
 0001:000257e0       ?Close_DBTBL@@YAXPAVsicExplorer@@PAXH@Z 100267e0 f   FnDefine.obj
 0001:00025800       ?ConvTypeName@@YAPADAAVDString@@@Z 10026800 f i FnDefine.obj
 0001:000258d0       ?DrawMap@@YAXHHHHHEH@Z     100268d0 f   FnDefine.obj
 0001:00025930       ?Draw_DBTBL@@YAXHHHHHEH@Z  10026930 f   FnDefine.obj
 0001:00025ec0       ?EnumFilesInDirectory@@YAXPADPAPADH00@Z 10026ec0 f   FnDefine.obj
 0001:00026690       ?FileClickProc@@YAXPAPADH@Z 10027690 f   FnDefine.obj
 0001:00026930       ?GetAmount@?$DynArray@PAVOneClassMemberStorage@@$0P@@@QBEHXZ 10027930 f i FnDefine.obj
 0001:00026950       ?GetAmount@?$DynArray@PAVOneFontParam@@$0P@@@QBEHXZ 10027950 f i FnDefine.obj
 0001:00026970       ?GetByGP@FontParam@@QAEPAVOneFontParam@@H@Z 10027970 f i FnDefine.obj
 0001:00026ba0       ?GetClassMask@OneFontParam@@UAEKXZ 10027ba0 f i FnDefine.obj
 0001:00026bd0       ?GetClassNameA@OneFontParam@@UAEPBDXZ 10027bd0 f i FnDefine.obj
 0001:00026bf0       ?GetClassStorage@OneFontParam@@UAEPAVOneClassStorage@@XZ 10027bf0 f i FnDefine.obj
 0001:00026c80       ?GetSource@ReferableBaseClassWithSource@@UAEPBDXZ 10027c80 f i FnDefine.obj
 0001:00026cd0       ?InitIFNS@@YAXXZ           10027cd0 f   FnDefine.obj
 0001:00028f00       ?LimitString@@YAXPADPAVRLCFont@@H@Z 10029f00 f   FnDefine.obj
 0001:00028fa0       ?MapClick@@YA_NPAVSimpleDialog@@@Z 10029fa0 f   FnDefine.obj
 0001:000291b0       ?ProcPing@@YAXPAVsicExplorer@@PAXH@Z 1002a1b0 f   FnDefine.obj
 0001:00029220       ?Process_DBTBL@@YAXPAVsicExplorer@@PAXH@Z 1002a220 f   FnDefine.obj
 0001:00029e30       ?ReadFromFile@ReferableBaseClassWithSource@@UAE_NPBD@Z 1002ae30 f i FnDefine.obj
 0001:00029eb0       ?RegisterMembers@OneFontParam@@UAEXXZ 1002aeb0 f i FnDefine.obj
 0001:0002a870       ?SOR_Process@@YAXPAVsicExplorer@@PAXH@Z 1002b870 f   FnDefine.obj
 0001:0002a930       ?SafeReadFromFile@ReferableBaseClassWithSource@@UAE_NPBD@Z 1002b930 f i FnDefine.obj
 0001:0002a9b0       ?Save@ReferableBaseClassWithSource@@UAEXAAVxmlQuote@@PAX1@Z 1002b9b0 f i FnDefine.obj
 0001:0002aa80       ?SendDblToServer@@YA_NPAVSimpleDialog@@@Z 1002ba80 f   FnDefine.obj
 0001:0002adc0       ?SendSmartRequest@@YAXPAVsicExplorer@@PAD@Z 1002bdc0 f   FnDefine.obj
 0001:0002b6f0       ?SendToServer@@YA_NPAVSimpleDialog@@@Z 1002c6f0 f   FnDefine.obj
 0001:0002b7a0       ?SetTitle@OneMap@@QAEXPAD@Z 1002c7a0 f i FnDefine.obj
 0001:0002b7f0       ?ShowPixProcess@@YAXPAVsicExplorer@@PAXH@Z 1002c7f0 f   FnDefine.obj
 0001:0002b8f0       ?ShowPixString@@YAXPAVsicExplorer@@HHHHPAVRLCFont@@PAD_N@Z 1002c8f0 f   FnDefine.obj
 0001:0002bd60       ?ShowVar@@YAXPAVsicExplorer@@PAXH@Z 1002cd60 f   FnDefine.obj
 0001:0002bf80       ?SortStrings@@YAXPAPADH@Z  1002cf80 f   FnDefine.obj
 0001:0002c030       ?WriteToFile@ReferableBaseClassWithSource@@UAE_NPBD@Z 1002d030 f i FnDefine.obj
 0001:0002c0b0       ?name@type_info@@QBEPBDXZ  1002d0b0 f i FnDefine.obj
 0001:0002c100       ?new_element@OneFontParam@@UAEPAVBaseClass@@XZ 1002d100 f i FnDefine.obj
 0001:0002c2c0       ?sgetFile@@YAXPAVsicExplorer@@PAD@Z 1002d2c0 f   FnDefine.obj
 0001:0002c3b0       ??0OneMap@@QAE@XZ          1002d3b0 f   GameOnMap.obj
 0001:0002c400       ??1OneMap@@QAE@XZ          1002d400 f   GameOnMap.obj
 0001:0002c470       ?AddMapPicture@OneMap@@QAEXPADHHHHH@Z 1002d470 f   GameOnMap.obj
 0001:0002c770       ?ApplyColorsToScaleLayer@OneMap@@QAEXH@Z 1002d770 f   GameOnMap.obj
 0001:0002cb50       ?ChangeScale@OneMap@@QAEXH@Z 1002db50 f   GameOnMap.obj
 0001:0002cbb0       ?ClearAll@OneMap@@QAEXXZ   1002dbb0 f   GameOnMap.obj
 0001:0002cd30       ?ClearMapPictures@OneMap@@QAEXXZ 1002dd30 f   GameOnMap.obj
 0001:0002cd60       ?IntersectWindows@@YAXHHHH@Z 1002dd60 f   GameOnMap.obj
 0001:0002cec0       ?LoadMapData@OneMap@@QAEXPAVsicExplorer@@@Z 1002dec0 f   GameOnMap.obj
 0001:0002d9a0       ?NormalizeCoordinates@OneMap@@QAEXXZ 1002e9a0 f   GameOnMap.obj
 0001:0002dc90       ?PopWindow@@YAXPAUTempWindow@@@Z 1002ec90 f   GameOnMap.obj
 0001:0002dcf0       ?PushWindow@@YAXPAUTempWindow@@@Z 1002ecf0 f   GameOnMap.obj
 0001:0002dd80       ?ReadWinStringF@@YA_NPAU_iobuf@@PADH@Z 1002ed80 f   GameOnMap.obj
 0001:0002de60       ?RelativeMove@OneMap@@QAEXHH@Z 1002ee60 f   GameOnMap.obj
 0001:0002df30       ?SetCenterCoor@OneMap@@QAEXHH@Z 1002ef30 f   GameOnMap.obj
 0001:0002df90       ?ShowMapPart@OneMap@@QAEXXZ 1002ef90 f   GameOnMap.obj
 0001:0002e6e0       ?UpdateMapData@OneMap@@QAEXPAE@Z 1002f6e0 f   GameOnMap.obj
 0001:0002e9d0       _DllMain@12                1002f9d0 f   IntExplorer.obj
 0001:0002ea30       ??0ParsedRQ@@QAE@XZ        1002fa30 f   ParseRQ.obj
 0001:0002ea80       ??1ParsedRQ@@QAE@XZ        1002fa80 f   ParseRQ.obj
 0001:0002eaf0       ?AddComm@ParsedRQ@@QAEXPAD@Z 1002faf0 f   ParseRQ.obj
 0001:0002ec40       ?AddIntParam@ParsedRQ@@QAEXH@Z 1002fc40 f   ParseRQ.obj
 0001:0002ecf0       ?AddParam@ParsedRQ@@QAEXPADH@Z 1002fcf0 f   ParseRQ.obj
 0001:0002ee20       ?AddParamToCom@ParsedRQ@@QAEXHPADH@Z 1002fe20 f   ParseRQ.obj
 0001:0002ef50       ?Clear@ParsedRQ@@QAEXXZ    1002ff50 f   ParseRQ.obj
 0001:0002f090       ?Compact@ParsedRQ@@QAEHPADH@Z 10030090 f   ParseRQ.obj
 0001:0002f2d0       ?DelComm@ParsedRQ@@QAEXH@Z 100302d0 f   ParseRQ.obj
 0001:0002f420       ?Extract@ParsedRQ@@QAEXPADH@Z 10030420 f   ParseRQ.obj
 0001:0002f640       ?GetHVal@@YAHD@Z           10030640 f   ParseRQ.obj
 0001:0002f690       ?Parse@ParsedRQ@@QAEXPAD@Z 10030690 f   ParseRQ.obj
 0001:0002f9f0       ?UnParse@ParsedRQ@@QAEHPADH@Z 100309f0 f   ParseRQ.obj
 0001:0002fe50       ??0PingEngine@@QAE@XZ      10030e50 f   PingEngine.obj
 0001:0002fea0       ??1PingEngine@@QAE@XZ      10030ea0 f   PingEngine.obj
 0001:0002fec0       ?GETPING@@YAHK@Z           10030ec0 f   PingEngine.obj
 0001:0002ff20       ?GetPing@PingEngine@@QAEHK@Z 10030f20 f   PingEngine.obj
 0001:00030080       ?Process@PingEngine@@QAEXXZ 10031080 f   PingEngine.obj
 0001:00030440       ?SendPingToIP@PingEngine@@QAE_NK@Z 10031440 f   PingEngine.obj
 0001:000305c0       ?Setup@PingEngine@@QAEXXZ  100315c0 f   PingEngine.obj
 0001:000307b0       ?checksum@@YAGPAGH@Z       100317b0 f   PingEngine.obj
 0001:00030830       ?decode_resp@@YA_NPADHPAUsockaddr_in@@PAH@Z 10031830 f   PingEngine.obj
 0001:000308d0       ?fill_icmp_data@@YAXPADH@Z 100318d0 f   PingEngine.obj
 0001:00030958       ?_ExMalloc@@YAPAXH@Z       10031958 f   engine:engine.exe
 0001:0003095e       ?_ExFree@@YAXPAX@Z         1003195e f   engine:engine.exe
 0001:00030964       ?RReset@@YAPAXPBD@Z        10031964 f   engine:engine.exe
 0001:0003096a       ?RRewrite@@YAPAXPBD@Z      1003196a f   engine:engine.exe
 0001:00030970       ?RFileSize@@YAKPAX@Z       10031970 f   engine:engine.exe
 0001:00030976       ?RSeek@@YAKPAXH@Z          10031976 f   engine:engine.exe
 0001:0003097c       ?RBlockRead@@YAKPAX0K@Z    1003197c f   engine:engine.exe
 0001:00030982       ?RBlockWrite@@YAKPAX0K@Z   10031982 f   engine:engine.exe
 0001:00030988       ?RClose@@YAXPAX@Z          10031988 f   engine:engine.exe
 0001:0003098e       ?_ExRealloc@@YAPAXPAXH@Z   1003198e f   engine:engine.exe
 0001:00030994       ?SmartAssert@@YAXPBDH0@Z   10031994 f   engine:engine.exe
 0001:0003099a       ?pchar@DString@@QAEPADPBD@Z 1003199a f   engine:engine.exe
 0001:000309a0       ??0DString@@QAE@XZ         100319a0 f   engine:engine.exe
 0001:000309a6       ??1DString@@QAE@XZ         100319a6 f   engine:engine.exe
 0001:000309ac       ?Add@DString@@QAEXPBD@Z    100319ac f   engine:engine.exe
 0001:000309b2       ?Assign@DString@@QAEXPAD@Z 100319b2 f   engine:engine.exe
 0001:000309b8       ?CheckDynPtr@@YAXPAX@Z     100319b8 f   engine:engine.exe
 0001:000309be       ?WriteDWORD@BinStream@@QAEXK@Z 100319be f   engine:engine.exe
 0001:000309c4       ?ReadDWORD@BinStream@@QAEKXZ 100319c4 f   engine:engine.exe
 0001:000309ca       ?GetClass@ClassGarbage@@QAEPAVOneClassStorage@@PBD@Z 100319ca f   engine:engine.exe
 0001:000309d0       ?TestClassStorage@@YAXPAPAVOneClassStorage@@@Z 100319d0 f   engine:engine.exe
 0001:000309d6       ??0BaseClass@@QAE@XZ       100319d6 f   engine:engine.exe
 0001:000309dc       ??1BaseClass@@UAE@XZ       100319dc f   engine:engine.exe
 0001:000309e2       ??1_str@@UAE@XZ            100319e2 f   engine:engine.exe
 0001:000309e8       ?GetClassNameA@_str@@UAEPBDXZ 100319e8 f   engine:engine.exe
 0001:000309ee       ??0_str@@QAE@XZ            100319ee f   engine:engine.exe
 0001:000309f4       ??4_str@@QAEAAV0@PBD@Z     100319f4 f   engine:engine.exe
 0001:000309fa       ?SaveBin@_str@@UAEXPAX0PAVBinStream@@PAVEnumerator@@2@Z 100319fa f   engine:engine.exe
 0001:00030a00       ?LoadBin@_str@@UAEXPAX0PAVBinStream@@PAVEnumerator@@@Z 10031a00 f   engine:engine.exe
 0001:00030a06       ?SetCurPtr@@YAXH@Z         10031a06 f   engine:engine.exe
 0001:00030a0c       ?SetExComm@@YAXPADH@Z      10031a0c f   engine:engine.exe
 0001:00030a12       ?DecompressData@@YA_NPAPAEPAIPAE@Z 10031a12 f   engine:engine.exe
 0001:00030a18       ?CompressData@@YA_NPAPAEPAIPAEI@Z 10031a18 f   engine:engine.exe
 0001:00030a1e       ?RenameAnywayEx@@YAXPAD0@Z 10031a1e f   engine:engine.exe
 0001:00030a24       ?PlayRecfile@@YAXPAD@Z     10031a24 f   engine:engine.exe
 0001:00030a2a       ?GetThisElementView@BaseClass@@UAEPBDPBD@Z 10031a2a f   engine:engine.exe
 0001:00030a30       ?DelElement@BaseClass@@UAE_NH@Z 10031a30 f   engine:engine.exe
 0001:00030a36       ?CheckDirectCasting@BaseClass@@UAE_NXZ 10031a36 f   engine:engine.exe
 0001:00030a3c       ?ExpandWith@BaseClass@@UAEHPBDPAX@Z 10031a3c f   engine:engine.exe
 0001:00030a42       ?GetExpansionRules@BaseClass@@UAEHXZ 10031a42 f   engine:engine.exe
 0001:00030a48       ?GetExpansionBaseClass@BaseClass@@UAEPBDXZ 10031a48 f   engine:engine.exe
 0001:00030a4e       ?ForceSimplification@BaseClass@@UAE_NXZ 10031a4e f   engine:engine.exe
 0001:00030a54       ?MoveElement@BaseClass@@UAE_NHD@Z 10031a54 f   engine:engine.exe
 0001:00030a5a       ?AskParentForUsingExpansionClass@BaseClass@@UAE_NPAD0@Z 10031a5a f   engine:engine.exe
 0001:00030a60       ?GetSource@BaseClass@@UAEPBDXZ 10031a60 f   engine:engine.exe
 0001:00030a66       ?EvaluateFunction@BaseClass@@UAEXXZ 10031a66 f   engine:engine.exe
 0001:00030a6c       ?CheckIfFunction@BaseClass@@UAE_NXZ 10031a6c f   engine:engine.exe
 0001:00030a72       ?call@BaseClass@@UAEXPAX0@Z 10031a72 f   engine:engine.exe
 0001:00030a78       ?GetSectionStatus@BaseClass@@UAEHXZ 10031a78 f   engine:engine.exe
 0001:00030a7e       ?SetSectionStatus@BaseClass@@UAEXH@Z 10031a7e f   engine:engine.exe
 0001:00030a84       ?GetClassMask@BaseClass@@UAEKXZ 10031a84 f   engine:engine.exe
 0001:00030a8a       ?GetObjectNamePointer@BaseClass@@UAEPAV_str@@XZ 10031a8a f   engine:engine.exe
 0001:00030a90       ?CheckIfObjectIsGlobal@BaseClass@@UAE_NXZ 10031a90 f   engine:engine.exe
 0001:00030a96       ?GetObjectGlobalID@BaseClass@@UAEKXZ 10031a96 f   engine:engine.exe
 0001:00030a9c       ?SetObjectGlobalID@BaseClass@@UAEXK@Z 10031a9c f   engine:engine.exe
 0001:00030aa2       ?GetParent@BaseClass@@UAEPAV1@XZ 10031aa2 f   engine:engine.exe
 0001:00030aa8       ?CheckCompartabilityWith@BaseClass@@UAE_NPBDH@Z 10031aa8 f   engine:engine.exe
 0001:00030aae       ?ShouldSaveInShortForm@BaseClass@@UAE_NXZ 10031aae f   engine:engine.exe
 0001:00030ab4       ?ProcessInEditor@BaseClass@@UAEXPAV1@@Z 10031ab4 f   engine:engine.exe
 0001:00030aba       ?OnChangeMember@BaseClass@@UAE_NPAV1@PAX1PBD@Z 10031aba f   engine:engine.exe
 0001:00030ac0       ?SetEnumName@BaseClass@@UAEXPBD@Z 10031ac0 f   engine:engine.exe
 0001:00030ac6       ?reset_class@_str@@UAEXPAX@Z 10031ac6 f   engine:engine.exe
 0001:00030acc       ?FullCopy@_str@@UAE_NPAX0PAVBaseClass@@00PAVCopyContex@@@Z 10031acc f   engine:engine.exe
 0001:00030ad2       ?new_element@_str@@UAEPAVBaseClass@@XZ 10031ad2 f   engine:engine.exe
 0001:00030ad8       ?GetClassStorage@_str@@UAEPAVOneClassStorage@@XZ 10031ad8 f   engine:engine.exe
 0001:00030ade       ?Save@_str@@UAEXAAVxmlQuote@@PAX1@Z 10031ade f   engine:engine.exe
 0001:00030ae4       ?Load@_str@@UAE_NAAVxmlQuote@@PAXPAVErrorPager@@1@Z 10031ae4 f   engine:engine.exe
 0001:00030aea       ?Save@BaseClass@@UAEXAAVxmlQuote@@PAX1@Z 10031aea f   engine:engine.exe
 0001:00030af0       ?Load@BaseClass@@UAE_NAAVxmlQuote@@PAXPAVErrorPager@@1@Z 10031af0 f   engine:engine.exe
 0001:00030af6       ?RegisterMembers@BaseClass@@UAEXXZ 10031af6 f   engine:engine.exe
 0001:00030afc       ?GetAmountOfElements@BaseClass@@UAEHXZ 10031afc f   engine:engine.exe
 0001:00030b02       ?GetElementID@BaseClass@@UAEPBDH@Z 10031b02 f   engine:engine.exe
 0001:00030b08       ?GetElementView@BaseClass@@UAEPBDHPBD@Z 10031b08 f   engine:engine.exe
 0001:00030b0e       ?GetElementClass@BaseClass@@UAEPAV1@H@Z 10031b0e f   engine:engine.exe
 0001:00030b14       ?GetElementPtr@BaseClass@@UAEPAXHPAX@Z 10031b14 f   engine:engine.exe
 0001:00030b1a       ?GetElementExtraPtr@BaseClass@@UAEPAXH@Z 10031b1a f   engine:engine.exe
 0001:00030b20       ?LoadPostProcess@BaseClass@@UAEXPAX0@Z 10031b20 f   engine:engine.exe
 0001:00030b26       ?ForceProperty@BaseClass@@UAE_NXZ 10031b26 f   engine:engine.exe
 0001:00030b2c       ?ReadFromFile@BaseClass@@UAE_NPBD@Z 10031b2c f   engine:engine.exe
 0001:00030b32       ?SafeReadFromFile@BaseClass@@UAE_NPBD@Z 10031b32 f   engine:engine.exe
 0001:00030b38       ?WriteToFile@BaseClass@@UAE_NPBD@Z 10031b38 f   engine:engine.exe
 0001:00030b3e       ?Copy@BaseClass@@UAE_NPAV1@_N@Z 10031b3e f   engine:engine.exe
 0001:00030b44       ?GetAmountOfEditableElements@BaseClass@@UAEHPAXK@Z 10031b44 f   engine:engine.exe
 0001:00030b4a       ?GetIndexOfEditableElement@BaseClass@@UAEHHPAXK@Z 10031b4a f   engine:engine.exe
 0001:00030b50       ?GetEditableElementClass@BaseClass@@UAEPAV1@HPAXK@Z 10031b50 f   engine:engine.exe
 0001:00030b56       ?GetEditableElementData@BaseClass@@UAEPAXHPAXK@Z 10031b56 f   engine:engine.exe
 0001:00030b5c       ?GetEditableElementExtra@BaseClass@@UAEPAXHPAXK@Z 10031b5c f   engine:engine.exe
 0001:00030b62       ?GetEditableElementExpansionList@BaseClass@@UAE_NAAUClassExpParams@@HPAXKPAV1@PBD@Z 10031b62 f   engine:engine.exe
 0001:00030b68       ?CheckIfElementIsNode@BaseClass@@UAE_NHPAX@Z 10031b68 f   engine:engine.exe
 0001:00030b6e       ?CheckIfEditableElementIsNode@BaseClass@@UAE_NHPAXK@Z 10031b6e f   engine:engine.exe
 0001:00030b74       ?GetEditableElementName@BaseClass@@UAEPBDHPAXK@Z 10031b74 f   engine:engine.exe
 0001:00030b7a       ?GetEditableElementView@BaseClass@@UAEPBDHPAXPBDK@Z 10031b7a f   engine:engine.exe
 0001:00030b80       ?GetElementMessageAndHintInEditor@BaseClass@@UAEXAAVDString@@0PAV1@PAD@Z 10031b80 f   engine:engine.exe
 0001:00030b86       ?CheckIfElementReadOnly@BaseClass@@UAE_NHPAXK@Z 10031b86 f   engine:engine.exe
 0001:00030b8c       ?CheckIfElementInvisible@BaseClass@@UAE_NHPAXK@Z 10031b8c f   engine:engine.exe
 0001:00030b92       ?GetRealMaskedPosition@BaseClass@@UAEHH@Z 10031b92 f   engine:engine.exe
 0001:00030b98       ?SetParent@BaseClass@@UAEXPAV1@@Z 10031b98 f   engine:engine.exe
 0001:00030b9e       ?GetClassPresentationMask@BaseClass@@UAE_NAAV_str@@PAX1PBDK@Z 10031b9e f   engine:engine.exe
 0001:00030ba4       ?PreLoadGPImage@GP_System@@QAEHPAD@Z 10031ba4 f   engine:engine.exe
 0001:00030baa       ?g_SetWindParam@@YAXHHHH@Z 10031baa f   engine:engine.exe
 0001:00030bb0       ?addNewGP_VScrollBar@ParentFrame@@QAEPAVVScrollBar@@PAVSimpleDialog@@HHHHHHH@Z 10031bb0 f   engine:engine.exe
 0001:00030bb6       ?addCustomBorder@ParentFrame@@QAEPAVCustomBorder@@HHHHHPAH0HH@Z 10031bb6 f   engine:engine.exe
 0001:00030bbc       ?addClipper@ParentFrame@@QAEPAVSimpleDialog@@HHHH@Z 10031bbc f   engine:engine.exe
 0001:00030bc2       ??0DialogsSystem@@QAE@XZ   10031bc2 f   engine:engine.exe
 0001:00030bc8       ??1DialogsSystem@@UAE@XZ   10031bc8 f   engine:engine.exe
 0001:00030bce       ?CloseDialogs@DialogsSystem@@QAEXXZ 10031bce f   engine:engine.exe
 0001:00030bd4       ?ProcessDialogs@DialogsSystem@@QAEXXZ 10031bd4 f   engine:engine.exe
 0001:00030bda       ?ProcessWindowMessages@@YA_NXZ 10031bda f   engine:engine.exe
 0001:00030be0       ?GetWheelDelta@@YAH_N@Z    10031be0 f   engine:engine.exe
 0001:00030be6       ?SetGPIndex@RLCFont@@QAEXH@Z 10031be6 f   engine:engine.exe
 0001:00030bec       ?SetStdShadow@RLCFont@@QAEXXZ 10031bec f   engine:engine.exe
 0001:00030bf2       ?SetShadowGP@RLCFont@@QAEXHHH@Z 10031bf2 f   engine:engine.exe
 0001:00030bf8       ?SetColor@RLCFont@@QAEXK@Z 10031bf8 f   engine:engine.exe
 0001:00030bfe       ?GetRLCHeight@@YAHPAUxRLCTable@@E@Z 10031bfe f   engine:engine.exe
 0001:00030c04       ?GetRLCStrWidth@@YAHPADPAVRLCFont@@@Z 10031c04 f   engine:engine.exe
 0001:00030c0a       ?GetRLCWidthUNICODE@@YAHPAUxRLCTable@@PAEPAH@Z 10031c0a f   engine:engine.exe
 0001:00030c10       ?ShowGP@GP_System@@QAEXHHHHE@Z 10031c10 f   engine:engine.exe
 0001:00030c16       ?LoadGP@GP_System@@QAE_NH@Z 10031c16 f   engine:engine.exe
 0001:00030c1c       ?GetGPHeight@GP_System@@QAEHHH@Z 10031c1c f   engine:engine.exe
 0001:00030c22       ?GetGPWidth@GP_System@@QAEHHH@Z 10031c22 f   engine:engine.exe
 0001:00030c28       ?Replace@DString@@QAAXPAD0ZZ 10031c28 f   engine:engine.exe
 0001:00030c2e       ?Free@DString@@QAEXXZ      10031c2e f   engine:engine.exe
 0001:00030c34       ??0xmlQuote@@QAE@XZ        10031c34 f   engine:engine.exe
 0001:00030c3a       ??1xmlQuote@@QAE@XZ        10031c3a f   engine:engine.exe
 0001:00030c40       ?WriteToFile@xmlQuote@@QAEXPAD@Z 10031c40 f   engine:engine.exe
 0001:00030c46       ?PushSmartLeak@@YAXAA_N@Z  10031c46 f   engine:engine.exe
 0001:00030c4c       ?PopSmartLeak@@YAXAA_N@Z   10031c4c f   engine:engine.exe
 0001:00030c52       ?PrintError@@YAXPADZZ      10031c52 f   engine:engine.exe
 0001:00030c58       ?GetElmPtr@OneClassMemberStorage@@QAEPAXPAX@Z 10031c58 f   engine:engine.exe
 0001:00030c5e       ?GetCurrentSaveFile@BaseClass@@SAPBDXZ 10031c5e f   engine:engine.exe
 0001:00030c64       ?RegisterOneMember@BaseClass@@QAEXPAV1@PAXPBD12_NK@Z 10031c64 f   engine:engine.exe
 0001:00030c6a       ??0_int@@QAE@XZ            10031c6a f   engine:engine.exe
 0001:00030c70       ??1_int@@UAE@XZ            10031c70 f   engine:engine.exe
 0001:00030c76       ??0_DWORD@@QAE@XZ          10031c76 f   engine:engine.exe
 0001:00030c7c       ??1_DWORD@@UAE@XZ          10031c7c f   engine:engine.exe
 0001:00030c82       ??0_bool@@QAE@XZ           10031c82 f   engine:engine.exe
 0001:00030c88       ??1_bool@@UAE@XZ           10031c88 f   engine:engine.exe
 0001:00030c8e       ?_getClassFromPalette@@YAPAVBaseClass@@PBD@Z 10031c8e f   engine:engine.exe
 0001:00030c94       ?reg_class_bc@@YAXPAVBaseClass@@PAD1_N@Z 10031c94 f   engine:engine.exe
 0001:00030c9a       ??0_gpfile@@QAE@XZ         10031c9a f   engine:engine.exe
 0001:00030ca0       ??1_gpfile@@UAE@XZ         10031ca0 f   engine:engine.exe
 0001:00030ca6       ?DrawFilledRect3@@YAXHHHHPAUCorners@@HHH@Z 10031ca6 f   engine:engine.exe
 0001:00030cac       ?DrawMultilineText@@YAHHHPADPAVRLCFont@@AAHHE_N@Z 10031cac f   engine:engine.exe
 0001:00030cb2       ?addGPPicture@ParentFrame@@QAEPAVGPPicture@@PAVSimpleDialog@@HHHH@Z 10031cb2 f   engine:engine.exe
 0001:00030cb8       ?addTextButton@ParentFrame@@QAEPAVTextButton@@PAVSimpleDialog@@HHPADPAVRLCFont@@22E@Z 10031cb8 f   engine:engine.exe
 0001:00030cbe       ?addGP_TextButton@ParentFrame@@QAEPAVGP_TextButton@@PAVSimpleDialog@@HHPADHHPAVRLCFont@@2@Z 10031cbe f   engine:engine.exe
 0001:00030cc4       ?addGP_TextButtonLimited@ParentFrame@@QAEPAVGP_TextButton@@PAVSimpleDialog@@HHPADHHHHPAVRLCFont@@2@Z 10031cc4 f   engine:engine.exe
 0001:00030cca       ?addGP_Button@ParentFrame@@QAEPAVGP_Button@@PAVSimpleDialog@@HHHHH@Z 10031cca f   engine:engine.exe
 0001:00030cd0       ?addComplexBox@ParentFrame@@QAEPAVComplexBox@@HHHHP6AXHHHHHEH@ZHH@Z 10031cd0 f   engine:engine.exe
 0001:00030cd6       ?addCustomBox@ParentFrame@@QAEPAVCustomBox@@HHHHP6AXHHHHHEH@Z@Z 10031cd6 f   engine:engine.exe
 0001:00030cdc       ?addInputBox@ParentFrame@@QAEPAVInputBox@@PAVSimpleDialog@@HHPADHHHPAVRLCFont@@2@Z 10031cdc f   engine:engine.exe
 0001:00030ce2       ?addGP_CheckBox@ParentFrame@@QAEPAVCheckBox@@PAVSimpleDialog@@HHPADPAVRLCFont@@2H_NHHHH@Z 10031ce2 f   engine:engine.exe
 0001:00030ce8       ?addGP_CheckBox2@ParentFrame@@QAEPAVCheckBox@@PAVSimpleDialog@@HHPADPAVRLCFont@@2H_NHHHH@Z 10031ce8 f   engine:engine.exe
 0001:00030cee       ?addTextViewer@ParentFrame@@QAEPAVTextViewer@@PAVSimpleDialog@@HHHHPADPAVRLCFont@@@Z 10031cee f   engine:engine.exe
 0001:00030cf4       ?addGP_ComboBoxDLX@ParentFrame@@QAEPAVComboBox@@PAVSimpleDialog@@HHHHHHHPAVRLCFont@@1PAD@Z 10031cf4 f   engine:engine.exe
 0001:00030cfa       ?addStdGP_TextButton@ParentFrame@@QAEPAVGP_TextButton@@HHHPADHHPAVRLCFont@@1@Z 10031cfa f   engine:engine.exe
 0001:00030d00       ?AddCanvas@ParentFrame@@QAEPAVCanvas@@HHHH@Z 10031d00 f   engine:engine.exe
 0001:00030d06       ??0VitButton@@QAE@XZ       10031d06 f   engine:engine.exe
 0001:00030d0c       ??1VitButton@@UAE@XZ       10031d0c f   engine:engine.exe
 0001:00030d12       ?AddLine@Canvas@@QAEXHHHHK@Z 10031d12 f   engine:engine.exe
 0001:00030d18       ?AddMenuText@Canvas@@QAEXHHPADPAVRLCFont@@1E@Z 10031d18 f   engine:engine.exe
 0001:00030d1e       ?AssignScroll@ComboBox@@QAEXPAVParentFrame@@PAPAVVScrollBar@@HHH@Z 10031d1e f   engine:engine.exe
 0001:00030d24       ?AddLine@ComboBox@@QAEXPAD@Z 10031d24 f   engine:engine.exe
 0001:00030d2a       ?Clear@ComboBox@@QAEXXZ    10031d2a f   engine:engine.exe
 0001:00030d30       ?CheckGP_Inside@@YA_NHHHH@Z 10031d30 f   engine:engine.exe
 0001:00030d36       ?UnPress@@YAXXZ            10031d36 f   engine:engine.exe
 0001:00030d3c       ?ShowCharUNICODE@@YAXHHPAEPAVRLCFont@@@Z 10031d3c f   engine:engine.exe
 0001:00030d42       ?GetObjectGlobalID@ReferableBaseClass@@UAEKXZ 10031d42 f   engine:engine.exe
 0001:00030d48       ?SetObjectGlobalID@ReferableBaseClass@@UAEXK@Z 10031d48 f   engine:engine.exe
 0001:00030d4e       ?GetParent@ReferableBaseClass@@UAEPAVBaseClass@@XZ 10031d4e f   engine:engine.exe
 0001:00030d54       ?SetParent@ReferableBaseClass@@UAEXPAVBaseClass@@@Z 10031d54 f   engine:engine.exe
 0001:00030d5a       ?reset_class@_int@@UAEXPAX@Z 10031d5a f   engine:engine.exe
 0001:00030d60       ?CheckCompartabilityWith@_int@@UAE_NPBDH@Z 10031d60 f   engine:engine.exe
 0001:00030d66       ?FullCopy@_int@@UAE_NPAX0PAVBaseClass@@00PAVCopyContex@@@Z 10031d66 f   engine:engine.exe
 0001:00030d6c       ?new_element@_int@@UAEPAVBaseClass@@XZ 10031d6c f   engine:engine.exe
 0001:00030d72       ?GetClassStorage@_int@@UAEPAVOneClassStorage@@XZ 10031d72 f   engine:engine.exe
 0001:00030d78       ?reset_class@_DWORD@@UAEXPAX@Z 10031d78 f   engine:engine.exe
 0001:00030d7e       ?CheckCompartabilityWith@_DWORD@@UAE_NPBDH@Z 10031d7e f   engine:engine.exe
 0001:00030d84       ?FullCopy@_DWORD@@UAE_NPAX0PAVBaseClass@@00PAVCopyContex@@@Z 10031d84 f   engine:engine.exe
 0001:00030d8a       ?new_element@_DWORD@@UAEPAVBaseClass@@XZ 10031d8a f   engine:engine.exe
 0001:00030d90       ?GetClassStorage@_DWORD@@UAEPAVOneClassStorage@@XZ 10031d90 f   engine:engine.exe
 0001:00030d96       ?reset_class@_bool@@UAEXPAX@Z 10031d96 f   engine:engine.exe
 0001:00030d9c       ?CheckCompartabilityWith@_bool@@UAE_NPBDH@Z 10031d9c f   engine:engine.exe
 0001:00030da2       ?FullCopy@_bool@@UAE_NPAX0PAVBaseClass@@00PAVCopyContex@@@Z 10031da2 f   engine:engine.exe
 0001:00030da8       ?new_element@_bool@@UAEPAVBaseClass@@XZ 10031da8 f   engine:engine.exe
 0001:00030dae       ?GetClassStorage@_bool@@UAEPAVOneClassStorage@@XZ 10031dae f   engine:engine.exe
 0001:00030db4       ?CheckCompartabilityWith@_gpfile@@UAE_NPBDH@Z 10031db4 f   engine:engine.exe
 0001:00030dba       ?FullCopy@_gpfile@@UAE_NPAX0PAVBaseClass@@00PAVCopyContex@@@Z 10031dba f   engine:engine.exe
 0001:00030dc0       ?SaveBin@_gpfile@@UAEXPAX0PAVBinStream@@PAVEnumerator@@2@Z 10031dc0 f   engine:engine.exe
 0001:00030dc6       ?LoadBin@_gpfile@@UAEXPAX0PAVBinStream@@PAVEnumerator@@@Z 10031dc6 f   engine:engine.exe
 0001:00030dcc       ?new_element@_gpfile@@UAEPAVBaseClass@@XZ 10031dcc f   engine:engine.exe
 0001:00030dd2       ?GetClassStorage@_gpfile@@UAEPAVOneClassStorage@@XZ 10031dd2 f   engine:engine.exe
 0001:00030dd8       ?GetMargin@ParentFrame@@UAEXAAH000@Z 10031dd8 f   engine:engine.exe
 0001:00030dde       ?GetShift@ParentFrame@@UAEXAAH0@Z 10031dde f   engine:engine.exe
 0001:00030de4       ?ShiftDialog@ParentFrame@@UAE_NHH@Z 10031de4 f   engine:engine.exe
 0001:00030dea       ?ResizeDialog@ParentFrame@@UAE_NHH@Z 10031dea f   engine:engine.exe
 0001:00030df0       ?GetClassMask@ParentFrame@@UAEKXZ 10031df0 f   engine:engine.exe
 0001:00030df6       ?reset_class@SimpleDialog@@UAEXPAX@Z 10031df6 f   engine:engine.exe
 0001:00030dfc       ?_Click@SimpleDialog@@UAE_NXZ 10031dfc f   engine:engine.exe
 0001:00030e02       ?_MouseOver@SimpleDialog@@UAEXXZ 10031e02 f   engine:engine.exe
 0001:00030e08       ?_DrawActive@SimpleDialog@@UAEXXZ 10031e08 f   engine:engine.exe
 0001:00030e0e       ?CheckMouseOver@SimpleDialog@@UAEXHH@Z 10031e0e f   engine:engine.exe
 0001:00030e14       ?GetObjectNamePointer@SimpleDialog@@UAEPAV_str@@XZ 10031e14 f   engine:engine.exe
 0001:00030e1a       ?_OnBeginDrag@SimpleDialog@@UAEXXZ 10031e1a f   engine:engine.exe
 0001:00030e20       ?_OnDrag@SimpleDialog@@UAEXXZ 10031e20 f   engine:engine.exe
 0001:00030e26       ?_OnDropThis@SimpleDialog@@UAEXXZ 10031e26 f   engine:engine.exe
 0001:00030e2c       ?_OnDropOnThis@SimpleDialog@@UAEXXZ 10031e2c f   engine:engine.exe
 0001:00030e32       ?V_scrollToElement@SimpleDialog@@UAEXHH@Z 10031e32 f   engine:engine.exe
 0001:00030e38       ?GetClassNameA@VitButton@@UAEPBDXZ 10031e38 f   engine:engine.exe
 0001:00030e3e       ?CheckDirectCasting@VitButton@@UAE_NXZ 10031e3e f   engine:engine.exe
 0001:00030e44       ?new_element@VitButton@@UAEPAVBaseClass@@XZ 10031e44 f   engine:engine.exe
 0001:00030e4a       ?GetClassStorage@VitButton@@UAEPAVOneClassStorage@@XZ 10031e4a f   engine:engine.exe
 0001:00030e50       ?RegisterMembers@VitButton@@UAEXXZ 10031e50 f   engine:engine.exe
 0001:00030e56       ?Save@_gpfile@@UAEXAAVxmlQuote@@PAX1@Z 10031e56 f   engine:engine.exe
 0001:00030e5c       ?Load@_gpfile@@UAE_NAAVxmlQuote@@PAXPAVErrorPager@@1@Z 10031e5c f   engine:engine.exe
 0001:00030e62       ?GetClassNameA@_gpfile@@UAEPBDXZ 10031e62 f   engine:engine.exe
 0001:00030e68       ?GetWidth@ParentFrame@@UAEHXZ 10031e68 f   engine:engine.exe
 0001:00030e6e       ?SetWidth@ParentFrame@@UAEXH@Z 10031e6e f   engine:engine.exe
 0001:00030e74       ?SetHeight@ParentFrame@@UAEXH@Z 10031e74 f   engine:engine.exe
 0001:00030e7a       ?OnChangeMember@ParentFrame@@UAE_NPAVBaseClass@@PAX1PBD@Z 10031e7a f   engine:engine.exe
 0001:00030e80       ?FullCopy@ReferableBaseClass@@UAE_NPAX0PAVBaseClass@@00PAVCopyContex@@@Z 10031e80 f   engine:engine.exe
 0001:00030e86       ?Save@_DWORD@@UAEXAAVxmlQuote@@PAX1@Z 10031e86 f   engine:engine.exe
 0001:00030e8c       ?Load@_DWORD@@UAE_NAAVxmlQuote@@PAXPAVErrorPager@@1@Z 10031e8c f   engine:engine.exe
 0001:00030e92       ?GetClassNameA@_DWORD@@UAEPBDXZ 10031e92 f   engine:engine.exe
 0001:00030e98       ?SaveBin@_DWORD@@UAEXPAX0PAVBinStream@@PAVEnumerator@@2@Z 10031e98 f   engine:engine.exe
 0001:00030e9e       ?LoadBin@_DWORD@@UAEXPAX0PAVBinStream@@PAVEnumerator@@@Z 10031e9e f   engine:engine.exe
 0001:00030ea4       ?GetThisElementView@VitButton@@UAEPBDPBD@Z 10031ea4 f   engine:engine.exe
 0001:00030eaa       ?_Draw@VitButton@@UAEXXZ   10031eaa f   engine:engine.exe
 0001:00030eb0       ?Save@_bool@@UAEXAAVxmlQuote@@PAX1@Z 10031eb0 f   engine:engine.exe
 0001:00030eb6       ?Load@_bool@@UAE_NAAVxmlQuote@@PAXPAVErrorPager@@1@Z 10031eb6 f   engine:engine.exe
 0001:00030ebc       ?GetClassNameA@_bool@@UAEPBDXZ 10031ebc f   engine:engine.exe
 0001:00030ec2       ?SaveBin@_bool@@UAEXPAX0PAVBinStream@@PAVEnumerator@@2@Z 10031ec2 f   engine:engine.exe
 0001:00030ec8       ?LoadBin@_bool@@UAEXPAX0PAVBinStream@@PAVEnumerator@@@Z 10031ec8 f   engine:engine.exe
 0001:00030ece       ?Load@SimpleDialog@@UAE_NAAVxmlQuote@@PAXPAVErrorPager@@1@Z 10031ece f   engine:engine.exe
 0001:00030ed4       ?Process@SimpleDialog@@UAEXPAPAV1@00@Z 10031ed4 f   engine:engine.exe
 0001:00030eda       ?AskParentForUsingExpansionClass@SimpleDialog@@UAE_NPAD0@Z 10031eda f   engine:engine.exe
 0001:00030ee0       ?reset_class@BaseClass@@UAEXPAX@Z 10031ee0 f   engine:engine.exe
 0001:00030ee6       ?FullCopy@BaseClass@@UAE_NPAX0PAV1@00PAVCopyContex@@@Z 10031ee6 f   engine:engine.exe
 0001:00030eec       ?SaveBin@BaseClass@@UAEXPAX0PAVBinStream@@PAVEnumerator@@2@Z 10031eec f   engine:engine.exe
 0001:00030ef2       ?LoadBin@BaseClass@@UAEXPAX0PAVBinStream@@PAVEnumerator@@@Z 10031ef2 f   engine:engine.exe
 0001:00030ef8       ?Save@_int@@UAEXAAVxmlQuote@@PAX1@Z 10031ef8 f   engine:engine.exe
 0001:00030efe       ?Load@_int@@UAE_NAAVxmlQuote@@PAXPAVErrorPager@@1@Z 10031efe f   engine:engine.exe
 0001:00030f04       ?GetClassNameA@_int@@UAEPBDXZ 10031f04 f   engine:engine.exe
 0001:00030f0a       ?SaveBin@_int@@UAEXPAX0PAVBinStream@@PAVEnumerator@@2@Z 10031f0a f   engine:engine.exe
 0001:00030f10       ?LoadBin@_int@@UAEXPAX0PAVBinStream@@PAVEnumerator@@@Z 10031f10 f   engine:engine.exe
 0001:00030f16       ?ShowString@@YAXHHPBDPAVRLCFont@@@Z 10031f16 f   engine:engine.exe
 0001:00030f1c       ?GPNFrames@GP_System@@QAEHH@Z 10031f1c f   engine:engine.exe
 0001:00030f22       ?g_GetWindParam@@YAXAAH000@Z 10031f22 f   engine:engine.exe
 0001:00030f28       ?ShowRGBBuff@@YAXPAEHHHHHHH@Z 10031f28 f   engine:engine.exe
 0001:00030f2e       ?SetGameID@@YAXPAD@Z       10031f2e f   ichat:iChat.dll
 0001:00030f34       ?SetChatWState@@YAXHH@Z    10031f34 f   ichat:iChat.dll
 0001:00030f3a       _ioctlsocket@12            10031f3a f   wsock32:WSOCK32.dll
 0001:00030f40       _recvfrom@24               10031f40 f   wsock32:WSOCK32.dll
 0001:00030f46       _sendto@24                 10031f46 f   wsock32:WSOCK32.dll
 0001:00030f4c       _setsockopt@20             10031f4c f   wsock32:WSOCK32.dll
 0001:00030f52       _WSAStartup@8              10031f52 f   wsock32:WSOCK32.dll
 0001:00030f58       _WSASocketA@24             10031f58 f   ws2_32:WS2_32.dll
 0001:00030f5e       _CreateDirectoryA@8        10031f5e f   kernel32:KERNEL32.dll
 0001:00030f64       _DeleteFileA@4             10031f64 f   kernel32:KERNEL32.dll
 0001:00030f6a       _FindClose@4               10031f6a f   kernel32:KERNEL32.dll
 0001:00030f70       _FindFirstFileA@8          10031f70 f   kernel32:KERNEL32.dll
 0001:00030f76       _FindNextFileA@8           10031f76 f   kernel32:KERNEL32.dll
 0001:00030f7c       _GetLastError@0            10031f7c f   kernel32:KERNEL32.dll
 0001:00030f82       _ExitProcess@4             10031f82 f   kernel32:KERNEL32.dll
 0001:00030f88       _GetSystemTime@4           10031f88 f   kernel32:KERNEL32.dll
 0001:00030f8e       _GetTickCount@0            10031f8e f   kernel32:KERNEL32.dll
 0001:00030f94       _FreeLibrary@4             10031f94 f   kernel32:KERNEL32.dll
 0001:00030f9a       _GetProcAddress@8          10031f9a f   kernel32:KERNEL32.dll
 0001:00030fa0       _LoadLibraryA@4            10031fa0 f   kernel32:KERNEL32.dll
 0001:00030fa6       _WinExec@8                 10031fa6 f   kernel32:KERNEL32.dll
 0001:00030fac       _GetCurrentDirectoryA@8    10031fac f   kernel32:KERNEL32.dll
 0001:00030fb2       _GetLogicalDriveStringsA@8 10031fb2 f   kernel32:KERNEL32.dll
 0001:00030fb8       _GetCurrentProcessId@0     10031fb8 f   kernel32:KERNEL32.dll
 0001:00030fbe       _GetCursorPos@4            10031fbe f   user32:USER32.dll
 0001:00030fc4       _ShellExecuteA@24          10031fc4 f   shell32:SHELL32.dll
 0001:00030fca       ??_M@YGXPAXIHP6EX0@Z@Z     10031fca f   LIBCMT:ehvecdtr.obj
 0001:00030fcf       ??_M@YGXPAXIIP6EX0@Z@Z     10031fcf f   LIBCMT:ehvecdtr.obj
 0001:00031083       ?__ArrayUnwind@@YGXPAXIIP6EX0@Z@Z 10032083 f   LIBCMT:ehvecdtr.obj
 0001:00031113       ??3@YAXPAXI@Z              10032113 f   LIBCMT:delete_scalar_size.obj
 0001:00031121       ??_V@YAXPAXI@Z             10032121 f   LIBCMT:delete_array_size.obj
 0001:0003112f       @_RTC_AllocaHelper@12      1003212f f   LIBCMT:stack.obj
 0001:00031161       @_RTC_CheckStackVars2@12   10032161 f   LIBCMT:stack.obj
 0001:00031228       @_RTC_CheckStackVars@8     10032228 f   LIBCMT:stack.obj
 0001:0003127c       __RTC_CheckEsp             1003227c f   LIBCMT:stack.obj
 0001:0003129f       @__security_check_cookie@4 1003229f f   LIBCMT:secchk.obj
 0001:000312ad       __CRT_RTC_INIT             100322ad f   LIBCMT:init.obj
 0001:000312b0       __CRT_RTC_INITW            100322b0 f   LIBCMT:init.obj
 0001:000312b3       __RTC_InitBase             100322b3 f   LIBCMT:init.obj
 0001:000312cc       __RTC_Shutdown             100322cc f   LIBCMT:init.obj
 0001:000312cf       ?configure_argv@__scrt_narrow_argv_policy@@SAHXZ 100322cf f i LIBCMT:utility.obj
 0001:00031320       ?initialize_environment@__scrt_narrow_environment_policy@@SAHXZ 10032320 f i LIBCMT:utility.obj
 0001:00031358       _NtCurrentTeb              10032358 f i LIBCMT:utility.obj
 0001:0003135f       ___scrt_acquire_startup_lock 1003235f f   LIBCMT:utility.obj
 0001:00031391       ___scrt_dllmain_after_initialize_c 10032391 f   LIBCMT:utility.obj
 0001:000313bc       ___scrt_dllmain_before_initialize_c 100323bc f   LIBCMT:utility.obj
 0001:000313ca       ___scrt_dllmain_crt_thread_attach 100323ca f   LIBCMT:utility.obj
 0001:000313e9       ___scrt_dllmain_crt_thread_detach 100323e9 f   LIBCMT:utility.obj
 0001:000313f6       ___scrt_dllmain_exception_filter 100323f6 f   LIBCMT:utility.obj
 0001:0003142a       ___scrt_dllmain_uninitialize_c 1003242a f   LIBCMT:utility.obj
 0001:0003144d       ___scrt_dllmain_uninitialize_critical 1003244d f   LIBCMT:utility.obj
 0001:0003145a       ___scrt_initialize_crt     1003245a f   LIBCMT:utility.obj
 0001:00031493       ___scrt_initialize_onexit_tables 10032493 f   LIBCMT:utility.obj
 0001:0003151a       ___scrt_is_nonwritable_in_current_image 1003251a f   LIBCMT:utility.obj
 0001:000315ae       ___scrt_release_startup_lock 100325ae f   LIBCMT:utility.obj
 0001:000315cb       ___scrt_uninitialize_crt   100325cb f   LIBCMT:utility.obj
 0001:000315f3       __onexit                   100325f3 f   LIBCMT:utility.obj
 0001:00031620       _at_quick_exit             10032620 f   LIBCMT:utility.obj
 0001:00031643       _atexit                    10032643 f   LIBCMT:utility.obj
 0001:00031658       ___raise_securityfailure   10032658 f   LIBCMT:gs_report.obj
 0001:00031680       ___report_gsfailure        10032680 f   LIBCMT:gs_report.obj
 0001:0003177a       ___report_rangecheckfailure 1003277a f   LIBCMT:gs_report.obj
 0001:00031786       ___report_securityfailure  10032786 f   LIBCMT:gs_report.obj
 0001:00031855       ___report_securityfailureEx 10032855 f   LIBCMT:gs_report.obj
 0001:00031a2f       __Init_thread_abort        10032a2f f   LIBCMT:thread_safe_statics.obj
 0001:00031a53       __Init_thread_footer       10032a53 f   LIBCMT:thread_safe_statics.obj
 0001:00031a9d       __Init_thread_header       10032a9d f   LIBCMT:thread_safe_statics.obj
 0001:00031aef       __Init_thread_lock         10032aef f   LIBCMT:thread_safe_statics.obj
 0001:00031afb       __Init_thread_notify       10032afb f   LIBCMT:thread_safe_statics.obj
 0001:00031b31       __Init_thread_unlock       10032b31 f   LIBCMT:thread_safe_statics.obj
 0001:00031b3d       __Init_thread_wait         10032b3d f   LIBCMT:thread_safe_statics.obj
 0001:00031b90       __alloca_probe             10032b90 f   LIBCMT:chkstk.obj
 0001:00031b90       __chkstk                   10032b90 f   LIBCMT:chkstk.obj
 0001:00031bbb       ??1type_info@@UAE@XZ       10032bbb f   LIBCMT:std_type_info_static.obj
 0001:00031bc2       ??_Etype_info@@UAEPAXI@Z   10032bc2 f i LIBCMT:std_type_info_static.obj
 0001:00031bc2       ??_Gtype_info@@UAEPAXI@Z   10032bc2 f i LIBCMT:std_type_info_static.obj
 0001:00031c57       ?_RTC_AllocaFailure@@YAXPAXPAU_RTC_ALLOCA_NODE@@H@Z 10032c57 f   LIBCMT:error.obj
 0001:00031d30       ?_RTC_Failure@@YAXPAXH@Z   10032d30 f   LIBCMT:error.obj
 0001:00031d6c       ?_RTC_StackFailure@@YAXPAXPBD@Z 10032d6c f   LIBCMT:error.obj
 0001:00032143       __RTC_UninitUse            10033143 f   LIBCMT:error.obj
 0001:000321e2       __vsprintf_s_l             100331e2 f i LIBCMT:error.obj
 0001:0003220f       _sprintf_s                 1003320f f i LIBCMT:error.obj
 0001:0003222b       ?__scrt_initialize_type_info@@YAXXZ 1003322b f   LIBCMT:tncleanup.obj
 0001:00032237       ?__scrt_uninitialize_type_info@@YAXXZ 10033237 f   LIBCMT:tncleanup.obj
 0001:00032583       __CRT_INIT@12              10033583 f   LIBCMT:dll_dllmain.obj
 0001:0003258c       __DllMainCRTStartup@12     1003358c f   LIBCMT:dll_dllmain.obj
 0001:000325b0       __SEH_prolog4              100335b0 f   LIBCMT:sehprolg4.obj
 0001:00032600       __SEH_epilog4              10033600 f   LIBCMT:sehprolg4.obj
 0001:00032614       @_guard_check_icall_nop@4  10033614 f i LIBCMT:guard_support.obj
 0001:00032617       _ReadNoFence               10033617 f i LIBCMT:guard_support.obj
 0001:00032621       _ReadPointerNoFence        10033621 f i LIBCMT:guard_support.obj
 0001:0003262b       ___castguard_check_failure_debugbreak 1003362b f i LIBCMT:guard_support.obj
 0001:00032646       ___castguard_check_failure_fastfail 10033646 f i LIBCMT:guard_support.obj
 0001:00032665       ___castguard_check_failure_nop 10033665 f i LIBCMT:guard_support.obj
 0001:00032668       ___castguard_check_failure_os_handled 10033668 f i LIBCMT:guard_support.obj
 0001:000326c4       ___castguard_slow_path_check_debugbreak 100336c4 f i LIBCMT:guard_support.obj
 0001:000326f1       ___castguard_slow_path_check_fastfail 100336f1 f i LIBCMT:guard_support.obj
 0001:00032722       ___castguard_slow_path_check_nop 10033722 f i LIBCMT:guard_support.obj
 0001:00032725       ___castguard_slow_path_check_os_handled 10033725 f i LIBCMT:guard_support.obj
 0001:00032780       __guard_icall_checks_enforced 10033780 f i LIBCMT:guard_support.obj
 0001:00032792       ?_RTC_GetErrorFunc@@YAP6AHHPBDH00ZZPBX@Z 10033792 f   LIBCMT:userapi.obj
 0001:00032798       ?_RTC_GetErrorFuncW@@YAP6AHHPB_WH00ZZPBX@Z 10033798 f   LIBCMT:userapi.obj
 0001:0003279e       __RTC_GetErrDesc           1003379e f   LIBCMT:userapi.obj
 0001:000327b6       __RTC_NumErrors            100337b6 f   LIBCMT:userapi.obj
 0001:000327ba       __RTC_SetErrorFunc         100337ba f   LIBCMT:userapi.obj
 0001:000327d4       __RTC_SetErrorFuncW        100337d4 f   LIBCMT:userapi.obj
 0001:000327ee       __RTC_SetErrorType         100337ee f   LIBCMT:userapi.obj
 0001:00032811       ___isa_available_init      10033811 f   LIBCMT:cpu_disp.obj
 0001:000329e5       __get_startup_argv_mode    100339e5 f   LIBCMT:argv_mode.obj
 0001:000329e9       ___scrt_is_ucrt_dll_in_use 100339e9 f   LIBCMT:ucrt_detection.obj
 0001:000329f5       ___scrt_fastfail           100339f5 f   LIBCMT:utility_desktop.obj
 0001:00032b10       ___scrt_get_show_window_mode 10033b10 f   LIBCMT:utility_desktop.obj
 0001:00032b41       ___scrt_initialize_mta     10033b41 f   LIBCMT:utility_desktop.obj
 0001:00032b46       ___scrt_initialize_winrt   10033b46 f   LIBCMT:utility_desktop.obj
 0001:00032b49       ___scrt_is_managed_app     10033b49 f   LIBCMT:utility_desktop.obj
 0001:00032b8b       ___scrt_set_unhandled_exception_filter 10033b8b f   LIBCMT:utility_desktop.obj
 0001:00032b97       ___scrt_exe_initialize_mta 10033b97 f   LIBCMT:utility_desktop.obj
 0001:00032b97       ___scrt_stub_for_initialize_mta 10033b97 f   LIBCMT:utility_desktop.obj
 0001:00032b9a       ___scrt_unhandled_exception_filter@4 10033b9a f   LIBCMT:utility_desktop.obj
 0001:00032bf0       __crt_debugger_hook        10033bf0 f   LIBCMT:utility_desktop.obj
 0001:00032dfc       ?_RTC_GetSrcLine@@YAHPAEPA_WKPAH1K@Z 10033dfc f   LIBCMT:pdblkup.obj
 0001:00033148       __except_handler4_noexcept 10034148 f   LIBCMT:chandler4_noexcept.obj
 0001:000331db       ___security_init_cookie    100341db f   LIBCMT:gs_support.obj
 0001:00033226       ___scrt_initialize_default_local_stdio_options 10034226 f   LIBCMT:default_local_stdio_options.obj
 0001:00033243       ___scrt_get_dyn_tls_init_callback 10034243 f   LIBCMT:dyn_tls_init.obj
 0001:00033249       __RTC_Initialize           10034249 f   LIBCMT:initsect.obj
 0001:00033275       __RTC_Terminate            10034275 f   LIBCMT:initsect.obj
 0001:000332a1       ??$?0AAViterator@TryBlockMap@__FrameHandler3@@AAV012@$0A@@?$pair@Viterator@TryBlockMap@__FrameHandler3@@V123@@std@@QAE@AAViterator@TryBlockMap@__FrameHandler3@@0@Z 100342a1 f i libvcruntime:trnsctrl.obj
 0001:000332c5       ??$forward@AAViterator@TryBlockMap@__FrameHandler3@@@std@@YAAAViterator@TryBlockMap@__FrameHandler3@@AAV123@@Z 100342c5 f i libvcruntime:trnsctrl.obj
 0001:000332cd       ??0iterator@TryBlockMap@__FrameHandler3@@QAE@AAV12@I@Z 100342cd f i libvcruntime:trnsctrl.obj
 0001:000332e1       ?GetRangeOfTrysToCheck@__FrameHandler3@@SA?AU?$pair@Viterator@TryBlockMap@__FrameHandler3@@V123@@std@@AAVTryBlockMap@1@HPAXPBU_s_FuncInfo@@H@Z 100342e1 f   libvcruntime:trnsctrl.obj
 0001:00033351       ?_CallCatchBlock2@@YAPAXPAUEHRegistrationNode@@PBU_s_FuncInfo@@PAXHK@Z 10034351 f   libvcruntime:trnsctrl.obj
 0001:000333ae       ?_CallSETranslator@@YAHPAUEHExceptionRecord@@PAUEHRegistrationNode@@PAX2PBU_s_FuncInfo@@H1@Z 100343ae f   libvcruntime:trnsctrl.obj
 0001:000334a4       ?_JumpToContinuation@@YGXPAXPAUEHRegistrationNode@@@Z 100344a4 f   libvcruntime:trnsctrl.obj
 0001:000334d4       ?_UnwindNestedFrames@@YGXPAUEHRegistrationNode@@PAUEHExceptionRecord@@@Z 100344d4 f   libvcruntime:trnsctrl.obj
 0001:00033527       __CatchGuardHandler        10034527 f   libvcruntime:trnsctrl.obj
 0001:00033558       __CreateFrameInfo          10034558 f   libvcruntime:trnsctrl.obj
 0001:0003357c       __FindAndUnlinkFrame       1003457c f   libvcruntime:trnsctrl.obj
 0001:000335c4       __TranslatorGuardHandler   100345c4 f   libvcruntime:trnsctrl.obj
 0001:00033661       ___CxxFrameHandler         10034661 f   libvcruntime:trnsctrl.obj
 0001:00033697       ___CxxFrameHandler2        10034697 f   libvcruntime:trnsctrl.obj
 0001:000336cd       ___CxxFrameHandler3        100346cd f   libvcruntime:trnsctrl.obj
 0001:00033703       ___CxxLongjmpUnwind@4      10034703 f   libvcruntime:trnsctrl.obj
 0001:00033730       _memcpy                    10034730 f   libvcruntime:memcpy.obj
 0001:00033cb0       _memmove                   10034cb0 f   libvcruntime:memmove.obj
 0001:00034230       _memset                    10035230 f   libvcruntime:memset.obj
 0001:00034390       _strchr                    10035390 f   libvcruntime:strchr.obj
 0001:000343fe       ___from_strstr_to_strchr   100353fe     libvcruntime:strchr.obj
 0001:000344c0       _strstr                    100354c0 f   libvcruntime:strstr.obj
 0001:00034739       ??$?RD@__crt_internal_free_policy@@QBEXQBD@Z 10035739 f i libvcruntime:std_type_info.obj
 0001:00034749       ??$?RX@__crt_internal_free_policy@@QBEXQBX@Z 10035749 f i libvcruntime:std_type_info.obj
 0001:00034759       ??$__crt_interlocked_compare_exchange_pointer@$$CBDPAD$$T@@YAPBDPDSBDQAD$$T@Z 10035759 f i libvcruntime:std_type_info.obj
 0001:0003476b       ??$__crt_interlocked_read_pointer@$$CBD@@YAPBDPDSBD@Z 1003576b f i libvcruntime:std_type_info.obj
 0001:00034776       ??0?$__crt_unique_heap_ptr@DU__crt_internal_free_policy@@@@QAE@QAD@Z 10035776 f i libvcruntime:std_type_info.obj
 0001:00034784       ??0?$__crt_unique_heap_ptr@XU__crt_internal_free_policy@@@@QAE@QAX@Z 10035784 f i libvcruntime:std_type_info.obj
 0001:00034792       ??1?$__crt_unique_heap_ptr@DU__crt_internal_free_policy@@@@QAE@XZ 10035792 f i libvcruntime:std_type_info.obj
 0001:000347a2       ??1?$__crt_unique_heap_ptr@XU__crt_internal_free_policy@@@@QAE@XZ 100357a2 f i libvcruntime:std_type_info.obj
 0001:000347b2       ??B?$__crt_unique_heap_ptr@DU__crt_internal_free_policy@@@@QBE_NXZ 100357b2 f i libvcruntime:std_type_info.obj
 0001:000347b9       ??B?$__crt_unique_heap_ptr@XU__crt_internal_free_policy@@@@QBE_NXZ 100357b9 f i libvcruntime:std_type_info.obj
 0001:000347e0       ?__crt_interlocked_read_32@@YAHPDH@Z 100357e0 f i libvcruntime:std_type_info.obj
 0001:000347eb       ?detach@?$__crt_unique_heap_ptr@XU__crt_internal_free_policy@@@@QAEPAXXZ 100357eb f i libvcruntime:std_type_info.obj
 0001:000347f1       ?get@?$__crt_unique_heap_ptr@DU__crt_internal_free_policy@@@@QBEPADXZ 100357f1 f i libvcruntime:std_type_info.obj
 0001:000347f4       ?get@?$__crt_unique_heap_ptr@XU__crt_internal_free_policy@@@@QBEPAXXZ 100357f4 f i libvcruntime:std_type_info.obj
 0001:000347f7       ?is_valid@?$__crt_unique_heap_ptr@DU__crt_internal_free_policy@@@@QBE_NXZ 100357f7 f i libvcruntime:std_type_info.obj
 0001:000347fe       ?is_valid@?$__crt_unique_heap_ptr@XU__crt_internal_free_policy@@@@QBE_NXZ 100357fe f i libvcruntime:std_type_info.obj
 0001:00034805       ?release@?$__crt_unique_heap_ptr@DU__crt_internal_free_policy@@@@QAEXXZ 10035805 f i libvcruntime:std_type_info.obj
 0001:00034815       ?release@?$__crt_unique_heap_ptr@XU__crt_internal_free_policy@@@@QAEXXZ 10035815 f i libvcruntime:std_type_info.obj
 0001:00034825       ___std_type_info_compare   10035825 f   libvcruntime:std_type_info.obj
 0001:00034861       ___std_type_info_destroy_list 10035861 f   libvcruntime:std_type_info.obj
 0001:00034884       ___std_type_info_hash      10035884 f   libvcruntime:std_type_info.obj
 0001:000348aa       ___std_type_info_name      100358aa f   libvcruntime:std_type_info.obj
 0001:00034970       ___DestructExceptionObject 10035970 f   libvcruntime:ehhelpers.obj
 0001:00034a11       ?_CallMemberFunction0@@YGXQAX0@Z 10035a11 f i libvcruntime:ehhelpers.obj
 0001:00034a76       ?raw_name@type_info@@QBEPBDXZ 10035a76 f i libvcruntime:ehhelpers.obj
 0001:00034a7a       __IsExceptionObjectToBeDestroyed 10035a7a f   libvcruntime:ehhelpers.obj
 0001:00034aa0       __SetWinRTOutOfMemoryExceptionCallback 10035aa0 f   libvcruntime:ehhelpers.obj
 0001:00034aad       ___AdjustPointer           10035aad f   libvcruntime:ehhelpers.obj
 0001:00034ad2       ___FrameUnwindFilter       10035ad2 f   libvcruntime:ehhelpers.obj
 0001:00034b28       ___GetPlatformExceptionInfo 10035b28 f   libvcruntime:ehhelpers.obj
 0001:00034b74       ___current_exception       10035b74 f   libvcruntime:ehhelpers.obj
 0001:00034b7d       ___current_exception_context 10035b7d f   libvcruntime:ehhelpers.obj
 0001:00034b86       ___processing_throw        10035b86 f   libvcruntime:ehhelpers.obj
 0001:00034b8f       ___std_terminate           10035b8f f   libvcruntime:ehhelpers.obj
 0001:00034b94       __is_exception_typeof      10035b94 f   libvcruntime:ehhelpers.obj
 0001:00034c80       __except_handler4          10035c80 f   libvcruntime:chandler4.obj
 0001:00034dde       ___vcrt_initialize         10035dde f   libvcruntime:initialization.obj
 0001:00034dfd       ___vcrt_thread_attach      10035dfd f   libvcruntime:initialization.obj
 0001:00034e08       ___vcrt_thread_detach      10035e08 f   libvcruntime:initialization.obj
 0001:00034e13       ___vcrt_uninitialize       10035e13 f   libvcruntime:initialization.obj
 0001:00034e2a       ___vcrt_uninitialize_critical 10035e2a f   libvcruntime:initialization.obj
 0001:00034e35       ___vcrt_GetModuleFileNameW 10035e35 f   libvcruntime:winapi_thunks.obj
 0001:00034e49       ___vcrt_GetModuleHandleW   10035e49 f   libvcruntime:winapi_thunks.obj
 0001:00034e57       ___vcrt_LoadLibraryExW     10035e57 f   libvcruntime:winapi_thunks.obj
 0001:00034e6b       ??$?RU__vcrt_ptd@@@__crt_internal_free_policy@@QBEXQBU__vcrt_ptd@@@Z 10035e6b f i libvcruntime:per_thread_data.obj
 0001:00034e7b       ??0?$__crt_unique_heap_ptr@U__vcrt_ptd@@U__crt_internal_free_policy@@@@QAE@QAU__vcrt_ptd@@@Z 10035e7b f i libvcruntime:per_thread_data.obj
 0001:00034e98       ??1?$__crt_unique_heap_ptr@U__vcrt_ptd@@U__crt_internal_free_policy@@@@QAE@XZ 10035e98 f i libvcruntime:per_thread_data.obj
 0001:00034eb1       ??B?$__crt_unique_heap_ptr@U__vcrt_ptd@@U__crt_internal_free_policy@@@@QBE_NXZ 10035eb1 f i libvcruntime:per_thread_data.obj
 0001:00034eb8       ?detach@?$__crt_unique_heap_ptr@U__vcrt_ptd@@U__crt_internal_free_policy@@@@QAEPAU__vcrt_ptd@@XZ 10035eb8 f i libvcruntime:per_thread_data.obj
 0001:00034ebe       ?get@?$__crt_unique_heap_ptr@U__vcrt_ptd@@U__crt_internal_free_policy@@@@QBEPAU__vcrt_ptd@@XZ 10035ebe f i libvcruntime:per_thread_data.obj
 0001:00034ec1       ?is_valid@?$__crt_unique_heap_ptr@U__vcrt_ptd@@U__crt_internal_free_policy@@@@QBE_NXZ 10035ec1 f i libvcruntime:per_thread_data.obj
 0001:00034ec8       ?release@?$__crt_unique_heap_ptr@U__vcrt_ptd@@U__crt_internal_free_policy@@@@QAEXXZ 10035ec8 f i libvcruntime:per_thread_data.obj
 0001:00034ef2       ___vcrt_freefls@4          10035ef2 f   libvcruntime:per_thread_data.obj
 0001:00034f0e       ___vcrt_freeptd            10035f0e f   libvcruntime:per_thread_data.obj
 0001:00034f44       ___vcrt_getptd             10035f44 f   libvcruntime:per_thread_data.obj
 0001:00034f52       ___vcrt_getptd_noexit      10035f52 f   libvcruntime:per_thread_data.obj
 0001:00034fe4       ___vcrt_getptd_noinit      10035fe4 f   libvcruntime:per_thread_data.obj
 0001:0003501b       ___vcrt_initialize_ptd     1003601b f   libvcruntime:per_thread_data.obj
 0001:0003504e       ___vcrt_uninitialize_ptd   1003604e f   libvcruntime:per_thread_data.obj
 0001:0003579b       ??$TypeMatchHelper@V__FrameHandler3@@@@YAHPBU_s_HandlerType@@PBU_s_CatchableType@@PBU_s_ThrowInfo@@@Z 1003679b f i libvcruntime:frame.obj
 0001:00035829       ??$__InternalCxxFrameHandler@V__FrameHandler3@@@@YA?AW4_EXCEPTION_DISPOSITION@@PAUEHExceptionRecord@@PAUEHRegistrationNode@@PAU_CONTEXT@@PAXPBU_s_FuncInfo@@H1E@Z 10036829 f i libvcruntime:frame.obj
 0001:0003592b       ??0HandlerMap@__FrameHandler3@@QAE@PBU_s_TryBlockMapEntry@@II@Z 1003692b f i libvcruntime:frame.obj
 0001:00035942       ??0TryBlockMap@__FrameHandler3@@QAE@PBU_s_FuncInfo@@I@Z 10036942 f i libvcruntime:frame.obj
 0001:00035956       ??0bad_exception@std@@QAE@ABV01@@Z 10036956 f i libvcruntime:frame.obj
 0001:00035971       ??0bad_exception@std@@QAE@XZ 10036971 f i libvcruntime:frame.obj
 0001:00035989       ??0exception@std@@QAE@ABV01@@Z 10036989 f i libvcruntime:frame.obj
 0001:000359b5       ??0exception@std@@QAE@QBDH@Z 100369b5 f i libvcruntime:frame.obj
 0001:000359d2       ??0iterator@HandlerMap@__FrameHandler3@@QAE@AAV12@I@Z 100369d2 f i libvcruntime:frame.obj
 0001:000359e6       ??1bad_exception@std@@UAE@XZ 100369e6 f i libvcruntime:frame.obj
 0001:000359f7       ??1exception@std@@UAE@XZ   100369f7 f i libvcruntime:frame.obj
 0001:00035a08       ??8iterator@HandlerMap@__FrameHandler3@@QBE_NABV012@@Z 10036a08 f i libvcruntime:frame.obj
 0001:00035a1b       ??8type_info@@QBE_NABV0@@Z 10036a1b f i libvcruntime:frame.obj
 0001:00035a3a       ??9iterator@HandlerMap@__FrameHandler3@@QBE_NABV012@@Z 10036a3a f i libvcruntime:frame.obj
 0001:00035a4d       ??Diterator@HandlerMap@__FrameHandler3@@QAE?BU_s_HandlerType@@XZ 10036a4d f i libvcruntime:frame.obj
 0001:00035a6c       ??Diterator@TryBlockMap@__FrameHandler3@@QAE?BU_s_TryBlockMapEntry@@XZ 10036a6c f i libvcruntime:frame.obj
 0001:00035a8e       ??Eiterator@HandlerMap@__FrameHandler3@@QAEAAV012@XZ 10036a8e f i libvcruntime:frame.obj
 0001:00035a94       ??Eiterator@TryBlockMap@__FrameHandler3@@QAEAAV012@XZ 10036a94 f i libvcruntime:frame.obj
 0001:00035a9a       ??Miterator@TryBlockMap@__FrameHandler3@@QBE_NABV012@@Z 10036a9a f i libvcruntime:frame.obj
 0001:00035aad       ??_Ebad_exception@std@@UAEPAXI@Z 10036aad f i libvcruntime:frame.obj
 0001:00035aad       ??_Gbad_exception@std@@UAEPAXI@Z 10036aad f i libvcruntime:frame.obj
 0001:00035ada       ??_Eexception@std@@UAEPAXI@Z 10036ada f i libvcruntime:frame.obj
 0001:00035ada       ??_Gexception@std@@UAEPAXI@Z 10036ada f i libvcruntime:frame.obj
 0001:00035b07       ?BuildCatchObject@__FrameHandler3@@SAXPAUEHExceptionRecord@@PAXPBU_s_HandlerType@@PBU_s_CatchableType@@@Z 10036b07 f   libvcruntime:frame.obj
 0001:00035b0c       ?BuildCatchObjectHelper@__FrameHandler3@@SAHPAUEHExceptionRecord@@PAXPBU_s_HandlerType@@PBU_s_CatchableType@@@Z 10036b0c f   libvcruntime:frame.obj
 0001:00035d6d       ?FrameUnwindToEmptyState@__FrameHandler3@@SAXPAUEHRegistrationNode@@PAXPBU_s_FuncInfo@@@Z 10036d6d f   libvcruntime:frame.obj
 0001:00035d85       ?FrameUnwindToState@__FrameHandler3@@SAXPAUEHRegistrationNode@@PAXPBU_s_FuncInfo@@H@Z 10036d85 f   libvcruntime:frame.obj
 0001:00035e6d       ?GetMaxState@__FrameHandler3@@SAHPAXPBU_s_FuncInfo@@@Z 10036e6d f i libvcruntime:frame.obj
 0001:00035f4b       ?TypeMatch@__FrameHandler3@@SAHPBU_s_HandlerType@@PBU_s_CatchableType@@PBU_s_ThrowInfo@@@Z 10036f4b f   libvcruntime:frame.obj
 0001:00035f54       ?_CallMemberFunction1@@YGXQAX00@Z 10036f54 f i libvcruntime:frame.obj
 0001:00035f64       ?_CallMemberFunction2@@YGXQAX00H@Z 10036f64 f i libvcruntime:frame.obj
 0001:00035f77       ?begin@HandlerMap@__FrameHandler3@@QAE?AViterator@12@XZ 10036f77 f i libvcruntime:frame.obj
 0001:00035f87       ?end@HandlerMap@__FrameHandler3@@QAE?AViterator@12@XZ 10036f87 f i libvcruntime:frame.obj
 0001:00035f98       ?getESTypes@__FrameHandler3@@SAPBU_s_ESTypeList@@PBU_s_FuncInfo@@@Z 10036f98 f i libvcruntime:frame.obj
 0001:00035fa3       ?getLastEntry@HandlerMap@__FrameHandler3@@QAEPBU_s_HandlerType@@XZ 10036fa3 f i libvcruntime:frame.obj
 0001:00035fb1       ?getMagicNum@__FrameHandler3@@SAIPBU_s_FuncInfo@@@Z 10036fb1 f i libvcruntime:frame.obj
 0001:00035fc0       ?getNumTryBlocks@TryBlockMap@__FrameHandler3@@QAEIXZ 10036fc0 f i libvcruntime:frame.obj
 0001:00035fc6       ?isEHs@__FrameHandler3@@SA_NPBU_s_FuncInfo@@@Z 10036fc6 f i libvcruntime:frame.obj
 0001:00035fd3       ?isNoExcept@__FrameHandler3@@SA_NPBU_s_FuncInfo@@@Z 10036fd3 f i libvcruntime:frame.obj
 0001:00035fe3       ?what@exception@std@@UBEPBDXZ 10036fe3 f i libvcruntime:frame.obj
 0001:00035ff0       ___BuildCatchObject        10036ff0 f   libvcruntime:frame.obj
 0001:00035ff5       ___BuildCatchObjectHelper  10036ff5 f   libvcruntime:frame.obj
 0001:00035ffe       ___TypeMatch               10036ffe f   libvcruntime:frame.obj
 0001:00036007       ___vcrt_EncodePointer      10037007 f i libvcruntime:frame.obj
 0001:00036020       __CallSettingFrame@12      10037020 f   libvcruntime:lowhelpr.obj
 0001:00036047       __NLG_Return               10037047     libvcruntime:lowhelpr.obj
 0001:00036077       ___except_validate_context_record 10037077 f   libvcruntime:jbcxrval.obj
 0001:000360a7       ___except_validate_jump_buffer 100370a7 f   libvcruntime:jbcxrval.obj
 0001:000360d4       ___except_validate_jump_buffer_common 100370d4 f i libvcruntime:jbcxrval.obj
 0001:0003610d       ??$?0$00@DName@@QAE@PBDU?$StringLifeSelector@$00@@@Z 1003710d f i libvcruntime:undname.obj
 0001:00036140       ??$?0$00@pcharNode@@QAE@PBDHU?$StringLifeSelector@$00@@@Z 10037140 f i libvcruntime:undname.obj
 0001:0003615b       ??$?0$01@DName@@QAE@PBDU?$StringLifeSelector@$01@@@Z 1003715b f i libvcruntime:undname.obj
 0001:0003618e       ??$?0$01@pcharNode@@QAE@PBDHU?$StringLifeSelector@$01@@@Z 1003718e f i libvcruntime:undname.obj
 0001:000361ce       ??$?0$0A@@DName@@QAE@PBDU?$StringLifeSelector@$0A@@@@Z 100371ce f i libvcruntime:undname.obj
 0001:00036201       ??$?0$0A@@pcharNode@@QAE@PBDHU?$StringLifeSelector@$0A@@@@Z 10037201 f i libvcruntime:undname.obj
 0001:00036241       ??$?0_K$0A@@?$optional@_K@std@@QAE@$$QA_K@Z 10037241 f i libvcruntime:undname.obj
 0001:0003625b       ??$?0_K@?$_Optional_construct_base@_K@std@@QAE@Uin_place_t@1@$$QA_K@Z 1003725b f i libvcruntime:undname.obj
 0001:00036275       ??$?0_K@?$_Optional_destruct_base@_K$00@std@@QAE@Uin_place_t@1@$$QA_K@Z 10037275 f i libvcruntime:undname.obj
 0001:0003628f       ??$append@VDNameNode@@@DName@@AAEXPBVDNameNode@@@Z 1003728f f i libvcruntime:undname.obj
 0001:000362d0       ??$append@VDNameStatusNode@@@DName@@AAEXPBVDNameStatusNode@@@Z 100372d0 f i libvcruntime:undname.obj
 0001:00036311       ??$append@VcharNode@@@DName@@AAEXPBVcharNode@@@Z 10037311 f i libvcruntime:undname.obj
 0001:00036352       ??$append@VpDNameNode@@@DName@@AAEXPBVpDNameNode@@@Z 10037352 f i libvcruntime:undname.obj
 0001:00036393       ??$append@VpcharNode@@@DName@@AAEXPBVpcharNode@@@Z 10037393 f i libvcruntime:undname.obj
 0001:000363d4       ??$doPchar@$00@DName@@AAEXPBDH@Z 100373d4 f i libvcruntime:undname.obj
 0001:0003643f       ??$doPchar@$01@DName@@AAEXPBDH@Z 1003743f f i libvcruntime:undname.obj
 0001:000364b0       ??$doPchar@$0A@@DName@@AAEXPBDH@Z 100374b0 f i libvcruntime:undname.obj
 0001:00036521       ??$forward@_K@std@@YA$$QA_KAA_K@Z 10037521 f i libvcruntime:undname.obj
 0001:000365e5       ??$size@D$04@std@@YAIAAY04$$CBD@Z 100375e5 f i libvcruntime:undname.obj
 0001:000365e9       ??0?$_Optional_construct_base@_K@std@@QAE@XZ 100375e9 f i libvcruntime:undname.obj
 0001:000365f0       ??0?$_Optional_destruct_base@_K$00@std@@QAE@XZ 100375f0 f i libvcruntime:undname.obj
 0001:000365f7       ??0?$optional@_K@std@@QAE@XZ 100375f7 f i libvcruntime:undname.obj
 0001:000365fe       ??0Block@_HeapManager@@QAE@XZ 100375fe f i libvcruntime:undname.obj
 0001:00036604       ??0DName@@QAE@AAPBDD@Z     10037604 f   libvcruntime:undname.obj
 0001:00036684       ??0DName@@QAE@ABUStringLiteral@@@Z 10037684 f   libvcruntime:undname.obj
 0001:000366ab       ??0DName@@QAE@ABV0@@Z      100376ab f i libvcruntime:undname.obj
 0001:000366c1       ??0DName@@QAE@D@Z          100376c1 f   libvcruntime:undname.obj
 0001:000366dd       ??0DName@@QAE@PAV0@@Z      100376dd f   libvcruntime:undname.obj
 0001:00036726       ??0DName@@QAE@W4DNameStatus@@@Z 10037726 f   libvcruntime:undname.obj
 0001:00036766       ??0DName@@QAE@XZ           10037766 f i libvcruntime:undname.obj
 0001:00036770       ??0DName@@QAE@_J@Z         10037770 f   libvcruntime:undname.obj
 0001:00036803       ??0DName@@QAE@_K@Z         10037803 f   libvcruntime:undname.obj
 0001:00036875       ??0DNameNode@@IAE@XZ       10037875 f i libvcruntime:undname.obj
 0001:0003687e       ??0Replicator@@QAE@XZ      1003787e f i libvcruntime:undname.obj
 0001:0003688d       ??0UnDecorator@@QAE@PBDP6APADJ@ZK@Z 1003788d f i libvcruntime:undname.obj
 0001:000368d9       ??0_Nontrivial_dummy_type@std@@QAE@XZ 100378d9 f i libvcruntime:undname.obj
 0001:000368dc       ??0charNode@@QAE@D@Z       100378dc f i libvcruntime:undname.obj
 0001:000368f1       ??0pDNameNode@@QAE@PAVDName@@@Z 100378f1 f   libvcruntime:undname.obj
 0001:00036919       ??0pairNode@@QAE@PBVDNameNode@@0@Z 10037919 f i libvcruntime:undname.obj
 0001:0003693f       ??2@YAPAXIAAV_HeapManager@@H@Z 1003793f f   libvcruntime:undname.obj
 0001:0003695e       ??4DName@@QAEAAV0@ABUStringLiteral@@@Z 1003795e f   libvcruntime:undname.obj
 0001:0003697f       ??4DName@@QAEAAV0@ABV0@@Z  1003797f f   libvcruntime:undname.obj
 0001:00036995       ??4DName@@QAEAAV0@D@Z      10037995 f i libvcruntime:undname.obj
 0001:000369b1       ??4DName@@QAEAAV0@PAV0@@Z  100379b1 f   libvcruntime:undname.obj
 0001:000369f4       ??4DName@@QAEAAV0@W4DNameStatus@@@Z 100379f4 f   libvcruntime:undname.obj
 0001:00036a26       ??AReplicator@@QBE?AVDName@@H@Z 10037a26 f   libvcruntime:undname.obj
 0001:00036a62       ??B?$optional@_K@std@@QBE_NXZ 10037a62 f i libvcruntime:undname.obj
 0001:00036a66       ??D?$_Optional_construct_base@_K@std@@QGAEAA_KXZ 10037a66 f i libvcruntime:undname.obj
 0001:00036a69       ??H@YA?AVDName@@ABUStringLiteral@@ABV0@@Z 10037a69 f i libvcruntime:undname.obj
 0001:00036a8b       ??H@YA?AVDName@@DABV0@@Z   10037a8b f i libvcruntime:undname.obj
 0001:00036ab6       ??H@YA?AVDName@@W4DNameStatus@@ABV0@@Z 10037ab6 f i libvcruntime:undname.obj
 0001:00036ad8       ??HDName@@QBE?AV0@ABUStringLiteral@@@Z 10037ad8 f   libvcruntime:undname.obj
 0001:00036afa       ??HDName@@QBE?AV0@ABV0@@Z  10037afa f   libvcruntime:undname.obj
 0001:00036b1c       ??HDName@@QBE?AV0@D@Z      10037b1c f   libvcruntime:undname.obj
 0001:00036b3e       ??HDName@@QBE?AV0@PAV0@@Z  10037b3e f   libvcruntime:undname.obj
 0001:00036b60       ??HDName@@QBE?AV0@W4DNameStatus@@@Z 10037b60 f   libvcruntime:undname.obj
 0001:00036b82       ??HStringLiteral@@QBE?AU0@H@Z 10037b82 f i libvcruntime:undname.obj
 0001:00036b9c       ??YDName@@QAEAAV0@ABUStringLiteral@@@Z 10037b9c f   libvcruntime:undname.obj
 0001:00036bf4       ??YDName@@QAEAAV0@ABV0@@Z  10037bf4 f   libvcruntime:undname.obj
 0001:00036c4b       ??YDName@@QAEAAV0@D@Z      10037c4b f   libvcruntime:undname.obj
 0001:00036ca0       ??YDName@@QAEAAV0@PAV0@@Z  10037ca0 f   libvcruntime:undname.obj
 0001:00036d04       ??YDName@@QAEAAV0@W4DNameStatus@@@Z 10037d04 f   libvcruntime:undname.obj
 0001:00036d44       ??YReplicator@@QAEAAV0@ABVDName@@@Z 10037d44 f   libvcruntime:undname.obj
 0001:00036d84       ??_5DName@@QAEAAV0@ABV0@@Z 10037d84 f   libvcruntime:undname.obj
 0001:00036da0       ??__K_l@@YA?AUStringLiteral@@PBDI@Z 10037da0 f i libvcruntime:undname.obj
 0001:00036dab       ?Constructor@_HeapManager@@QAEXP6APAXI@ZP6AXPAX@Z@Z 10037dab f i libvcruntime:undname.obj
 0001:00036dc8       ?Destructor@_HeapManager@@QAEXXZ 10037dc8 f i libvcruntime:undname.obj
 0001:00036e0c       ?UScore@UnDecorator@@SA?AUStringLiteral@@W4Tokens@@@Z 10037e0c f   libvcruntime:undname.obj
 0001:00036e33       ?composeDeclaration@UnDecorator@@CA?AVDName@@ABV2@@Z 10037e33 f i libvcruntime:undname.obj
 0001:00037b2b       ?doAccessSpecifiers@UnDecorator@@SAHXZ 10038b2b f i libvcruntime:undname.obj
 0001:00037b39       ?doAllocationLanguage@UnDecorator@@SAHXZ 10038b39 f i libvcruntime:undname.obj
 0001:00037b47       ?doAllocationModel@UnDecorator@@SAHXZ 10038b47 f i libvcruntime:undname.obj
 0001:00037b55       ?doEcsu@UnDecorator@@SAHXZ 10038b55 f i libvcruntime:undname.obj
 0001:00037b63       ?doEllipsis@UnDecorator@@SAHXZ 10038b63 f i libvcruntime:undname.obj
 0001:00037b71       ?doFunctionReturns@UnDecorator@@SAHXZ 10038b71 f i libvcruntime:undname.obj
 0001:00037b7f       ?doMSKeywords@UnDecorator@@SAHXZ 10038b7f f i libvcruntime:undname.obj
 0001:00037b8c       ?doMemberTypes@UnDecorator@@SAHXZ 10038b8c f i libvcruntime:undname.obj
 0001:00037b9a       ?doNameOnly@UnDecorator@@SAHXZ 10038b9a f i libvcruntime:undname.obj
 0001:00037ba5       ?doNoIdentCharCheck@UnDecorator@@SAHXZ 10038ba5 f i libvcruntime:undname.obj
 0001:00037bb0       ?doPchar@DName@@AAEXD@Z    10038bb0 f   libvcruntime:undname.obj
 0001:00037be8       ?doPtr64@UnDecorator@@SAHXZ 10038be8 f i libvcruntime:undname.obj
 0001:00037bf6       ?doRestrictionSpec@UnDecorator@@SAHXZ 10038bf6 f i libvcruntime:undname.obj
 0001:00037c04       ?doThisTypes@UnDecorator@@SAHXZ 10038c04 f i libvcruntime:undname.obj
 0001:00037c16       ?doThrowTypes@UnDecorator@@SAHXZ 10038c16 f i libvcruntime:undname.obj
 0001:00037c24       ?doTypeOnly@UnDecorator@@SAHXZ 10038c24 f i libvcruntime:undname.obj
 0001:00037c2f       ?doUnderScore@UnDecorator@@SAHXZ 10038c2f f i libvcruntime:undname.obj
 0001:00037c3a       ?getAddressOf@UnDecorator@@CA?AVDName@@XZ 10038c3a f   libvcruntime:undname.obj
 0001:00037ca2       ?getArgumentList@UnDecorator@@CA?AVDName@@XZ 10038ca2 f   libvcruntime:undname.obj
 0001:00037e0c       ?getArgumentTypes@UnDecorator@@CA?AVDName@@XZ 10038e0c f   libvcruntime:undname.obj
 0001:00037f14       ?getArrayAccess@UnDecorator@@CA?AVDName@@XZ 10038f14 f   libvcruntime:undname.obj
 0001:00037f88       ?getArrayObject@UnDecorator@@CA?AVDName@@XZ 10038f88 f   libvcruntime:undname.obj
 0001:00038013       ?getArrayType@UnDecorator@@CA?AVDName@@ABV2@@Z 10039013 f i libvcruntime:undname.obj
 0001:000381b0       ?getBasedType@UnDecorator@@CA?AVDName@@XZ 100391b0 f   libvcruntime:undname.obj
 0001:00038266       ?getBasicDataType@UnDecorator@@CA?AVDName@@ABV2@@Z 10039266 f   libvcruntime:undname.obj
 0001:000387ce       ?getCHPEName@UnDecorator@@QAEPADPADH@Z 100397ce f i libvcruntime:undname.obj
 0001:000388ab       ?getCallIndex@UnDecorator@@CA?AVDName@@XZ 100398ab f i libvcruntime:undname.obj
 0001:000388bf       ?getCallingConvention@UnDecorator@@CA?AVDName@@XZ 100398bf f   libvcruntime:undname.obj
 0001:00038994       ?getDataIndirectType@UnDecorator@@CA?AVDName@@ABV2@W4IndirectionKind@@0H@Z 10039994 f   libvcruntime:undname.obj
 0001:00039131       ?getDataIndirectType@UnDecorator@@CA?AVDName@@XZ 1003a131 f i libvcruntime:undname.obj
 0001:0003915f       ?getDataType@UnDecorator@@CA?AVDName@@PAV2@@Z 1003a15f f   libvcruntime:undname.obj
 0001:00039236       ?getDecoratedName@UnDecorator@@CA?AVDName@@XZ 1003a236 f   libvcruntime:undname.obj
 0001:0003948a       ?getDimension@UnDecorator@@CA?AVDName@@_N@Z 1003a48a f   libvcruntime:undname.obj
 0001:00039598       ?getDispatchTarget@UnDecorator@@CA?AVDName@@XZ 1003a598 f   libvcruntime:undname.obj
 0001:000395eb       ?getDisplacement@UnDecorator@@CA?AVDName@@XZ 1003a5eb f i libvcruntime:undname.obj
 0001:000395ff       ?getECSUDataType@UnDecorator@@CA?AVDName@@XZ 1003a5ff f   libvcruntime:undname.obj
 0001:00039791       ?getECSUName@UnDecorator@@CA?AVDName@@XZ 1003a791 f i libvcruntime:undname.obj
 0001:000397a2       ?getEnumType@UnDecorator@@CA?AVDName@@XZ 1003a7a2 f i libvcruntime:undname.obj
 0001:000398b6       ?getExtendedDataIndirectType@UnDecorator@@CA?AVDName@@AAW4IndirectionKind@@AA_NH@Z 1003a8b6 f   libvcruntime:undname.obj
 0001:00039a61       ?getExternalDataType@UnDecorator@@CA?AVDName@@ABV2@@Z 1003aa61 f i libvcruntime:undname.obj
 0001:00039ac6       ?getFloatingPoint@UnDecorator@@CA?AVDName@@H@Z 1003aac6 f   libvcruntime:undname.obj
 0001:00039b84       ?getFunctionIndirectType@UnDecorator@@CA?AVDName@@ABV2@@Z 1003ab84 f   libvcruntime:undname.obj
 0001:00039f2e       ?getGuardNumber@UnDecorator@@CA?AVDName@@XZ 1003af2e f i libvcruntime:undname.obj
 0001:00039f42       ?getLastChar@DName@@QBEDXZ 1003af42 f i libvcruntime:undname.obj
 0001:00039f62       ?getLastChar@DNameStatusNode@@UBEDXZ 1003af62 f i libvcruntime:undname.obj
 0001:00039f6e       ?getLastChar@charNode@@UBEDXZ 1003af6e f i libvcruntime:undname.obj
 0001:00039f72       ?getLastChar@pDNameNode@@UBEDXZ 1003af72 f i libvcruntime:undname.obj
 0001:00039f80       ?getLastChar@pairNode@@UBEDXZ 1003af80 f i libvcruntime:undname.obj
 0001:00039fb5       ?getLastChar@pcharNode@@UBEDXZ 1003afb5 f i libvcruntime:undname.obj
 0001:00039fc7       ?getLexicalFrame@UnDecorator@@CA?AVDName@@XZ 1003afc7 f i libvcruntime:undname.obj
 0001:00039ff8       ?getMemberAccess@UnDecorator@@CA?AVDName@@XZ 1003aff8 f   libvcruntime:undname.obj
 0001:0003a068       ?getMemoryWithBuffer@_HeapManager@@QAEPAXI@Z 1003b068 f   libvcruntime:undname.obj
 0001:0003a0d2       ?getMemoryWithoutBuffer@_HeapManager@@QAEPAXI@Z 1003b0d2 f   libvcruntime:undname.obj
 0001:0003a0f2       ?getNoexcept@UnDecorator@@CA?AVDName@@XZ 1003b0f2 f   libvcruntime:undname.obj
 0001:0003a146       ?getNumberOfDimensions@UnDecorator@@CAHXZ 1003b146 f   libvcruntime:undname.obj
 0001:0003a1a8       ?getOperatorName@UnDecorator@@CA?AVDName@@_NPA_N@Z 1003b1a8 f i libvcruntime:undname.obj
 0001:0003aabe       ?getPointerToMember@UnDecorator@@CA?AVDName@@XZ 1003babe f   libvcruntime:undname.obj
 0001:0003ab7a       ?getPointerType@UnDecorator@@CA?AVDName@@ABV2@0@Z 1003bb7a f i libvcruntime:undname.obj
 0001:0003ab95       ?getPointerTypeArray@UnDecorator@@CA?AVDName@@ABV2@0@Z 1003bb95 f i libvcruntime:undname.obj
 0001:0003abb0       ?getPrimaryDataType@UnDecorator@@CA?AVDName@@ABV2@@Z 1003bbb0 f   libvcruntime:undname.obj
 0001:0003adfe       ?getPtrRefDataType@UnDecorator@@CA?AVDName@@ABV2@H@Z 1003bdfe f   libvcruntime:undname.obj
 0001:0003af6b       ?getPtrRefType@UnDecorator@@CA?AVDName@@ABV2@0W4IndirectionKind@@@Z 1003bf6b f   libvcruntime:undname.obj
 0001:0003b07c       ?getReferenceType@UnDecorator@@CA?AVDName@@ABV2@0W4IndirectionKind@@@Z 1003c07c f i libvcruntime:undname.obj
 0001:0003b098       ?getRestrictionSpec@UnDecorator@@CA?AVDName@@XZ 1003c098 f   libvcruntime:undname.obj
 0001:0003b1bd       ?getReturnType@UnDecorator@@CA?AVDName@@PAV2@@Z 1003c1bd f   libvcruntime:undname.obj
 0001:0003b1ec       ?getScope@UnDecorator@@CA?AVDName@@XZ 1003c1ec f   libvcruntime:undname.obj
 0001:0003b5aa       ?getScopedName@UnDecorator@@CA?AVDName@@XZ 1003c5aa f   libvcruntime:undname.obj
 0001:0003b69d       ?getSignedDimension@UnDecorator@@CA?AVDName@@XZ 1003c69d f   libvcruntime:undname.obj
 0001:0003b6ee       ?getStorageConvention@UnDecorator@@CA?AVDName@@XZ 1003c6ee f i libvcruntime:undname.obj
 0001:0003b6ff       ?getString@DName@@QBEPADPAD0@Z 1003c6ff f i libvcruntime:undname.obj
 0001:0003b72c       ?getString@DName@@QBEPADPADH@Z 1003c72c f i libvcruntime:undname.obj
 0001:0003b781       ?getString@DNameStatusNode@@UBEPADPAD0@Z 1003c781 f i libvcruntime:undname.obj
 0001:0003b7c8       ?getString@charNode@@UBEPADPAD0@Z 1003c7c8 f i libvcruntime:undname.obj
 0001:0003b7dd       ?getString@pDNameNode@@UBEPADPAD0@Z 1003c7dd f i libvcruntime:undname.obj
 0001:0003b7f4       ?getString@pairNode@@UBEPADPAD0@Z 1003c7f4 f i libvcruntime:undname.obj
 0001:0003b83a       ?getString@pcharNode@@UBEPADPAD0@Z 1003c83a f i libvcruntime:undname.obj
 0001:0003b855       ?getStringEncoding@UnDecorator@@CA?AVDName@@W4PrefixKind@@H@Z 1003c855 f   libvcruntime:undname.obj
 0001:0003b8f2       ?getStringHelper@@YAPADPADPBD1H@Z 1003c8f2 f i libvcruntime:undname.obj
 0001:0003b91c       ?getStringObject@UnDecorator@@CA?AVDName@@XZ 1003c91c f   libvcruntime:undname.obj
 0001:0003b967       ?getSymbolName@UnDecorator@@CA?AVDName@@XZ 1003c967 f i libvcruntime:undname.obj
 0001:0003b9af       ?getTemplateArgumentList@UnDecorator@@CA?AVDName@@XZ 1003c9af f   libvcruntime:undname.obj
 0001:0003bb5f       ?getTemplateName@UnDecorator@@CA?AVDName@@_N@Z 1003cb5f f   libvcruntime:undname.obj
 0001:0003bcbf       ?getTemplateNonTypeArgument@UnDecorator@@CA?AVDName@@XZ 1003ccbf f   libvcruntime:undname.obj
 0001:0003c097       ?getTemplateTypeArgument@UnDecorator@@CA?AVDName@@XZ 1003d097 f   libvcruntime:undname.obj
 0001:0003c1a8       ?getThisType@UnDecorator@@CA?AVDName@@XZ 1003d1a8 f i libvcruntime:undname.obj
 0001:0003c1d7       ?getThrowTypes@UnDecorator@@CA?AVDName@@XZ 1003d1d7 f   libvcruntime:undname.obj
 0001:0003c1fa       ?getTypeEncoding@UnDecorator@@CAHXZ 1003d1fa f i libvcruntime:undname.obj
 0001:0003c532       ?getUndecoratedName@UnDecorator@@QAEPADPADH@Z 1003d532 f i libvcruntime:undname.obj
 0001:0003c651       ?getUnionObject@UnDecorator@@CA?AVDName@@XZ 1003d651 f   libvcruntime:undname.obj
 0001:0003c6f8       ?getVCallThunkType@UnDecorator@@CA?AVDName@@XZ 1003d6f8 f i libvcruntime:undname.obj
 0001:0003c742       ?getValue@UnDecorator@@CA?AV?$optional@_K@std@@XZ 1003d742 f   libvcruntime:undname.obj
 0001:0003c7ca       ?getValueObject@UnDecorator@@CA?AVDName@@XZ 1003d7ca f   libvcruntime:undname.obj
 0001:0003c8c4       ?getVbTableType@UnDecorator@@CA?AVDName@@ABV2@@Z 1003d8c4 f i libvcruntime:undname.obj
 0001:0003c8d9       ?getVdispMapType@UnDecorator@@CA?AVDName@@ABV2@@Z 1003d8d9 f i libvcruntime:undname.obj
 0001:0003c93a       ?getVfTableType@UnDecorator@@CA?AVDName@@ABV2@@Z 1003d93a f i libvcruntime:undname.obj
 0001:0003ca8e       ?getZName@UnDecorator@@CA?AVDName@@_N0@Z 1003da8e f   libvcruntime:undname.obj
 0001:0003ccac       ?haveTemplateParameters@UnDecorator@@SAHXZ 1003dcac f i libvcruntime:undname.obj
 0001:0003ccb7       ?isArray@DName@@QBEHXZ     1003dcb7 f i libvcruntime:undname.obj
 0001:0003ccc1       ?isComArray@DName@@QBEHXZ  1003dcc1 f i libvcruntime:undname.obj
 0001:0003cccb       ?isEmpty@DName@@QBEHXZ     1003dccb f i libvcruntime:undname.obj
 0001:0003ccd3       ?isFull@Replicator@@QBEHXZ 1003dcd3 f i libvcruntime:undname.obj
 0001:0003ccdc       ?isNoTE@DName@@QBEHXZ      1003dcdc f i libvcruntime:undname.obj
 0001:0003cce6       ?isPinPtr@DName@@QBEHXZ    1003dce6 f i libvcruntime:undname.obj
 0001:0003ccf0       ?isPtrRef@DName@@QBEHXZ    1003dcf0 f i libvcruntime:undname.obj
 0001:0003ccfa       ?isUDC@DName@@QBEHXZ       1003dcfa f i libvcruntime:undname.obj
 0001:0003cd0b       ?isUDTThunk@DName@@QBEHXZ  1003dd0b f i libvcruntime:undname.obj
 0001:0003cd1c       ?isVCallThunk@DName@@QBEHXZ 1003dd1c f i libvcruntime:undname.obj
 0001:0003cd26       ?isValid@DName@@QBEHXZ     1003dd26 f i libvcruntime:undname.obj
 0001:0003cd30       ?length@DName@@QBEHXZ      1003dd30 f i libvcruntime:undname.obj
 0001:0003cd4f       ?length@DNameStatusNode@@UBEHXZ 1003dd4f f i libvcruntime:undname.obj
 0001:0003cd53       ?length@charNode@@UBEHXZ   1003dd53 f i libvcruntime:undname.obj
 0001:0003cd57       ?length@pDNameNode@@UBEHXZ 1003dd57 f i libvcruntime:undname.obj
 0001:0003cd65       ?length@pairNode@@UBEHXZ   1003dd65 f i libvcruntime:undname.obj
 0001:0003cdae       ?length@pcharNode@@UBEHXZ  1003ddae f i libvcruntime:undname.obj
 0001:0003cdb2       ?make@DNameStatusNode@@SAPBV1@W4DNameStatus@@@Z 1003ddb2 f i libvcruntime:undname.obj
 0001:0003cdce       ?parseDecoratedName@UnDecorator@@CA?AVDName@@XZ 1003ddce f   libvcruntime:undname.obj
 0001:0003cec8       ?raw_length@DNameStatusNode@@UBEHXZ 1003dec8 f i libvcruntime:undname.obj
 0001:0003cecc       ?raw_length@charNode@@UBEHXZ 1003decc f i libvcruntime:undname.obj
 0001:0003ced0       ?raw_length@pDNameNode@@UBEHXZ 1003ded0 f i libvcruntime:undname.obj
 0001:0003ced4       ?raw_length@pairNode@@UBEHXZ 1003ded4 f i libvcruntime:undname.obj
 0001:0003ced8       ?raw_length@pcharNode@@UBEHXZ 1003ded8 f i libvcruntime:undname.obj
 0001:0003cedc       ?setIsArray@DName@@QAEXXZ  1003dedc f i libvcruntime:undname.obj
 0001:0003cee4       ?setIsComArray@DName@@QAEXXZ 1003dee4 f i libvcruntime:undname.obj
 0001:0003ceec       ?setIsNoTE@DName@@QAEXXZ   1003deec f i libvcruntime:undname.obj
 0001:0003cef4       ?setIsPinPtr@DName@@QAEXXZ 1003def4 f i libvcruntime:undname.obj
 0001:0003cefc       ?setIsUDC@DName@@QAEXXZ    1003defc f i libvcruntime:undname.obj
 0001:0003cf09       ?setIsVCallThunk@DName@@QAEXXZ 1003df09 f i libvcruntime:undname.obj
 0001:0003cf11       ?setPtrRef@DName@@QAEAAV1@XZ 1003df11 f i libvcruntime:undname.obj
 0001:0003cf1b       ?status@DName@@QBE?AW4DNameStatus@@XZ 1003df1b f i libvcruntime:undname.obj
 0001:0003cf87       ___unDName                 1003df87 f   libvcruntime:undname.obj
 0001:0003cfaa       ___unDNameEx               1003dfaa f   libvcruntime:undname.obj
 0001:0003d049       _snprintf                  1003e049 f i libvcruntime:undname.obj
 0001:0003d063       _unDNameGenerateCHPE       1003e063 f   libvcruntime:undname.obj
 0001:0003d100       _vsnprintf                 1003e100 f i libvcruntime:undname.obj
 0001:0003d130       __local_unwind4            1003e130 f   libvcruntime:exsup4.obj
 0001:0003d220       __seh_longjmp_unwind4@4    1003e220 f   libvcruntime:exsup4.obj
 0001:0003d250       @_EH4_CallFilterFunc@8     1003e250 f   libvcruntime:exsup4.obj
 0001:0003d270       @_EH4_TransferToHandler@8  1003e270 f   libvcruntime:exsup4.obj
 0001:0003d290       @_EH4_GlobalUnwind2@8      1003e290 f   libvcruntime:exsup4.obj
 0001:0003d2b0       @_EH4_LocalUnwind@16       1003e2b0 f   libvcruntime:exsup4.obj
 0001:0003d2c7       ___vcrt_initialize_locks   1003e2c7 f   libvcruntime:locks.obj
 0001:0003d303       ___vcrt_lock               1003e303 f   libvcruntime:locks.obj
 0001:0003d318       ___vcrt_uninitialize_locks 1003e318 f   libvcruntime:locks.obj
 0001:0003d347       ___vcrt_unlock             1003e347 f   libvcruntime:locks.obj
 0001:0003d35c       ??$__crt_interlocked_exchange_pointer@UHINSTANCE__@@PAU1@@@YAPAUHINSTANCE__@@PDSAU0@QAU0@@Z 1003e35c f i libvcruntime:winapi_downlevel.obj
 0001:0003d369       ??$__crt_interlocked_exchange_pointer@UHINSTANCE__@@PAX@@YAPAUHINSTANCE__@@PDSAU0@QAX@Z 1003e369 f i libvcruntime:winapi_downlevel.obj
 0001:0003d376       ??$__crt_interlocked_exchange_pointer@XPAX@@YAPAXPDSAXQAX@Z 1003e376 f i libvcruntime:winapi_downlevel.obj
 0001:0003d383       ??$__crt_interlocked_read_pointer@UHINSTANCE__@@@@YAPAUHINSTANCE__@@PDSAU0@@Z 1003e383 f i libvcruntime:winapi_downlevel.obj
 0001:0003d38e       ??$__crt_interlocked_read_pointer@X@@YAPAXPDSAX@Z 1003e38e f i libvcruntime:winapi_downlevel.obj
 0001:0003d61a       ___vcrt_FlsAlloc           1003e61a f   libvcruntime:winapi_downlevel.obj
 0001:0003d655       ___vcrt_FlsFree            1003e655 f   libvcruntime:winapi_downlevel.obj
 0001:0003d690       ___vcrt_FlsGetValue        1003e690 f   libvcruntime:winapi_downlevel.obj
 0001:0003d6cb       ___vcrt_FlsSetValue        1003e6cb f   libvcruntime:winapi_downlevel.obj
 0001:0003d709       ___vcrt_InitializeCriticalSectionEx 1003e709 f   libvcruntime:winapi_downlevel.obj
 0001:0003d764       __get_unexpected           1003e764 f   libvcruntime:unexpected.obj
 0001:0003d776       _set_unexpected            1003e776 f   libvcruntime:unexpected.obj
 0001:0003d794       _unexpected                1003e794 f   libvcruntime:unexpected.obj
 0001:0003d7b1       ?GetCurrentState@__FrameHandler3@@SAHPAUEHRegistrationNode@@PAXPBU_s_FuncInfo@@@Z 1003e7b1 f   libvcruntime:ehstate.obj
 0001:0003d7ce       ?SetState@__FrameHandler3@@SAXPAUEHRegistrationNode@@PBU_s_FuncInfo@@H@Z 1003e7ce f   libvcruntime:ehstate.obj
 0001:0003d7dc       ??$?RD@__crt_public_free_policy@@QBEXQBD@Z 1003e7dc f i libvcruntime:std_exception.obj
 0001:0003d7ec       ??0?$__crt_unique_heap_ptr@DU__crt_public_free_policy@@@@QAE@QAD@Z 1003e7ec f i libvcruntime:std_exception.obj
 0001:0003d7fa       ??1?$__crt_unique_heap_ptr@DU__crt_public_free_policy@@@@QAE@XZ 1003e7fa f i libvcruntime:std_exception.obj
 0001:0003d80a       ??B?$__crt_unique_heap_ptr@DU__crt_public_free_policy@@@@QBE_NXZ 1003e80a f i libvcruntime:std_exception.obj
 0001:0003d811       ?detach@?$__crt_unique_heap_ptr@DU__crt_public_free_policy@@@@QAEPADXZ 1003e811 f i libvcruntime:std_exception.obj
 0001:0003d817       ?get@?$__crt_unique_heap_ptr@DU__crt_public_free_policy@@@@QBEPADXZ 1003e817 f i libvcruntime:std_exception.obj
 0001:0003d81a       ?is_valid@?$__crt_unique_heap_ptr@DU__crt_public_free_policy@@@@QBE_NXZ 1003e81a f i libvcruntime:std_exception.obj
 0001:0003d821       ?release@?$__crt_unique_heap_ptr@DU__crt_public_free_policy@@@@QAEXXZ 1003e821 f i libvcruntime:std_exception.obj
 0001:0003d831       ___std_exception_copy      1003e831 f   libvcruntime:std_exception.obj
 0001:0003d894       ___std_exception_destroy   1003e894 f   libvcruntime:std_exception.obj
 0001:0003d8b3       __CxxThrowException@8      1003e8b3 f   libvcruntime:throw.obj
 0001:0003d920       __global_unwind2           1003e920 f   libvcruntime:exsup.obj
 0001:0003d9a0       __local_unwind2            1003e9a0 f   libvcruntime:exsup.obj
 0001:0003da40       __abnormal_termination     1003ea40 f   libvcruntime:exsup.obj
 0001:0003da70       __NLG_Notify1              1003ea70 f   libvcruntime:exsup.obj
 0001:0003da80       __NLG_Notify               1003ea80 f   libvcruntime:exsup.obj
 0001:0003da97       __NLG_Dispatch             1003ea97     libvcruntime:exsup.obj
 0001:0003da97       __NLG_Dispatch2            1003ea97     libvcruntime:exsup.obj
 0001:0003daa0       __NLG_Call                 1003eaa0 f   libvcruntime:exsup.obj
 0001:0003daa2       __NLG_Return2              1003eaa2     libvcruntime:exsup.obj
 0001:0003daa3       ??$__crt_interlocked_exchange_pointer@$$A6AXXZP6AXXZ@@YAP6AXXZPDS6AXXZQ6AXXZ@Z 1003eaa3 f i libvcruntime:purevirt.obj
 0001:0003dab0       ??$__crt_interlocked_read_pointer@$$A6AXXZ@@YAP6AXXZPDS6AXXZ@Z 1003eab0 f i libvcruntime:purevirt.obj
 0001:0003dabb       __get_purecall_handler     1003eabb f   libvcruntime:purevirt.obj
 0001:0003dac2       __purecall                 1003eac2 f   libvcruntime:purevirt.obj
 0001:0003dade       __set_purecall_handler     1003eade f   libvcruntime:purevirt.obj
 0001:0003e051       ??$futime@AAHABQAU__utimbuf32@@@?$__crt_integer_traits@J@@SAHAAHABQAU__utimbuf32@@@Z 1003f051 f i libucrt:utime.obj
 0001:0003e06a       ??$futime@AAHABQAU__utimbuf64@@@?$__crt_integer_traits@_J@@SAHAAHABQAU__utimbuf64@@@Z 1003f06a f i libucrt:utime.obj
 0001:0003e083       ??$localtime_s@PAUtm@@PAJ@?$__crt_integer_traits@J@@SAH$$QAPAUtm@@$$QAPAJ@Z 1003f083 f i libucrt:utime.obj
 0001:0003e09b       ??$localtime_s@PAUtm@@PA_J@?$__crt_integer_traits@_J@@SAH$$QAPAUtm@@$$QAPA_J@Z 1003f09b f i libucrt:utime.obj
 0001:0003e0b3       ??$time@PAJ@?$__crt_integer_traits@J@@SAJ$$QAPAJ@Z 1003f0b3 f i libucrt:utime.obj
 0001:0003e0c5       ??$time@PA_J@?$__crt_integer_traits@_J@@SA_J$$QAPA_J@Z 1003f0c5 f i libucrt:utime.obj
 0001:0003e0d7       ??$tsopen_s@PAHABQBDHHH@?$__crt_char_traits@D@@SAH$$QAPAHABQBD$$QAH22@Z 1003f0d7 f i libucrt:utime.obj
 0001:0003e0ff       ??$tsopen_s@PAHABQB_WHHH@?$__crt_char_traits@_W@@SAH$$QAPAHABQB_W$$QAH22@Z 1003f0ff f i libucrt:utime.obj
 0001:0003e127       __futime32                 1003f127 f   libucrt:utime.obj
 0001:0003e132       __futime64                 1003f132 f   libucrt:utime.obj
 0001:0003e13d       __utime32                  1003f13d f   libucrt:utime.obj
 0001:0003e148       __utime64                  1003f148 f   libucrt:utime.obj
 0001:0003e153       __wutime32                 1003f153 f   libucrt:utime.obj
 0001:0003e15e       __wutime64                 1003f15e f   libucrt:utime.obj
 0001:0003e170       _strcmp                    1003f170 f   libucrt:strcmp.obj
 0001:0003e200       _strcpy                    1003f200 f   libucrt:strcat.obj
 0001:0003e210       _strcat                    1003f210 f   libucrt:strcat.obj
 0001:0003e300       _strlen                    1003f300 f   libucrt:strlen.obj
 0001:0003e390       _strncpy                   1003f390 f   libucrt:strncpy.obj
 0001:0003e4b4       ??$is_overflow_condition@K@__crt_strtox@@YA_NIK@Z 1003f4b4 f i libucrt:atox.obj
 0001:0003e4e8       ??$is_overflow_condition@_K@__crt_strtox@@YA_NI_K@Z 1003f4e8 f i libucrt:atox.obj
 0001:0003e529       ??$make_c_string_character_source@D$$T@__crt_strtox@@YA?AV?$c_string_character_source@D@0@QBD$$T@Z 1003f529 f i libucrt:atox.obj
 0001:0003e544       ??$make_c_string_character_source@_W$$T@__crt_strtox@@YA?AV?$c_string_character_source@_W@0@QB_W$$T@Z 1003f544 f i libucrt:atox.obj
 0001:0003e55f       ??$parse_integer@KV?$c_string_character_source@D@__crt_strtox@@$00@__crt_strtox@@YAKAAV__crt_cached_ptd_host@@V?$c_string_character_source@D@0@H_N@Z 1003f55f f i libucrt:atox.obj
 0001:0003e7a6       ??$parse_integer@KV?$c_string_character_source@_W@__crt_strtox@@$00@__crt_strtox@@YAKAAV__crt_cached_ptd_host@@V?$c_string_character_source@_W@0@H_N@Z 1003f7a6 f i libucrt:atox.obj
 0001:0003edb4       ??$parse_integer@_KV?$c_string_character_source@D@__crt_strtox@@$00@__crt_strtox@@YA_KAAV__crt_cached_ptd_host@@V?$c_string_character_source@D@0@H_N@Z 1003fdb4 f i libucrt:atox.obj
 0001:0003f07c       ??$parse_integer@_KV?$c_string_character_source@_W@__crt_strtox@@$00@__crt_strtox@@YA_KAAV__crt_cached_ptd_host@@V?$c_string_character_source@_W@0@H_N@Z 1004007c f i libucrt:atox.obj
 0001:0003f702       ??$parse_integer_from_string@JD$$T@__crt_strtox@@YAJQBD$$THQAU__crt_locale_pointers@@@Z 10040702 f i libucrt:atox.obj
 0001:0003f749       ??$parse_integer_from_string@J_W$$T@__crt_strtox@@YAJQB_W$$THQAU__crt_locale_pointers@@@Z 10040749 f i libucrt:atox.obj
 0001:0003f790       ??$parse_integer_from_string@_JD$$T@__crt_strtox@@YA_JQBD$$THQAU__crt_locale_pointers@@@Z 10040790 f i libucrt:atox.obj
 0001:0003f7dd       ??$parse_integer_from_string@_J_W$$T@__crt_strtox@@YA_JQB_W$$THQAU__crt_locale_pointers@@@Z 100407dd f i libucrt:atox.obj
 0001:0003f82a       ??0?$c_string_character_source@D@__crt_strtox@@QAE@QBDQAPBD@Z 1004082a f i libucrt:atox.obj
 0001:0003f846       ??0?$c_string_character_source@_W@__crt_strtox@@QAE@QB_WQAPB_W@Z 10040846 f i libucrt:atox.obj
 0001:0003f862       ??0?$cached@H@__crt_cached_ptd_host@@QAE@XZ 10040862 f i libucrt:atox.obj
 0001:0003f869       ??0?$cached@K@__crt_cached_ptd_host@@QAE@XZ 10040869 f i libucrt:atox.obj
 0001:0003f870       ??0__crt_cached_ptd_host@@QAE@QAU__crt_locale_pointers@@@Z 10040870 f i libucrt:atox.obj
 0001:0003f8cd       ??0__crt_scoped_get_last_error_reset@@QAE@XZ 100408cd f i libucrt:atox.obj
 0001:0003f8de       ??1?$c_string_character_source@D@__crt_strtox@@QAE@XZ 100408de f i libucrt:atox.obj
 0001:0003f8ea       ??1?$c_string_character_source@_W@__crt_strtox@@QAE@XZ 100408ea f i libucrt:atox.obj
 0001:0003f900       ??1__crt_cached_ptd_host@@QAE@XZ 10040900 f i libucrt:atox.obj
 0001:0003f93c       ??1__crt_scoped_get_last_error_reset@@QAE@XZ 1004093c f i libucrt:atox.obj
 0001:0003f950       ?check_synchronize_global_state_index@__crt_cached_ptd_host@@AAEIABV__crt_scoped_get_last_error_reset@@@Z 10040950 f i libucrt:atox.obj
 0001:0003f970       ?check_synchronize_per_thread_data@__crt_cached_ptd_host@@AAEPAU__acrt_ptd@@XZ 10040970 f i libucrt:atox.obj
 0001:0003f9d0       ?force_synchronize_global_state_index@__crt_cached_ptd_host@@AAEIABV__crt_scoped_get_last_error_reset@@@Z 100409d0 f i libucrt:atox.obj
 0001:0003f9e0       ?force_synchronize_per_thread_data@__crt_cached_ptd_host@@AAEPAU__acrt_ptd@@XZ 100409e0 f i libucrt:atox.obj
 0001:0003fa2d       ?get@?$c_string_character_source@D@__crt_strtox@@QAEDXZ 10040a2d f i libucrt:atox.obj
 0001:0003fa35       ?get@?$c_string_character_source@_W@__crt_strtox@@QAE_WXZ 10040a35 f i libucrt:atox.obj
 0001:0003fa40       ?get_current_state_index@__crt_state_management@@YAIABV__crt_scoped_get_last_error_reset@@@Z 10040a40 f i libucrt:atox.obj
 0001:0003fa50       ?get_errno@__crt_cached_ptd_host@@QAE@XZ 10040a50 f i libucrt:atox.obj
 0001:0003fa60       ?get_locale@__crt_cached_ptd_host@@QAEPAU__crt_locale_pointers@@XZ 10040a60 f i libucrt:atox.obj
 0001:0003fa80       ?get_raw_ptd@__crt_cached_ptd_host@@QAEPAU__acrt_ptd@@XZ 10040a80 f i libucrt:atox.obj
 0001:0003fadc       ?is_space@__crt_strtox@@YA_NDQAU__crt_locale_pointers@@@Z 10040adc f i libucrt:atox.obj
 0001:0003fafa       ?is_space@__crt_strtox@@YA_N_WPAU__crt_locale_pointers@@@Z 10040afa f i libucrt:atox.obj
 0001:0003fb12       ?maximum_signed_value@__crt_strtox@@YAJK@Z 10040b12 f i libucrt:atox.obj
 0001:0003fb18       ?maximum_signed_value@__crt_strtox@@YA_J_K@Z 10040b18 f i libucrt:atox.obj
 0001:0003fb21       ?minimum_signed_value@__crt_strtox@@YAJK@Z 10040b21 f i libucrt:atox.obj
 0001:0003fb27       ?minimum_signed_value@__crt_strtox@@YA_J_K@Z 10040b27 f i libucrt:atox.obj
 0001:0003fb2f       ?parse_digit@__crt_strtox@@YAID@Z 10040b2f f i libucrt:atox.obj
 0001:0003fb69       ?parse_digit@__crt_strtox@@YAI_W@Z 10040b69 f i libucrt:atox.obj
 0001:0003fd31       ?restore_state@?$c_string_character_source@D@__crt_strtox@@QAE_NQBD@Z 10040d31 f i libucrt:atox.obj
 0001:0003fd41       ?restore_state@?$c_string_character_source@_W@__crt_strtox@@QAE_NQB_W@Z 10040d41 f i libucrt:atox.obj
 0001:0003fd51       ?save_state@?$c_string_character_source@D@__crt_strtox@@QBEPBDXZ 10040d51 f i libucrt:atox.obj
 0001:0003fd54       ?save_state@?$c_string_character_source@_W@__crt_strtox@@QBEPB_WXZ 10040d54 f i libucrt:atox.obj
 0001:0003fd57       ?set@?$cached@H@__crt_cached_ptd_host@@QAEHH@Z 10040d57 f i libucrt:atox.obj
 0001:0003fd69       ?unget@?$c_string_character_source@D@__crt_strtox@@QAEXD@Z 10040d69 f i libucrt:atox.obj
 0001:0003fd92       ?unget@?$c_string_character_source@_W@__crt_strtox@@QAEX_W@Z 10040d92 f i libucrt:atox.obj
 0001:0003fdc0       ?unsafe_value@?$cached@H@__crt_cached_ptd_host@@QAEHXZ 10040dc0 f i libucrt:atox.obj
 0001:0003fdc3       ?unsafe_value@?$cached@K@__crt_cached_ptd_host@@QAEKXZ 10040dc3 f i libucrt:atox.obj
 0001:0003fdd0       ?update_locale@__crt_cached_ptd_host@@AAEXXZ 10040dd0 f i libucrt:atox.obj
 0001:0003fde0       ?update_locale_slow@__crt_cached_ptd_host@@AAEXXZ 10040de0 f i libucrt:atox.obj
 0001:0003fe3b       ?valid@?$cached@H@__crt_cached_ptd_host@@QBE_NXZ 10040e3b f i libucrt:atox.obj
 0001:0003fe3f       ?valid@?$cached@K@__crt_cached_ptd_host@@QBE_NXZ 10040e3f f i libucrt:atox.obj
 0001:0003fe43       ?validate@?$c_string_character_source@D@__crt_strtox@@QBE_NXZ 10040e43 f i libucrt:atox.obj
 0001:0003fe5e       ?validate@?$c_string_character_source@_W@__crt_strtox@@QBE_NXZ 10040e5e f i libucrt:atox.obj
 0001:0003fe79       ?wide_character_to_digit@__crt_strtox@@YAH_W@Z 10040e79 f i libucrt:atox.obj
 0001:0004001a       ___acrt_disable_global_locale_sync 1004101a f i libucrt:atox.obj
 0001:0004002d       ___acrt_enable_global_locale_sync 1004102d f i libucrt:atox.obj
 0001:00040042       ___acrt_get_locale_data_prefix 10041042 f i libucrt:atox.obj
 0001:0004004e       ___acrt_locale_changed     1004104e f i libucrt:atox.obj
 0001:00040059       ___acrt_locale_get_ctype_array_value 10041059 f i libucrt:atox.obj
 0001:0004007b       ___ascii_iswalpha          1004107b f i libucrt:atox.obj
 0001:0004009e       ___ascii_toupper           1004109e f i libucrt:atox.obj
 0001:000400b5       ___ascii_towupper          100410b5 f i libucrt:atox.obj
 0001:000400cc       __atoi64                   100410cc f   libucrt:atox.obj
 0001:00040111       __atoi64_l                 10041111 f   libucrt:atox.obj
 0001:00040157       __atoi_l                   10041157 f   libucrt:atox.obj
 0001:00040197       __atol_l                   10041197 f   libucrt:atox.obj
 0001:000401d7       __atoll_l                  100411d7 f   libucrt:atox.obj
 0001:0004021d       __chvalidchk_l             1004121d f i libucrt:atox.obj
 0001:00040245       __ischartype_l             10041245 f i libucrt:atox.obj
 0001:0004029c       __wtoi                     1004129c f   libucrt:atox.obj
 0001:000402db       __wtoi64                   100412db f   libucrt:atox.obj
 0001:00040320       __wtoi64_l                 10041320 f   libucrt:atox.obj
 0001:00040366       __wtoi_l                   10041366 f   libucrt:atox.obj
 0001:000403a6       __wtol                     100413a6 f   libucrt:atox.obj
 0001:000403e5       __wtol_l                   100413e5 f   libucrt:atox.obj
 0001:00040425       __wtoll                    10041425 f   libucrt:atox.obj
 0001:0004046a       __wtoll_l                  1004146a f   libucrt:atox.obj
 0001:000404b0       _atoi                      100414b0 f   libucrt:atox.obj
 0001:000404ef       _atol                      100414ef f   libucrt:atox.obj
 0001:0004052e       _atoll                     1004152e f   libucrt:atox.obj
 0001:00040573       ??$__crt_interlocked_read@J@@YAJPDJ@Z 10041573 f i libucrt:fclose.obj
 0001:00040580       ??0__crt_stdio_stream@@QAE@QAU_iobuf@@@Z 10041580 f i libucrt:fclose.obj
 0001:00040590       ??C__crt_stdio_stream@@QBEPAU__crt_stdio_stream_data@@XZ 10041590 f i libucrt:fclose.obj
 0001:000406b8       ?get_flags@__crt_stdio_stream@@QBEJXZ 100416b8 f i libucrt:fclose.obj
 0001:000406bf       ?is_in_use@__crt_stdio_stream@@QBE_NXZ 100416bf f i libucrt:fclose.obj
 0001:000406cb       ?is_string_backed@__crt_stdio_stream@@QBE_NXZ 100416cb f i libucrt:fclose.obj
 0001:000406d7       ?public_stream@__crt_stdio_stream@@QBEPAU_iobuf@@XZ 100416d7 f i libucrt:fclose.obj
 0001:000406da       ?valid@__crt_stdio_stream@@QBE_NXZ 100416da f i libucrt:fclose.obj
 0001:000406e1       __fclose_nolock            100416e1 f   libucrt:fclose.obj
 0001:00040711       _fclose                    10041711 f   libucrt:fclose.obj
 0001:0004093c       ??$open_file@ABQBDABQBDABHPAU_iobuf@@@?$__crt_char_traits@D@@SAPAU_iobuf@@ABQBD0ABH$$QAPAU1@@Z 1004193c f i libucrt:fopen.obj
 0001:0004095f       ??$open_file@ABQB_WABQB_WABHPAU_iobuf@@@?$__crt_char_traits@_W@@SAPAU_iobuf@@ABQB_W0ABH$$QAPAU1@@Z 1004195f f i libucrt:fopen.obj
 0001:00040982       ?unlock@__crt_stdio_stream@@QBEXXZ 10041982 f i libucrt:fopen.obj
 0001:0004098b       __fsopen                   1004198b f   libucrt:fopen.obj
 0001:00040996       __wfopen                   10041996 f   libucrt:fopen.obj
 0001:000409ad       __wfopen_s                 100419ad f   libucrt:fopen.obj
 0001:000409f4       __wfsopen                  100419f4 f   libucrt:fopen.obj
 0001:000409ff       _fopen                     100419ff f   libucrt:fopen.obj
 0001:00040a16       _fopen_s                   10041a16 f   libucrt:fopen.obj
 0001:00040b2a       ??0__acrt_stdio_temporary_buffering_guard@@QAE@QAU_iobuf@@AAV__crt_cached_ptd_host@@@Z 10041b2a f i libucrt:fwrite.obj
 0001:00040b4e       ??1__acrt_stdio_temporary_buffering_guard@@QAE@XZ 10041b4e f i libucrt:fwrite.obj
 0001:00040bbf       ?has_any_buffer@__crt_stdio_stream@@QBE_NXZ 10041bbf f i libucrt:fwrite.obj
 0001:00040bce       ?has_any_of@__crt_stdio_stream@@QBE_NJ@Z 10041bce f i libucrt:fwrite.obj
 0001:00040be3       ?has_big_buffer@__crt_stdio_stream@@QBE_NXZ 10041be3 f i libucrt:fwrite.obj
 0001:00040bef       ?set_flags@__crt_stdio_stream@@QBE_NJ@Z 10041bef f i libucrt:fwrite.obj
 0001:00040c13       __fwrite_internal          10041c13 f   libucrt:fwrite.obj
 0001:00040c8a       __fwrite_nolock            10041c8a f   libucrt:fwrite.obj
 0001:00040cc4       __fwrite_nolock_internal   10041cc4 f   libucrt:fwrite.obj
 0001:00040e6b       _fwrite                    10041e6b f   libucrt:fwrite.obj
 0001:00040ea5       ??$?0ABV?$stream_output_adapter@D@__crt_stdio_output@@AB_KABQBDAAV__crt_cached_ptd_host@@ABQAD@?$format_validation_base@DV?$stream_output_adapter@D@__crt_stdio_output@@@__crt_stdio_output@@IAE@ABV?$stream_output_adapter@D@1@AB_KABQBDAAV__crt_cached_ptd_host@@ABQAD@Z 10041ea5 f i libucrt:output.obj
 0001:00040ec8       ??$?0ABV?$stream_output_adapter@D@__crt_stdio_output@@AB_KABQBDAAV__crt_cached_ptd_host@@ABQAD@?$positional_parameter_base@DV?$stream_output_adapter@D@__crt_stdio_output@@@__crt_stdio_output@@IAE@ABV?$stream_output_adapter@D@1@AB_KABQBDAAV__crt_cached_ptd_host@@ABQAD@Z 10041ec8 f i libucrt:output.obj
 0001:00040f10       ??$?0ABV?$stream_output_adapter@D@__crt_stdio_output@@AB_KABQBDAAV__crt_cached_ptd_host@@ABQAD@?$standard_base@DV?$stream_output_adapter@D@__crt_stdio_output@@@__crt_stdio_output@@IAE@ABV?$stream_output_adapter@D@1@AB_KABQBDAAV__crt_cached_ptd_host@@ABQAD@Z 10041f10 f i libucrt:output.obj
 0001:00040f43       ??$?0ABV?$stream_output_adapter@_W@__crt_stdio_output@@AB_KABQB_WAAV__crt_cached_ptd_host@@ABQAD@?$format_validation_base@_WV?$stream_output_adapter@_W@__crt_stdio_output@@@__crt_stdio_output@@IAE@ABV?$stream_output_adapter@_W@1@AB_KABQB_WAAV__crt_cached_ptd_host@@ABQAD@Z 10041f43 f i libucrt:output.obj
 0001:00040f66       ??$?0ABV?$stream_output_adapter@_W@__crt_stdio_output@@AB_KABQB_WAAV__crt_cached_ptd_host@@ABQAD@?$positional_parameter_base@_WV?$stream_output_adapter@_W@__crt_stdio_output@@@__crt_stdio_output@@IAE@ABV?$stream_output_adapter@_W@1@AB_KABQB_WAAV__crt_cached_ptd_host@@ABQAD@Z 10041f66 f i libucrt:output.obj
 0001:00040fae       ??$?0ABV?$stream_output_adapter@_W@__crt_stdio_output@@AB_KABQB_WAAV__crt_cached_ptd_host@@ABQAD@?$standard_base@_WV?$stream_output_adapter@_W@__crt_stdio_output@@@__crt_stdio_output@@IAE@ABV?$stream_output_adapter@_W@1@AB_KABQB_WAAV__crt_cached_ptd_host@@ABQAD@Z 10041fae f i libucrt:output.obj
 0001:00040fe1       ??$?0ABV?$string_output_adapter@D@__crt_stdio_output@@AB_KABQBDAAV__crt_cached_ptd_host@@ABQAD@?$format_validation_base@DV?$string_output_adapter@D@__crt_stdio_output@@@__crt_stdio_output@@IAE@ABV?$string_output_adapter@D@1@AB_KABQBDAAV__crt_cached_ptd_host@@ABQAD@Z 10041fe1 f i libucrt:output.obj
 0001:00041004       ??$?0ABV?$string_output_adapter@D@__crt_stdio_output@@AB_KABQBDAAV__crt_cached_ptd_host@@ABQAD@?$positional_parameter_base@DV?$string_output_adapter@D@__crt_stdio_output@@@__crt_stdio_output@@IAE@ABV?$string_output_adapter@D@1@AB_KABQBDAAV__crt_cached_ptd_host@@ABQAD@Z 10042004 f i libucrt:output.obj
 0001:0004104c       ??$?0ABV?$string_output_adapter@D@__crt_stdio_output@@AB_KABQBDAAV__crt_cached_ptd_host@@ABQAD@?$standard_base@DV?$string_output_adapter@D@__crt_stdio_output@@@__crt_stdio_output@@IAE@ABV?$string_output_adapter@D@1@AB_KABQBDAAV__crt_cached_ptd_host@@ABQAD@Z 1004204c f i libucrt:output.obj
 0001:0004107f       ??$?0ABV?$string_output_adapter@_W@__crt_stdio_output@@AB_KABQB_WAAV__crt_cached_ptd_host@@ABQAD@?$format_validation_base@_WV?$string_output_adapter@_W@__crt_stdio_output@@@__crt_stdio_output@@IAE@ABV?$string_output_adapter@_W@1@AB_KABQB_WAAV__crt_cached_ptd_host@@ABQAD@Z 1004207f f i libucrt:output.obj
 0001:000410a2       ??$?0ABV?$string_output_adapter@_W@__crt_stdio_output@@AB_KABQB_WAAV__crt_cached_ptd_host@@ABQAD@?$positional_parameter_base@_WV?$string_output_adapter@_W@__crt_stdio_output@@@__crt_stdio_output@@IAE@ABV?$string_output_adapter@_W@1@AB_KABQB_WAAV__crt_cached_ptd_host@@ABQAD@Z 100420a2 f i libucrt:output.obj
 0001:000410ea       ??$?0ABV?$string_output_adapter@_W@__crt_stdio_output@@AB_KABQB_WAAV__crt_cached_ptd_host@@ABQAD@?$standard_base@_WV?$string_output_adapter@_W@__crt_stdio_output@@@__crt_stdio_output@@IAE@ABV?$string_output_adapter@_W@1@AB_KABQB_WAAV__crt_cached_ptd_host@@ABQAD@Z 100420ea f i libucrt:output.obj
 0001:00041423       ??$_tcstol_internal@DPAPAD$0A@@@YAJAAV__crt_cached_ptd_host@@QBDQAPADH@Z 10042423 f i libucrt:output.obj
 0001:0004144e       ??$_tcstol_internal@_WPAPA_W$0A@@@YAJAAV__crt_cached_ptd_host@@QB_WQAPA_WH@Z 1004244e f i libucrt:output.obj
 0001:000423a8       ??$count@D@formatting_buffer@__crt_stdio_output@@QBEIXZ 100433a8 f i libucrt:output.obj
 0001:000423c0       ??$count@_W@formatting_buffer@__crt_stdio_output@@QBEIXZ 100433c0 f i libucrt:output.obj
 0001:000423d9       ??$data@D@formatting_buffer@__crt_stdio_output@@QAEPADXZ 100433d9 f i libucrt:output.obj
 0001:000423e6       ??$data@_W@formatting_buffer@__crt_stdio_output@@QAEPA_WXZ 100433e6 f i libucrt:output.obj
 0001:000423f3       ??$ensure_buffer_is_big_enough@D@formatting_buffer@__crt_stdio_output@@QAE_NIAAV__crt_cached_ptd_host@@@Z 100433f3 f i libucrt:output.obj
 0001:00042474       ??$ensure_buffer_is_big_enough@_W@formatting_buffer@__crt_stdio_output@@QAE_NIAAV__crt_cached_ptd_host@@@Z 10043474 f i libucrt:output.obj
 0001:000424f6       ??$extract_argument_from_va_list@C_J@?$positional_parameter_base@DV?$stream_output_adapter@D@__crt_stdio_output@@@__crt_stdio_output@@IAE_NAA_J@Z 100434f6 f i libucrt:output.obj
 0001:00042585       ??$extract_argument_from_va_list@C_J@?$positional_parameter_base@DV?$string_output_adapter@D@__crt_stdio_output@@@__crt_stdio_output@@IAE_NAA_J@Z 10043585 f i libucrt:output.obj
 0001:00042614       ??$extract_argument_from_va_list@C_J@?$positional_parameter_base@_WV?$stream_output_adapter@_W@__crt_stdio_output@@@__crt_stdio_output@@IAE_NAA_J@Z 10043614 f i libucrt:output.obj
 0001:000426a4       ??$extract_argument_from_va_list@C_J@?$positional_parameter_base@_WV?$string_output_adapter@_W@__crt_stdio_output@@@__crt_stdio_output@@IAE_NAA_J@Z 100436a4 f i libucrt:output.obj
 0001:00042734       ??$extract_argument_from_va_list@C_J@?$standard_base@DV?$stream_output_adapter@D@__crt_stdio_output@@@__crt_stdio_output@@IAE_NAA_J@Z 10043734 f i libucrt:output.obj
 0001:00042754       ??$extract_argument_from_va_list@C_J@?$standard_base@DV?$string_output_adapter@D@__crt_stdio_output@@@__crt_stdio_output@@IAE_NAA_J@Z 10043754 f i libucrt:output.obj
 0001:00042774       ??$extract_argument_from_va_list@C_J@?$standard_base@_WV?$stream_output_adapter@_W@__crt_stdio_output@@@__crt_stdio_output@@IAE_NAA_J@Z 10043774 f i libucrt:output.obj
 0001:00042794       ??$extract_argument_from_va_list@C_J@?$standard_base@_WV?$string_output_adapter@_W@__crt_stdio_output@@@__crt_stdio_output@@IAE_NAA_J@Z 10043794 f i libucrt:output.obj
 0001:000427b4       ??$extract_argument_from_va_list@E_J@?$positional_parameter_base@DV?$stream_output_adapter@D@__crt_stdio_output@@@__crt_stdio_output@@IAE_NAA_J@Z 100437b4 f i libucrt:output.obj
 0001:00042843       ??$extract_argument_from_va_list@E_J@?$positional_parameter_base@DV?$string_output_adapter@D@__crt_stdio_output@@@__crt_stdio_output@@IAE_NAA_J@Z 10043843 f i libucrt:output.obj
 0001:000428d2       ??$extract_argument_from_va_list@E_J@?$positional_parameter_base@_WV?$stream_output_adapter@_W@__crt_stdio_output@@@__crt_stdio_output@@IAE_NAA_J@Z 100438d2 f i libucrt:output.obj
 0001:00042962       ??$extract_argument_from_va_list@E_J@?$positional_parameter_base@_WV?$string_output_adapter@_W@__crt_stdio_output@@@__crt_stdio_output@@IAE_NAA_J@Z 10043962 f i libucrt:output.obj
 0001:000429f2       ??$extract_argument_from_va_list@E_J@?$standard_base@DV?$stream_output_adapter@D@__crt_stdio_output@@@__crt_stdio_output@@IAE_NAA_J@Z 100439f2 f i libucrt:output.obj
 0001:00042a12       ??$extract_argument_from_va_list@E_J@?$standard_base@DV?$string_output_adapter@D@__crt_stdio_output@@@__crt_stdio_output@@IAE_NAA_J@Z 10043a12 f i libucrt:output.obj
 0001:00042a32       ??$extract_argument_from_va_list@E_J@?$standard_base@_WV?$stream_output_adapter@_W@__crt_stdio_output@@@__crt_stdio_output@@IAE_NAA_J@Z 10043a32 f i libucrt:output.obj
 0001:00042a52       ??$extract_argument_from_va_list@E_J@?$standard_base@_WV?$string_output_adapter@_W@__crt_stdio_output@@@__crt_stdio_output@@IAE_NAA_J@Z 10043a52 f i libucrt:output.obj
 0001:00042a72       ??$extract_argument_from_va_list@F_J@?$positional_parameter_base@DV?$stream_output_adapter@D@__crt_stdio_output@@@__crt_stdio_output@@IAE_NAA_J@Z 10043a72 f i libucrt:output.obj
 0001:00042b01       ??$extract_argument_from_va_list@F_J@?$positional_parameter_base@DV?$string_output_adapter@D@__crt_stdio_output@@@__crt_stdio_output@@IAE_NAA_J@Z 10043b01 f i libucrt:output.obj
 0001:00042b90       ??$extract_argument_from_va_list@F_J@?$positional_parameter_base@_WV?$stream_output_adapter@_W@__crt_stdio_output@@@__crt_stdio_output@@IAE_NAA_J@Z 10043b90 f i libucrt:output.obj
 0001:00042c20       ??$extract_argument_from_va_list@F_J@?$positional_parameter_base@_WV?$string_output_adapter@_W@__crt_stdio_output@@@__crt_stdio_output@@IAE_NAA_J@Z 10043c20 f i libucrt:output.obj
 0001:00042cb0       ??$extract_argument_from_va_list@F_J@?$standard_base@DV?$stream_output_adapter@D@__crt_stdio_output@@@__crt_stdio_output@@IAE_NAA_J@Z 10043cb0 f i libucrt:output.obj
 0001:00042cd0       ??$extract_argument_from_va_list@F_J@?$standard_base@DV?$string_output_adapter@D@__crt_stdio_output@@@__crt_stdio_output@@IAE_NAA_J@Z 10043cd0 f i libucrt:output.obj
 0001:00042cf0       ??$extract_argument_from_va_list@F_J@?$standard_base@_WV?$stream_output_adapter@_W@__crt_stdio_output@@@__crt_stdio_output@@IAE_NAA_J@Z 10043cf0 f i libucrt:output.obj
 0001:00042d10       ??$extract_argument_from_va_list@F_J@?$standard_base@_WV?$string_output_adapter@_W@__crt_stdio_output@@@__crt_stdio_output@@IAE_NAA_J@Z 10043d10 f i libucrt:output.obj
 0001:00042d30       ??$extract_argument_from_va_list@GD@?$positional_parameter_base@DV?$stream_output_adapter@D@__crt_stdio_output@@@__crt_stdio_output@@IAE_NAAD@Z 10043d30 f i libucrt:output.obj
 0001:00042dbe       ??$extract_argument_from_va_list@GD@?$positional_parameter_base@DV?$string_output_adapter@D@__crt_stdio_output@@@__crt_stdio_output@@IAE_NAAD@Z 10043dbe f i libucrt:output.obj
 0001:00042e4c       ??$extract_argument_from_va_list@GD@?$standard_base@DV?$stream_output_adapter@D@__crt_stdio_output@@@__crt_stdio_output@@IAE_NAAD@Z 10043e4c f i libucrt:output.obj
 0001:00042e67       ??$extract_argument_from_va_list@GD@?$standard_base@DV?$string_output_adapter@D@__crt_stdio_output@@@__crt_stdio_output@@IAE_NAAD@Z 10043e67 f i libucrt:output.obj
 0001:00042e82       ??$extract_argument_from_va_list@G_J@?$positional_parameter_base@DV?$stream_output_adapter@D@__crt_stdio_output@@@__crt_stdio_output@@IAE_NAA_J@Z 10043e82 f i libucrt:output.obj
 0001:00042f11       ??$extract_argument_from_va_list@G_J@?$positional_parameter_base@DV?$string_output_adapter@D@__crt_stdio_output@@@__crt_stdio_output@@IAE_NAA_J@Z 10043f11 f i libucrt:output.obj
 0001:00042fa0       ??$extract_argument_from_va_list@G_J@?$positional_parameter_base@_WV?$stream_output_adapter@_W@__crt_stdio_output@@@__crt_stdio_output@@IAE_NAA_J@Z 10043fa0 f i libucrt:output.obj
 0001:00043030       ??$extract_argument_from_va_list@G_J@?$positional_parameter_base@_WV?$string_output_adapter@_W@__crt_stdio_output@@@__crt_stdio_output@@IAE_NAA_J@Z 10044030 f i libucrt:output.obj
 0001:000430c0       ??$extract_argument_from_va_list@G_J@?$standard_base@DV?$stream_output_adapter@D@__crt_stdio_output@@@__crt_stdio_output@@IAE_NAA_J@Z 100440c0 f i libucrt:output.obj
 0001:000430e0       ??$extract_argument_from_va_list@G_J@?$standard_base@DV?$string_output_adapter@D@__crt_stdio_output@@@__crt_stdio_output@@IAE_NAA_J@Z 100440e0 f i libucrt:output.obj
 0001:00043100       ??$extract_argument_from_va_list@G_J@?$standard_base@_WV?$stream_output_adapter@_W@__crt_stdio_output@@@__crt_stdio_output@@IAE_NAA_J@Z 10044100 f i libucrt:output.obj
 0001:00043120       ??$extract_argument_from_va_list@G_J@?$standard_base@_WV?$string_output_adapter@_W@__crt_stdio_output@@@__crt_stdio_output@@IAE_NAA_J@Z 10044120 f i libucrt:output.obj
 0001:00043140       ??$extract_argument_from_va_list@H_J@?$positional_parameter_base@DV?$stream_output_adapter@D@__crt_stdio_output@@@__crt_stdio_output@@IAE_NAA_J@Z 10044140 f i libucrt:output.obj
 0001:000431c9       ??$extract_argument_from_va_list@H_J@?$positional_parameter_base@DV?$string_output_adapter@D@__crt_stdio_output@@@__crt_stdio_output@@IAE_NAA_J@Z 100441c9 f i libucrt:output.obj
 0001:00043252       ??$extract_argument_from_va_list@H_J@?$positional_parameter_base@_WV?$stream_output_adapter@_W@__crt_stdio_output@@@__crt_stdio_output@@IAE_NAA_J@Z 10044252 f i libucrt:output.obj
 0001:000432dc       ??$extract_argument_from_va_list@H_J@?$positional_parameter_base@_WV?$string_output_adapter@_W@__crt_stdio_output@@@__crt_stdio_output@@IAE_NAA_J@Z 100442dc f i libucrt:output.obj
 0001:00043366       ??$extract_argument_from_va_list@H_J@?$standard_base@DV?$stream_output_adapter@D@__crt_stdio_output@@@__crt_stdio_output@@IAE_NAA_J@Z 10044366 f i libucrt:output.obj
 0001:00043385       ??$extract_argument_from_va_list@H_J@?$standard_base@DV?$string_output_adapter@D@__crt_stdio_output@@@__crt_stdio_output@@IAE_NAA_J@Z 10044385 f i libucrt:output.obj
 0001:000433a4       ??$extract_argument_from_va_list@H_J@?$standard_base@_WV?$stream_output_adapter@_W@__crt_stdio_output@@@__crt_stdio_output@@IAE_NAA_J@Z 100443a4 f i libucrt:output.obj
 0001:000433c3       ??$extract_argument_from_va_list@H_J@?$standard_base@_WV?$string_output_adapter@_W@__crt_stdio_output@@@__crt_stdio_output@@IAE_NAA_J@Z 100443c3 f i libucrt:output.obj
 0001:000433e2       ??$extract_argument_from_va_list@I_J@?$positional_parameter_base@DV?$stream_output_adapter@D@__crt_stdio_output@@@__crt_stdio_output@@IAE_NAA_J@Z 100443e2 f i libucrt:output.obj
 0001:00043478       ??$extract_argument_from_va_list@I_J@?$positional_parameter_base@DV?$string_output_adapter@D@__crt_stdio_output@@@__crt_stdio_output@@IAE_NAA_J@Z 10044478 f i libucrt:output.obj
 0001:0004350e       ??$extract_argument_from_va_list@I_J@?$positional_parameter_base@_WV?$stream_output_adapter@_W@__crt_stdio_output@@@__crt_stdio_output@@IAE_NAA_J@Z 1004450e f i libucrt:output.obj
 0001:000435a5       ??$extract_argument_from_va_list@I_J@?$positional_parameter_base@_WV?$string_output_adapter@_W@__crt_stdio_output@@@__crt_stdio_output@@IAE_NAA_J@Z 100445a5 f i libucrt:output.obj
 0001:0004363c       ??$extract_argument_from_va_list@I_J@?$standard_base@DV?$stream_output_adapter@D@__crt_stdio_output@@@__crt_stdio_output@@IAE_NAA_J@Z 1004463c f i libucrt:output.obj
 0001:0004365b       ??$extract_argument_from_va_list@I_J@?$standard_base@DV?$string_output_adapter@D@__crt_stdio_output@@@__crt_stdio_output@@IAE_NAA_J@Z 1004465b f i libucrt:output.obj
 0001:0004367a       ??$extract_argument_from_va_list@I_J@?$standard_base@_WV?$stream_output_adapter@_W@__crt_stdio_output@@@__crt_stdio_output@@IAE_NAA_J@Z 1004467a f i libucrt:output.obj
 0001:00043699       ??$extract_argument_from_va_list@I_J@?$standard_base@_WV?$string_output_adapter@_W@__crt_stdio_output@@@__crt_stdio_output@@IAE_NAA_J@Z 10044699 f i libucrt:output.obj
 0001:000436b8       ??$extract_argument_from_va_list@PADPAD@?$positional_parameter_base@DV?$stream_output_adapter@D@__crt_stdio_output@@@__crt_stdio_output@@IAE_NAAPAD@Z 100446b8 f i libucrt:output.obj
 0001:00043746       ??$extract_argument_from_va_list@PADPAD@?$positional_parameter_base@DV?$string_output_adapter@D@__crt_stdio_output@@@__crt_stdio_output@@IAE_NAAPAD@Z 10044746 f i libucrt:output.obj
 0001:000437d4       ??$extract_argument_from_va_list@PADPAD@?$positional_parameter_base@_WV?$stream_output_adapter@_W@__crt_stdio_output@@@__crt_stdio_output@@IAE_NAAPAD@Z 100447d4 f i libucrt:output.obj
 0001:00043863       ??$extract_argument_from_va_list@PADPAD@?$positional_parameter_base@_WV?$string_output_adapter@_W@__crt_stdio_output@@@__crt_stdio_output@@IAE_NAAPAD@Z 10044863 f i libucrt:output.obj
 0001:000438f2       ??$extract_argument_from_va_list@PADPAD@?$standard_base@DV?$stream_output_adapter@D@__crt_stdio_output@@@__crt_stdio_output@@IAE_NAAPAD@Z 100448f2 f i libucrt:output.obj
 0001:0004390f       ??$extract_argument_from_va_list@PADPAD@?$standard_base@DV?$string_output_adapter@D@__crt_stdio_output@@@__crt_stdio_output@@IAE_NAAPAD@Z 1004490f f i libucrt:output.obj
 0001:0004392c       ??$extract_argument_from_va_list@PADPAD@?$standard_base@_WV?$stream_output_adapter@_W@__crt_stdio_output@@@__crt_stdio_output@@IAE_NAAPAD@Z 1004492c f i libucrt:output.obj
 0001:00043949       ??$extract_argument_from_va_list@PADPAD@?$standard_base@_WV?$string_output_adapter@_W@__crt_stdio_output@@@__crt_stdio_output@@IAE_NAAPAD@Z 10044949 f i libucrt:output.obj
 0001:00043966       ??$extract_argument_from_va_list@PAUansi_string@?1??type_case_Z@?$output_processor@DV?$stream_output_adapter@D@__crt_stdio_output@@V?$format_validation_base@DV?$stream_output_adapter@D@__crt_stdio_output@@@2@@__crt_stdio_output@@AAE_NXZ@PAU1?1??234@AAE_NXZ@@?$standard_base@DV?$stream_output_adapter@D@__crt_stdio_output@@@__crt_stdio_output@@IAE_NAAPAUansi_string@?1??type_case_Z@?$output_processor@DV?$stream_output_adapter@D@__crt_stdio_output@@V?$format_validation_base@DV?$stream_output_adapter@D@__crt_stdio_output@@@2@@1@AAE_NXZ@@Z 10044966 f i libucrt:output.obj
 0001:00043983       ??$extract_argument_from_va_list@PAUansi_string@?1??type_case_Z@?$output_processor@DV?$stream_output_adapter@D@__crt_stdio_output@@V?$positional_parameter_base@DV?$stream_output_adapter@D@__crt_stdio_output@@@2@@__crt_stdio_output@@AAE_NXZ@PAU1?1??234@AAE_NXZ@@?$positional_parameter_base@DV?$stream_output_adapter@D@__crt_stdio_output@@@__crt_stdio_output@@IAE_NAAPAUansi_string@?1??type_case_Z@?$output_processor@DV?$stream_output_adapter@D@__crt_stdio_output@@V?$positional_parameter_base@DV?$stream_output_adapter@D@__crt_stdio_output@@@2@@1@AAE_NXZ@@Z 10044983 f i libucrt:output.obj
 0001:00043a11       ??$extract_argument_from_va_list@PAUansi_string@?1??type_case_Z@?$output_processor@DV?$stream_output_adapter@D@__crt_stdio_output@@V?$positional_parameter_base@DV?$stream_output_adapter@D@__crt_stdio_output@@@2@@__crt_stdio_output@@AAE_NXZ@PAU1?1??234@AAE_NXZ@@?$standard_base@DV?$stream_output_adapter@D@__crt_stdio_output@@@__crt_stdio_output@@IAE_NAAPAUansi_string@?1??type_case_Z@?$output_processor@DV?$stream_output_adapter@D@__crt_stdio_output@@V?$positional_parameter_base@DV?$stream_output_adapter@D@__crt_stdio_output@@@2@@1@AAE_NXZ@@Z 10044a11 f i libucrt:output.obj
 0001:00043a2e       ??$extract_argument_from_va_list@PAUansi_string@?1??type_case_Z@?$output_processor@DV?$stream_output_adapter@D@__crt_stdio_output@@V?$standard_base@DV?$stream_output_adapter@D@__crt_stdio_output@@@2@@__crt_stdio_output@@AAE_NXZ@PAU1?1??234@AAE_NXZ@@?$standard_base@DV?$stream_output_adapter@D@__crt_stdio_output@@@__crt_stdio_output@@IAE_NAAPAUansi_string@?1??type_case_Z@?$output_processor@DV?$stream_output_adapter@D@__crt_stdio_output@@V?$standard_base@DV?$stream_output_adapter@D@__crt_stdio_output@@@2@@1@AAE_NXZ@@Z 10044a2e f i libucrt:output.obj
 0001:00043a4b       ??$extract_argument_from_va_list@PAUansi_string@?1??type_case_Z@?$output_processor@DV?$string_output_adapter@D@__crt_stdio_output@@V?$format_validation_base@DV?$string_output_adapter@D@__crt_stdio_output@@@2@@__crt_stdio_output@@AAE_NXZ@PAU1?1??234@AAE_NXZ@@?$standard_base@DV?$string_output_adapter@D@__crt_stdio_output@@@__crt_stdio_output@@IAE_NAAPAUansi_string@?1??type_case_Z@?$output_processor@DV?$string_output_adapter@D@__crt_stdio_output@@V?$format_validation_base@DV?$string_output_adapter@D@__crt_stdio_output@@@2@@1@AAE_NXZ@@Z 10044a4b f i libucrt:output.obj
 0001:00043a68       ??$extract_argument_from_va_list@PAUansi_string@?1??type_case_Z@?$output_processor@DV?$string_output_adapter@D@__crt_stdio_output@@V?$positional_parameter_base@DV?$string_output_adapter@D@__crt_stdio_output@@@2@@__crt_stdio_output@@AAE_NXZ@PAU1?1??234@AAE_NXZ@@?$positional_parameter_base@DV?$string_output_adapter@D@__crt_stdio_output@@@__crt_stdio_output@@IAE_NAAPAUansi_string@?1??type_case_Z@?$output_processor@DV?$string_output_adapter@D@__crt_stdio_output@@V?$positional_parameter_base@DV?$string_output_adapter@D@__crt_stdio_output@@@2@@1@AAE_NXZ@@Z 10044a68 f i libucrt:output.obj
 0001:00043af6       ??$extract_argument_from_va_list@PAUansi_string@?1??type_case_Z@?$output_processor@DV?$string_output_adapter@D@__crt_stdio_output@@V?$positional_parameter_base@DV?$string_output_adapter@D@__crt_stdio_output@@@2@@__crt_stdio_output@@AAE_NXZ@PAU1?1??234@AAE_NXZ@@?$standard_base@DV?$string_output_adapter@D@__crt_stdio_output@@@__crt_stdio_output@@IAE_NAAPAUansi_string@?1??type_case_Z@?$output_processor@DV?$string_output_adapter@D@__crt_stdio_output@@V?$positional_parameter_base@DV?$string_output_adapter@D@__crt_stdio_output@@@2@@1@AAE_NXZ@@Z 10044af6 f i libucrt:output.obj
 0001:00043b13       ??$extract_argument_from_va_list@PAUansi_string@?1??type_case_Z@?$output_processor@DV?$string_output_adapter@D@__crt_stdio_output@@V?$standard_base@DV?$string_output_adapter@D@__crt_stdio_output@@@2@@__crt_stdio_output@@AAE_NXZ@PAU1?1??234@AAE_NXZ@@?$standard_base@DV?$string_output_adapter@D@__crt_stdio_output@@@__crt_stdio_output@@IAE_NAAPAUansi_string@?1??type_case_Z@?$output_processor@DV?$string_output_adapter@D@__crt_stdio_output@@V?$standard_base@DV?$string_output_adapter@D@__crt_stdio_output@@@2@@1@AAE_NXZ@@Z 10044b13 f i libucrt:output.obj
 0001:00043b30       ??$extract_argument_from_va_list@PAUansi_string@?1??type_case_Z@?$output_processor@_WV?$stream_output_adapter@_W@__crt_stdio_output@@V?$format_validation_base@_WV?$stream_output_adapter@_W@__crt_stdio_output@@@2@@__crt_stdio_output@@AAE_NXZ@PAU1?1??234@AAE_NXZ@@?$standard_base@_WV?$stream_output_adapter@_W@__crt_stdio_output@@@__crt_stdio_output@@IAE_NAAPAUansi_string@?1??type_case_Z@?$output_processor@_WV?$stream_output_adapter@_W@__crt_stdio_output@@V?$format_validation_base@_WV?$stream_output_adapter@_W@__crt_stdio_output@@@2@@1@AAE_NXZ@@Z 10044b30 f i libucrt:output.obj
 0001:00043b4d       ??$extract_argument_from_va_list@PAUansi_string@?1??type_case_Z@?$output_processor@_WV?$stream_output_adapter@_W@__crt_stdio_output@@V?$positional_parameter_base@_WV?$stream_output_adapter@_W@__crt_stdio_output@@@2@@__crt_stdio_output@@AAE_NXZ@PAU1?1??234@AAE_NXZ@@?$positional_parameter_base@_WV?$stream_output_adapter@_W@__crt_stdio_output@@@__crt_stdio_output@@IAE_NAAPAUansi_string@?1??type_case_Z@?$output_processor@_WV?$stream_output_adapter@_W@__crt_stdio_output@@V?$positional_parameter_base@_WV?$stream_output_adapter@_W@__crt_stdio_output@@@2@@1@AAE_NXZ@@Z 10044b4d f i libucrt:output.obj
 0001:00043bdc       ??$extract_argument_from_va_list@PAUansi_string@?1??type_case_Z@?$output_processor@_WV?$stream_output_adapter@_W@__crt_stdio_output@@V?$positional_parameter_base@_WV?$stream_output_adapter@_W@__crt_stdio_output@@@2@@__crt_stdio_output@@AAE_NXZ@PAU1?1??234@AAE_NXZ@@?$standard_base@_WV?$stream_output_adapter@_W@__crt_stdio_output@@@__crt_stdio_output@@IAE_NAAPAUansi_string@?1??type_case_Z@?$output_processor@_WV?$stream_output_adapter@_W@__crt_stdio_output@@V?$positional_parameter_base@_WV?$stream_output_adapter@_W@__crt_stdio_output@@@2@@1@AAE_NXZ@@Z 10044bdc f i libucrt:output.obj
 0001:00043bf9       ??$extract_argument_from_va_list@PAUansi_string@?1??type_case_Z@?$output_processor@_WV?$stream_output_adapter@_W@__crt_stdio_output@@V?$standard_base@_WV?$stream_output_adapter@_W@__crt_stdio_output@@@2@@__crt_stdio_output@@AAE_NXZ@PAU1?1??234@AAE_NXZ@@?$standard_base@_WV?$stream_output_adapter@_W@__crt_stdio_output@@@__crt_stdio_output@@IAE_NAAPAUansi_string@?1??type_case_Z@?$output_processor@_WV?$stream_output_adapter@_W@__crt_stdio_output@@V?$standard_base@_WV?$stream_output_adapter@_W@__crt_stdio_output@@@2@@1@AAE_NXZ@@Z 10044bf9 f i libucrt:output.obj
 0001:00043c16       ??$extract_argument_from_va_list@PAUansi_string@?1??type_case_Z@?$output_processor@_WV?$string_output_adapter@_W@__crt_stdio_output@@V?$format_validation_base@_WV?$string_output_adapter@_W@__crt_stdio_output@@@2@@__crt_stdio_output@@AAE_NXZ@PAU1?1??234@AAE_NXZ@@?$standard_base@_WV?$string_output_adapter@_W@__crt_stdio_output@@@__crt_stdio_output@@IAE_NAAPAUansi_string@?1??type_case_Z@?$output_processor@_WV?$string_output_adapter@_W@__crt_stdio_output@@V?$format_validation_base@_WV?$string_output_adapter@_W@__crt_stdio_output@@@2@@1@AAE_NXZ@@Z 10044c16 f i libucrt:output.obj
 0001:00043c33       ??$extract_argument_from_va_list@PAUansi_string@?1??type_case_Z@?$output_processor@_WV?$string_output_adapter@_W@__crt_stdio_output@@V?$positional_parameter_base@_WV?$string_output_adapter@_W@__crt_stdio_output@@@2@@__crt_stdio_output@@AAE_NXZ@PAU1?1??234@AAE_NXZ@@?$positional_parameter_base@_WV?$string_output_adapter@_W@__crt_stdio_output@@@__crt_stdio_output@@IAE_NAAPAUansi_string@?1??type_case_Z@?$output_processor@_WV?$string_output_adapter@_W@__crt_stdio_output@@V?$positional_parameter_base@_WV?$string_output_adapter@_W@__crt_stdio_output@@@2@@1@AAE_NXZ@@Z 10044c33 f i libucrt:output.obj
 0001:00043cc2       ??$extract_argument_from_va_list@PAUansi_string@?1??type_case_Z@?$output_processor@_WV?$string_output_adapter@_W@__crt_stdio_output@@V?$positional_parameter_base@_WV?$string_output_adapter@_W@__crt_stdio_output@@@2@@__crt_stdio_output@@AAE_NXZ@PAU1?1??234@AAE_NXZ@@?$standard_base@_WV?$string_output_adapter@_W@__crt_stdio_output@@@__crt_stdio_output@@IAE_NAAPAUansi_string@?1??type_case_Z@?$output_processor@_WV?$string_output_adapter@_W@__crt_stdio_output@@V?$positional_parameter_base@_WV?$string_output_adapter@_W@__crt_stdio_output@@@2@@1@AAE_NXZ@@Z 10044cc2 f i libucrt:output.obj
 0001:00043cdf       ??$extract_argument_from_va_list@PAUansi_string@?1??type_case_Z@?$output_processor@_WV?$string_output_adapter@_W@__crt_stdio_output@@V?$standard_base@_WV?$string_output_adapter@_W@__crt_stdio_output@@@2@@__crt_stdio_output@@AAE_NXZ@PAU1?1??234@AAE_NXZ@@?$standard_base@_WV?$string_output_adapter@_W@__crt_stdio_output@@@__crt_stdio_output@@IAE_NAAPAUansi_string@?1??type_case_Z@?$output_processor@_WV?$string_output_adapter@_W@__crt_stdio_output@@V?$standard_base@_WV?$string_output_adapter@_W@__crt_stdio_output@@@2@@1@AAE_NXZ@@Z 10044cdf f i libucrt:output.obj
 0001:00043cfc       ??$extract_argument_from_va_list@PAXPAX@?$positional_parameter_base@DV?$stream_output_adapter@D@__crt_stdio_output@@@__crt_stdio_output@@IAE_NAAPAX@Z 10044cfc f i libucrt:output.obj
 0001:00043d8a       ??$extract_argument_from_va_list@PAXPAX@?$positional_parameter_base@DV?$string_output_adapter@D@__crt_stdio_output@@@__crt_stdio_output@@IAE_NAAPAX@Z 10044d8a f i libucrt:output.obj
 0001:00043e18       ??$extract_argument_from_va_list@PAXPAX@?$positional_parameter_base@_WV?$stream_output_adapter@_W@__crt_stdio_output@@@__crt_stdio_output@@IAE_NAAPAX@Z 10044e18 f i libucrt:output.obj
 0001:00043ea7       ??$extract_argument_from_va_list@PAXPAX@?$positional_parameter_base@_WV?$string_output_adapter@_W@__crt_stdio_output@@@__crt_stdio_output@@IAE_NAAPAX@Z 10044ea7 f i libucrt:output.obj
 0001:00043f36       ??$extract_argument_from_va_list@PAXPAX@?$standard_base@DV?$stream_output_adapter@D@__crt_stdio_output@@@__crt_stdio_output@@IAE_NAAPAX@Z 10044f36 f i libucrt:output.obj
 0001:00043f53       ??$extract_argument_from_va_list@PAXPAX@?$standard_base@DV?$string_output_adapter@D@__crt_stdio_output@@@__crt_stdio_output@@IAE_NAAPAX@Z 10044f53 f i libucrt:output.obj
 0001:00043f70       ??$extract_argument_from_va_list@PAXPAX@?$standard_base@_WV?$stream_output_adapter@_W@__crt_stdio_output@@@__crt_stdio_output@@IAE_NAAPAX@Z 10044f70 f i libucrt:output.obj
 0001:00043f8d       ??$extract_argument_from_va_list@PAXPAX@?$standard_base@_WV?$string_output_adapter@_W@__crt_stdio_output@@@__crt_stdio_output@@IAE_NAAPAX@Z 10044f8d f i libucrt:output.obj
 0001:00043faa       ??$extract_argument_from_va_list@U_CRT_DOUBLE@@U1@@?$positional_parameter_base@DV?$stream_output_adapter@D@__crt_stdio_output@@@__crt_stdio_output@@IAE_NAAU_CRT_DOUBLE@@@Z 10044faa f i libucrt:output.obj
 0001:00044040       ??$extract_argument_from_va_list@U_CRT_DOUBLE@@U1@@?$positional_parameter_base@DV?$string_output_adapter@D@__crt_stdio_output@@@__crt_stdio_output@@IAE_NAAU_CRT_DOUBLE@@@Z 10045040 f i libucrt:output.obj
 0001:000440d6       ??$extract_argument_from_va_list@U_CRT_DOUBLE@@U1@@?$positional_parameter_base@_WV?$stream_output_adapter@_W@__crt_stdio_output@@@__crt_stdio_output@@IAE_NAAU_CRT_DOUBLE@@@Z 100450d6 f i libucrt:output.obj
 0001:0004416d       ??$extract_argument_from_va_list@U_CRT_DOUBLE@@U1@@?$positional_parameter_base@_WV?$string_output_adapter@_W@__crt_stdio_output@@@__crt_stdio_output@@IAE_NAAU_CRT_DOUBLE@@@Z 1004516d f i libucrt:output.obj
 0001:00044204       ??$extract_argument_from_va_list@U_CRT_DOUBLE@@U1@@?$standard_base@DV?$stream_output_adapter@D@__crt_stdio_output@@@__crt_stdio_output@@IAE_NAAU_CRT_DOUBLE@@@Z 10045204 f i libucrt:output.obj
 0001:00044225       ??$extract_argument_from_va_list@U_CRT_DOUBLE@@U1@@?$standard_base@DV?$string_output_adapter@D@__crt_stdio_output@@@__crt_stdio_output@@IAE_NAAU_CRT_DOUBLE@@@Z 10045225 f i libucrt:output.obj
 0001:00044246       ??$extract_argument_from_va_list@U_CRT_DOUBLE@@U1@@?$standard_base@_WV?$stream_output_adapter@_W@__crt_stdio_output@@@__crt_stdio_output@@IAE_NAAU_CRT_DOUBLE@@@Z 10045246 f i libucrt:output.obj
 0001:00044267       ??$extract_argument_from_va_list@U_CRT_DOUBLE@@U1@@?$standard_base@_WV?$string_output_adapter@_W@__crt_stdio_output@@@__crt_stdio_output@@IAE_NAAU_CRT_DOUBLE@@@Z 10045267 f i libucrt:output.obj
 0001:00044288       ??$extract_argument_from_va_list@_J_J@?$positional_parameter_base@DV?$stream_output_adapter@D@__crt_stdio_output@@@__crt_stdio_output@@IAE_NAA_J@Z 10045288 f i libucrt:output.obj
 0001:00044322       ??$extract_argument_from_va_list@_J_J@?$positional_parameter_base@DV?$string_output_adapter@D@__crt_stdio_output@@@__crt_stdio_output@@IAE_NAA_J@Z 10045322 f i libucrt:output.obj
 0001:000443bc       ??$extract_argument_from_va_list@_J_J@?$positional_parameter_base@_WV?$stream_output_adapter@_W@__crt_stdio_output@@@__crt_stdio_output@@IAE_NAA_J@Z 100453bc f i libucrt:output.obj
 0001:00044457       ??$extract_argument_from_va_list@_J_J@?$positional_parameter_base@_WV?$string_output_adapter@_W@__crt_stdio_output@@@__crt_stdio_output@@IAE_NAA_J@Z 10045457 f i libucrt:output.obj
 0001:000444f2       ??$extract_argument_from_va_list@_J_J@?$standard_base@DV?$stream_output_adapter@D@__crt_stdio_output@@@__crt_stdio_output@@IAE_NAA_J@Z 100454f2 f i libucrt:output.obj
 0001:00044513       ??$extract_argument_from_va_list@_J_J@?$standard_base@DV?$string_output_adapter@D@__crt_stdio_output@@@__crt_stdio_output@@IAE_NAA_J@Z 10045513 f i libucrt:output.obj
 0001:00044534       ??$extract_argument_from_va_list@_J_J@?$standard_base@_WV?$stream_output_adapter@_W@__crt_stdio_output@@@__crt_stdio_output@@IAE_NAA_J@Z 10045534 f i libucrt:output.obj
 0001:00044555       ??$extract_argument_from_va_list@_J_J@?$standard_base@_WV?$string_output_adapter@_W@__crt_stdio_output@@@__crt_stdio_output@@IAE_NAA_J@Z 10045555 f i libucrt:output.obj
 0001:00044576       ??$extract_argument_from_va_list@_K_J@?$positional_parameter_base@DV?$stream_output_adapter@D@__crt_stdio_output@@@__crt_stdio_output@@IAE_NAA_J@Z 10045576 f i libucrt:output.obj
 0001:00044610       ??$extract_argument_from_va_list@_K_J@?$positional_parameter_base@DV?$string_output_adapter@D@__crt_stdio_output@@@__crt_stdio_output@@IAE_NAA_J@Z 10045610 f i libucrt:output.obj
 0001:000446aa       ??$extract_argument_from_va_list@_K_J@?$positional_parameter_base@_WV?$stream_output_adapter@_W@__crt_stdio_output@@@__crt_stdio_output@@IAE_NAA_J@Z 100456aa f i libucrt:output.obj
 0001:00044745       ??$extract_argument_from_va_list@_K_J@?$positional_parameter_base@_WV?$string_output_adapter@_W@__crt_stdio_output@@@__crt_stdio_output@@IAE_NAA_J@Z 10045745 f i libucrt:output.obj
 0001:000447e0       ??$extract_argument_from_va_list@_K_J@?$standard_base@DV?$stream_output_adapter@D@__crt_stdio_output@@@__crt_stdio_output@@IAE_NAA_J@Z 100457e0 f i libucrt:output.obj
 0001:00044801       ??$extract_argument_from_va_list@_K_J@?$standard_base@DV?$string_output_adapter@D@__crt_stdio_output@@@__crt_stdio_output@@IAE_NAA_J@Z 10045801 f i libucrt:output.obj
 0001:00044822       ??$extract_argument_from_va_list@_K_J@?$standard_base@_WV?$stream_output_adapter@_W@__crt_stdio_output@@@__crt_stdio_output@@IAE_NAA_J@Z 10045822 f i libucrt:output.obj
 0001:00044843       ??$extract_argument_from_va_list@_K_J@?$standard_base@_WV?$string_output_adapter@_W@__crt_stdio_output@@@__crt_stdio_output@@IAE_NAA_J@Z 10045843 f i libucrt:output.obj
 0001:00044864       ??$extract_argument_from_va_list@_W_W@?$positional_parameter_base@DV?$stream_output_adapter@D@__crt_stdio_output@@@__crt_stdio_output@@IAE_NAA_W@Z 10045864 f i libucrt:output.obj
 0001:000448f6       ??$extract_argument_from_va_list@_W_W@?$positional_parameter_base@DV?$string_output_adapter@D@__crt_stdio_output@@@__crt_stdio_output@@IAE_NAA_W@Z 100458f6 f i libucrt:output.obj
 0001:00044988       ??$extract_argument_from_va_list@_W_W@?$positional_parameter_base@_WV?$stream_output_adapter@_W@__crt_stdio_output@@@__crt_stdio_output@@IAE_NAA_W@Z 10045988 f i libucrt:output.obj
 0001:00044a1b       ??$extract_argument_from_va_list@_W_W@?$positional_parameter_base@_WV?$string_output_adapter@_W@__crt_stdio_output@@@__crt_stdio_output@@IAE_NAA_W@Z 10045a1b f i libucrt:output.obj
 0001:00044aae       ??$extract_argument_from_va_list@_W_W@?$standard_base@DV?$stream_output_adapter@D@__crt_stdio_output@@@__crt_stdio_output@@IAE_NAA_W@Z 10045aae f i libucrt:output.obj
 0001:00044acb       ??$extract_argument_from_va_list@_W_W@?$standard_base@DV?$string_output_adapter@D@__crt_stdio_output@@@__crt_stdio_output@@IAE_NAA_W@Z 10045acb f i libucrt:output.obj
 0001:00044ae8       ??$extract_argument_from_va_list@_W_W@?$standard_base@_WV?$stream_output_adapter@_W@__crt_stdio_output@@@__crt_stdio_output@@IAE_NAA_W@Z 10045ae8 f i libucrt:output.obj
 0001:00044b05       ??$extract_argument_from_va_list@_W_W@?$standard_base@_WV?$string_output_adapter@_W@__crt_stdio_output@@@__crt_stdio_output@@IAE_NAA_W@Z 10045b05 f i libucrt:output.obj
 0001:00044b22       ??$get_parameter_type@D@?$positional_parameter_base@DV?$stream_output_adapter@D@__crt_stdio_output@@@__crt_stdio_output@@CA?AW4parameter_type@01@PAD@Z 10045b22 f i libucrt:output.obj
 0001:00044b26       ??$get_parameter_type@D@?$positional_parameter_base@DV?$string_output_adapter@D@__crt_stdio_output@@@__crt_stdio_output@@CA?AW4parameter_type@01@PAD@Z 10045b26 f i libucrt:output.obj
 0001:00044b2a       ??$get_parameter_type@D@?$positional_parameter_base@_WV?$stream_output_adapter@_W@__crt_stdio_output@@@__crt_stdio_output@@CA?AW4parameter_type@01@PAD@Z 10045b2a f i libucrt:output.obj
 0001:00044b2e       ??$get_parameter_type@D@?$positional_parameter_base@_WV?$string_output_adapter@_W@__crt_stdio_output@@@__crt_stdio_output@@CA?AW4parameter_type@01@PAD@Z 10045b2e f i libucrt:output.obj
 0001:00044b32       ??$get_parameter_type@Uansi_string@?1??type_case_Z@?$output_processor@DV?$stream_output_adapter@D@__crt_stdio_output@@V?$positional_parameter_base@DV?$stream_output_adapter@D@__crt_stdio_output@@@2@@__crt_stdio_output@@AAE_NXZ@@?$positional_parameter_base@DV?$stream_output_adapter@D@__crt_stdio_output@@@__crt_stdio_output@@CA?AW4parameter_type@01@PAUansi_string@?1??type_case_Z@?$output_processor@DV?$stream_output_adapter@D@__crt_stdio_output@@V?$positional_parameter_base@DV?$stream_output_adapter@D@__crt_stdio_output@@@2@@1@AAE_NXZ@@Z 10045b32 f i libucrt:output.obj
 0001:00044b36       ??$get_parameter_type@Uansi_string@?1??type_case_Z@?$output_processor@DV?$string_output_adapter@D@__crt_stdio_output@@V?$positional_parameter_base@DV?$string_output_adapter@D@__crt_stdio_output@@@2@@__crt_stdio_output@@AAE_NXZ@@?$positional_parameter_base@DV?$string_output_adapter@D@__crt_stdio_output@@@__crt_stdio_output@@CA?AW4parameter_type@01@PAUansi_string@?1??type_case_Z@?$output_processor@DV?$string_output_adapter@D@__crt_stdio_output@@V?$positional_parameter_base@DV?$string_output_adapter@D@__crt_stdio_output@@@2@@1@AAE_NXZ@@Z 10045b36 f i libucrt:output.obj
 0001:00044b3a       ??$get_parameter_type@Uansi_string@?1??type_case_Z@?$output_processor@_WV?$stream_output_adapter@_W@__crt_stdio_output@@V?$positional_parameter_base@_WV?$stream_output_adapter@_W@__crt_stdio_output@@@2@@__crt_stdio_output@@AAE_NXZ@@?$positional_parameter_base@_WV?$stream_output_adapter@_W@__crt_stdio_output@@@__crt_stdio_output@@CA?AW4parameter_type@01@PAUansi_string@?1??type_case_Z@?$output_processor@_WV?$stream_output_adapter@_W@__crt_stdio_output@@V?$positional_parameter_base@_WV?$stream_output_adapter@_W@__crt_stdio_output@@@2@@1@AAE_NXZ@@Z 10045b3a f i libucrt:output.obj
 0001:00044b3e       ??$get_parameter_type@Uansi_string@?1??type_case_Z@?$output_processor@_WV?$string_output_adapter@_W@__crt_stdio_output@@V?$positional_parameter_base@_WV?$string_output_adapter@_W@__crt_stdio_output@@@2@@__crt_stdio_output@@AAE_NXZ@@?$positional_parameter_base@_WV?$string_output_adapter@_W@__crt_stdio_output@@@__crt_stdio_output@@CA?AW4parameter_type@01@PAUansi_string@?1??type_case_Z@?$output_processor@_WV?$string_output_adapter@_W@__crt_stdio_output@@V?$positional_parameter_base@_WV?$string_output_adapter@_W@__crt_stdio_output@@@2@@1@AAE_NXZ@@Z 10045b3e f i libucrt:output.obj
 0001:00044b42       ??$get_parameter_type@X@?$positional_parameter_base@DV?$stream_output_adapter@D@__crt_stdio_output@@@__crt_stdio_output@@CA?AW4parameter_type@01@PAX@Z 10045b42 f i libucrt:output.obj
 0001:00044b46       ??$get_parameter_type@X@?$positional_parameter_base@DV?$string_output_adapter@D@__crt_stdio_output@@@__crt_stdio_output@@CA?AW4parameter_type@01@PAX@Z 10045b46 f i libucrt:output.obj
 0001:00044b4a       ??$get_parameter_type@X@?$positional_parameter_base@_WV?$stream_output_adapter@_W@__crt_stdio_output@@@__crt_stdio_output@@CA?AW4parameter_type@01@PAX@Z 10045b4a f i libucrt:output.obj
 0001:00044b4e       ??$get_parameter_type@X@?$positional_parameter_base@_WV?$string_output_adapter@_W@__crt_stdio_output@@@__crt_stdio_output@@CA?AW4parameter_type@01@PAX@Z 10045b4e f i libucrt:output.obj
 0001:00044b52       ??$is_character_specifier@D@?$positional_parameter_base@DV?$stream_output_adapter@D@__crt_stdio_output@@@__crt_stdio_output@@CA_ND@Z 10045b52 f i libucrt:output.obj
 0001:00044b6a       ??$is_character_specifier@D@?$positional_parameter_base@DV?$string_output_adapter@D@__crt_stdio_output@@@__crt_stdio_output@@CA_ND@Z 10045b6a f i libucrt:output.obj
 0001:00044b82       ??$is_character_specifier@_W@?$positional_parameter_base@_WV?$stream_output_adapter@_W@__crt_stdio_output@@@__crt_stdio_output@@CA_N_W@Z 10045b82 f i libucrt:output.obj
 0001:00044b9d       ??$is_character_specifier@_W@?$positional_parameter_base@_WV?$string_output_adapter@_W@__crt_stdio_output@@@__crt_stdio_output@@CA_N_W@Z 10045b9d f i libucrt:output.obj
 0001:00044bb8       ??$is_integral_specifier@D@?$positional_parameter_base@DV?$stream_output_adapter@D@__crt_stdio_output@@@__crt_stdio_output@@CA_ND@Z 10045bb8 f i libucrt:output.obj
 0001:00044be4       ??$is_integral_specifier@D@?$positional_parameter_base@DV?$string_output_adapter@D@__crt_stdio_output@@@__crt_stdio_output@@CA_ND@Z 10045be4 f i libucrt:output.obj
 0001:00044c10       ??$is_integral_specifier@_W@?$positional_parameter_base@_WV?$stream_output_adapter@_W@__crt_stdio_output@@@__crt_stdio_output@@CA_N_W@Z 10045c10 f i libucrt:output.obj
 0001:00044c4b       ??$is_integral_specifier@_W@?$positional_parameter_base@_WV?$string_output_adapter@_W@__crt_stdio_output@@@__crt_stdio_output@@CA_N_W@Z 10045c4b f i libucrt:output.obj
 0001:00044c86       ??$is_pointer_specifier@D@?$positional_parameter_base@DV?$stream_output_adapter@D@__crt_stdio_output@@@__crt_stdio_output@@CA_ND@Z 10045c86 f i libucrt:output.obj
 0001:00044c94       ??$is_pointer_specifier@D@?$positional_parameter_base@DV?$string_output_adapter@D@__crt_stdio_output@@@__crt_stdio_output@@CA_ND@Z 10045c94 f i libucrt:output.obj
 0001:00044ca2       ??$is_pointer_specifier@_W@?$positional_parameter_base@_WV?$stream_output_adapter@_W@__crt_stdio_output@@@__crt_stdio_output@@CA_N_W@Z 10045ca2 f i libucrt:output.obj
 0001:00044cb1       ??$is_pointer_specifier@_W@?$positional_parameter_base@_WV?$string_output_adapter@_W@__crt_stdio_output@@@__crt_stdio_output@@CA_N_W@Z 10045cb1 f i libucrt:output.obj
 0001:00044cc0       ??$is_string_specifier@D@?$positional_parameter_base@DV?$stream_output_adapter@D@__crt_stdio_output@@@__crt_stdio_output@@CA_ND@Z 10045cc0 f i libucrt:output.obj
 0001:00044cd8       ??$is_string_specifier@D@?$positional_parameter_base@DV?$string_output_adapter@D@__crt_stdio_output@@@__crt_stdio_output@@CA_ND@Z 10045cd8 f i libucrt:output.obj
 0001:00044cf0       ??$is_string_specifier@_W@?$positional_parameter_base@_WV?$stream_output_adapter@_W@__crt_stdio_output@@@__crt_stdio_output@@CA_N_W@Z 10045cf0 f i libucrt:output.obj
 0001:00044d0b       ??$is_string_specifier@_W@?$positional_parameter_base@_WV?$string_output_adapter@_W@__crt_stdio_output@@@__crt_stdio_output@@CA_N_W@Z 10045d0b f i libucrt:output.obj
 0001:00044d26       ??$is_wide_character_specifier@D@__crt_stdio_output@@YA_N_KDW4length_modifier@0@@Z 10045d26 f i libucrt:output.obj
 0001:00044d57       ??$is_wide_character_specifier@_W@__crt_stdio_output@@YA_N_K_WW4length_modifier@0@@Z 10045d57 f i libucrt:output.obj
 0001:00044da5       ??$make_c_string_character_source@DPAPAD@__crt_strtox@@YA?AV?$c_string_character_source@D@0@QBDQAPAD@Z 10045da5 f i libucrt:output.obj
 0001:00044dc0       ??$make_c_string_character_source@_WPAPA_W@__crt_strtox@@YA?AV?$c_string_character_source@_W@0@QB_WQAPA_W@Z 10045dc0 f i libucrt:output.obj
 0001:00044ddb       ??$parse_integer@KV?$c_string_character_source@D@__crt_strtox@@$0A@@__crt_strtox@@YAKAAV__crt_cached_ptd_host@@V?$c_string_character_source@D@0@H_N@Z 10045ddb f i libucrt:output.obj
 0001:00044fea       ??$parse_integer@KV?$c_string_character_source@_W@__crt_strtox@@$0A@@__crt_strtox@@YAKAAV__crt_cached_ptd_host@@V?$c_string_character_source@_W@0@H_N@Z 10045fea f i libucrt:output.obj
 0001:000455bd       ??$peek_va_arg@C@__crt_stdio_output@@YACPAD@Z 100465bd f i libucrt:output.obj
 0001:000455c9       ??$peek_va_arg@E@__crt_stdio_output@@YAEPAD@Z 100465c9 f i libucrt:output.obj
 0001:000455d5       ??$peek_va_arg@F@__crt_stdio_output@@YAFPAD@Z 100465d5 f i libucrt:output.obj
 0001:000455e2       ??$peek_va_arg@G@__crt_stdio_output@@YAGPAD@Z 100465e2 f i libucrt:output.obj
 0001:000455ef       ??$peek_va_arg@H@__crt_stdio_output@@YAHPAD@Z 100465ef f i libucrt:output.obj
 0001:000455fb       ??$peek_va_arg@I@__crt_stdio_output@@YAIPAD@Z 100465fb f i libucrt:output.obj
 0001:00045607       ??$peek_va_arg@PAD@__crt_stdio_output@@YAPADPAD@Z 10046607 f i libucrt:output.obj
 0001:00045613       ??$peek_va_arg@PAUansi_string@?1??type_case_Z@?$output_processor@DV?$stream_output_adapter@D@__crt_stdio_output@@V?$positional_parameter_base@DV?$stream_output_adapter@D@__crt_stdio_output@@@2@@__crt_stdio_output@@AAE_NXZ@@__crt_stdio_output@@YAPAUansi_string@?1??type_case_Z@?$output_processor@DV?$stream_output_adapter@D@__crt_stdio_output@@V?$positional_parameter_base@DV?$stream_output_adapter@D@__crt_stdio_output@@@2@@0@AAE_NXZ@PAD@Z 10046613 f i libucrt:output.obj
 0001:0004561f       ??$peek_va_arg@PAUansi_string@?1??type_case_Z@?$output_processor@DV?$string_output_adapter@D@__crt_stdio_output@@V?$positional_parameter_base@DV?$string_output_adapter@D@__crt_stdio_output@@@2@@__crt_stdio_output@@AAE_NXZ@@__crt_stdio_output@@YAPAUansi_string@?1??type_case_Z@?$output_processor@DV?$string_output_adapter@D@__crt_stdio_output@@V?$positional_parameter_base@DV?$string_output_adapter@D@__crt_stdio_output@@@2@@0@AAE_NXZ@PAD@Z 1004661f f i libucrt:output.obj
 0001:0004562b       ??$peek_va_arg@PAUansi_string@?1??type_case_Z@?$output_processor@_WV?$stream_output_adapter@_W@__crt_stdio_output@@V?$positional_parameter_base@_WV?$stream_output_adapter@_W@__crt_stdio_output@@@2@@__crt_stdio_output@@AAE_NXZ@@__crt_stdio_output@@YAPAUansi_string@?1??type_case_Z@?$output_processor@_WV?$stream_output_adapter@_W@__crt_stdio_output@@V?$positional_parameter_base@_WV?$stream_output_adapter@_W@__crt_stdio_output@@@2@@0@AAE_NXZ@PAD@Z 1004662b f i libucrt:output.obj
 0001:00045637       ??$peek_va_arg@PAUansi_string@?1??type_case_Z@?$output_processor@_WV?$string_output_adapter@_W@__crt_stdio_output@@V?$positional_parameter_base@_WV?$string_output_adapter@_W@__crt_stdio_output@@@2@@__crt_stdio_output@@AAE_NXZ@@__crt_stdio_output@@YAPAUansi_string@?1??type_case_Z@?$output_processor@_WV?$string_output_adapter@_W@__crt_stdio_output@@V?$positional_parameter_base@_WV?$string_output_adapter@_W@__crt_stdio_output@@@2@@0@AAE_NXZ@PAD@Z 10046637 f i libucrt:output.obj
 0001:00045643       ??$peek_va_arg@PAX@__crt_stdio_output@@YAPAXPAD@Z 10046643 f i libucrt:output.obj
 0001:0004564f       ??$peek_va_arg@U_CRT_DOUBLE@@@__crt_stdio_output@@YA?AU_CRT_DOUBLE@@PAD@Z 1004664f f i libucrt:output.obj
 0001:0004565e       ??$peek_va_arg@_J@__crt_stdio_output@@YA_JPAD@Z 1004665e f i libucrt:output.obj
 0001:0004566d       ??$peek_va_arg@_K@__crt_stdio_output@@YA_KPAD@Z 1004666d f i libucrt:output.obj
 0001:0004567c       ??$peek_va_arg@_W@__crt_stdio_output@@YA_WPAD@Z 1004667c f i libucrt:output.obj
 0001:00045689       ??$puttc_nolock_internal@ABDPAU_iobuf@@AAV__crt_cached_ptd_host@@@?$__crt_char_traits@D@@SAHABD$$QAPAU_iobuf@@AAV__crt_cached_ptd_host@@@Z 10046689 f i libucrt:output.obj
 0001:000456a7       ??$puttc_nolock_internal@AB_WPAU_iobuf@@AAV__crt_cached_ptd_host@@@?$__crt_char_traits@_W@@SAGAB_W$$QAPAU_iobuf@@AAV__crt_cached_ptd_host@@@Z 100466a7 f i libucrt:output.obj
 0001:000456c5       ??$read_va_arg@C@__crt_stdio_output@@YACAAPAD@Z 100466c5 f i libucrt:output.obj
 0001:000456d8       ??$read_va_arg@E@__crt_stdio_output@@YAEAAPAD@Z 100466d8 f i libucrt:output.obj
 0001:000456eb       ??$read_va_arg@F@__crt_stdio_output@@YAFAAPAD@Z 100466eb f i libucrt:output.obj
 0001:000456ff       ??$read_va_arg@G@__crt_stdio_output@@YAGAAPAD@Z 100466ff f i libucrt:output.obj
 0001:00045713       ??$read_va_arg@H@__crt_stdio_output@@YAHAAPAD@Z 10046713 f i libucrt:output.obj
 0001:00045726       ??$read_va_arg@I@__crt_stdio_output@@YAIAAPAD@Z 10046726 f i libucrt:output.obj
 0001:00045739       ??$read_va_arg@PAD@__crt_stdio_output@@YAPADAAPAD@Z 10046739 f i libucrt:output.obj
 0001:0004574c       ??$read_va_arg@PAUansi_string@?1??type_case_Z@?$output_processor@DV?$stream_output_adapter@D@__crt_stdio_output@@V?$format_validation_base@DV?$stream_output_adapter@D@__crt_stdio_output@@@2@@__crt_stdio_output@@AAE_NXZ@@__crt_stdio_output@@YAPAUansi_string@?1??type_case_Z@?$output_processor@DV?$stream_output_adapter@D@__crt_stdio_output@@V?$format_validation_base@DV?$stream_output_adapter@D@__crt_stdio_output@@@2@@0@AAE_NXZ@AAPAD@Z 1004674c f i libucrt:output.obj
 0001:0004575f       ??$read_va_arg@PAUansi_string@?1??type_case_Z@?$output_processor@DV?$stream_output_adapter@D@__crt_stdio_output@@V?$positional_parameter_base@DV?$stream_output_adapter@D@__crt_stdio_output@@@2@@__crt_stdio_output@@AAE_NXZ@@__crt_stdio_output@@YAPAUansi_string@?1??type_case_Z@?$output_processor@DV?$stream_output_adapter@D@__crt_stdio_output@@V?$positional_parameter_base@DV?$stream_output_adapter@D@__crt_stdio_output@@@2@@0@AAE_NXZ@AAPAD@Z 1004675f f i libucrt:output.obj
 0001:00045772       ??$read_va_arg@PAUansi_string@?1??type_case_Z@?$output_processor@DV?$stream_output_adapter@D@__crt_stdio_output@@V?$standard_base@DV?$stream_output_adapter@D@__crt_stdio_output@@@2@@__crt_stdio_output@@AAE_NXZ@@__crt_stdio_output@@YAPAUansi_string@?1??type_case_Z@?$output_processor@DV?$stream_output_adapter@D@__crt_stdio_output@@V?$standard_base@DV?$stream_output_adapter@D@__crt_stdio_output@@@2@@0@AAE_NXZ@AAPAD@Z 10046772 f i libucrt:output.obj
 0001:00045785       ??$read_va_arg@PAUansi_string@?1??type_case_Z@?$output_processor@DV?$string_output_adapter@D@__crt_stdio_output@@V?$format_validation_base@DV?$string_output_adapter@D@__crt_stdio_output@@@2@@__crt_stdio_output@@AAE_NXZ@@__crt_stdio_output@@YAPAUansi_string@?1??type_case_Z@?$output_processor@DV?$string_output_adapter@D@__crt_stdio_output@@V?$format_validation_base@DV?$string_output_adapter@D@__crt_stdio_output@@@2@@0@AAE_NXZ@AAPAD@Z 10046785 f i libucrt:output.obj
 0001:00045798       ??$read_va_arg@PAUansi_string@?1??type_case_Z@?$output_processor@DV?$string_output_adapter@D@__crt_stdio_output@@V?$positional_parameter_base@DV?$string_output_adapter@D@__crt_stdio_output@@@2@@__crt_stdio_output@@AAE_NXZ@@__crt_stdio_output@@YAPAUansi_string@?1??type_case_Z@?$output_processor@DV?$string_output_adapter@D@__crt_stdio_output@@V?$positional_parameter_base@DV?$string_output_adapter@D@__crt_stdio_output@@@2@@0@AAE_NXZ@AAPAD@Z 10046798 f i libucrt:output.obj
 0001:000457ab       ??$read_va_arg@PAUansi_string@?1??type_case_Z@?$output_processor@DV?$string_output_adapter@D@__crt_stdio_output@@V?$standard_base@DV?$string_output_adapter@D@__crt_stdio_output@@@2@@__crt_stdio_output@@AAE_NXZ@@__crt_stdio_output@@YAPAUansi_string@?1??type_case_Z@?$output_processor@DV?$string_output_adapter@D@__crt_stdio_output@@V?$standard_base@DV?$string_output_adapter@D@__crt_stdio_output@@@2@@0@AAE_NXZ@AAPAD@Z 100467ab f i libucrt:output.obj
 0001:000457be       ??$read_va_arg@PAUansi_string@?1??type_case_Z@?$output_processor@_WV?$stream_output_adapter@_W@__crt_stdio_output@@V?$format_validation_base@_WV?$stream_output_adapter@_W@__crt_stdio_output@@@2@@__crt_stdio_output@@AAE_NXZ@@__crt_stdio_output@@YAPAUansi_string@?1??type_case_Z@?$output_processor@_WV?$stream_output_adapter@_W@__crt_stdio_output@@V?$format_validation_base@_WV?$stream_output_adapter@_W@__crt_stdio_output@@@2@@0@AAE_NXZ@AAPAD@Z 100467be f i libucrt:output.obj
 0001:000457d1       ??$read_va_arg@PAUansi_string@?1??type_case_Z@?$output_processor@_WV?$stream_output_adapter@_W@__crt_stdio_output@@V?$positional_parameter_base@_WV?$stream_output_adapter@_W@__crt_stdio_output@@@2@@__crt_stdio_output@@AAE_NXZ@@__crt_stdio_output@@YAPAUansi_string@?1??type_case_Z@?$output_processor@_WV?$stream_output_adapter@_W@__crt_stdio_output@@V?$positional_parameter_base@_WV?$stream_output_adapter@_W@__crt_stdio_output@@@2@@0@AAE_NXZ@AAPAD@Z 100467d1 f i libucrt:output.obj
 0001:000457e4       ??$read_va_arg@PAUansi_string@?1??type_case_Z@?$output_processor@_WV?$stream_output_adapter@_W@__crt_stdio_output@@V?$standard_base@_WV?$stream_output_adapter@_W@__crt_stdio_output@@@2@@__crt_stdio_output@@AAE_NXZ@@__crt_stdio_output@@YAPAUansi_string@?1??type_case_Z@?$output_processor@_WV?$stream_output_adapter@_W@__crt_stdio_output@@V?$standard_base@_WV?$stream_output_adapter@_W@__crt_stdio_output@@@2@@0@AAE_NXZ@AAPAD@Z 100467e4 f i libucrt:output.obj
 0001:000457f7       ??$read_va_arg@PAUansi_string@?1??type_case_Z@?$output_processor@_WV?$string_output_adapter@_W@__crt_stdio_output@@V?$format_validation_base@_WV?$string_output_adapter@_W@__crt_stdio_output@@@2@@__crt_stdio_output@@AAE_NXZ@@__crt_stdio_output@@YAPAUansi_string@?1??type_case_Z@?$output_processor@_WV?$string_output_adapter@_W@__crt_stdio_output@@V?$format_validation_base@_WV?$string_output_adapter@_W@__crt_stdio_output@@@2@@0@AAE_NXZ@AAPAD@Z 100467f7 f i libucrt:output.obj
 0001:0004580a       ??$read_va_arg@PAUansi_string@?1??type_case_Z@?$output_processor@_WV?$string_output_adapter@_W@__crt_stdio_output@@V?$positional_parameter_base@_WV?$string_output_adapter@_W@__crt_stdio_output@@@2@@__crt_stdio_output@@AAE_NXZ@@__crt_stdio_output@@YAPAUansi_string@?1??type_case_Z@?$output_processor@_WV?$string_output_adapter@_W@__crt_stdio_output@@V?$positional_parameter_base@_WV?$string_output_adapter@_W@__crt_stdio_output@@@2@@0@AAE_NXZ@AAPAD@Z 1004680a f i libucrt:output.obj
 0001:0004581d       ??$read_va_arg@PAUansi_string@?1??type_case_Z@?$output_processor@_WV?$string_output_adapter@_W@__crt_stdio_output@@V?$standard_base@_WV?$string_output_adapter@_W@__crt_stdio_output@@@2@@__crt_stdio_output@@AAE_NXZ@@__crt_stdio_output@@YAPAUansi_string@?1??type_case_Z@?$output_processor@_WV?$string_output_adapter@_W@__crt_stdio_output@@V?$standard_base@_WV?$string_output_adapter@_W@__crt_stdio_output@@@2@@0@AAE_NXZ@AAPAD@Z 1004681d f i libucrt:output.obj
 0001:00045830       ??$read_va_arg@PAX@__crt_stdio_output@@YAPAXAAPAD@Z 10046830 f i libucrt:output.obj
 0001:00045843       ??$read_va_arg@U_CRT_DOUBLE@@@__crt_stdio_output@@YA?AU_CRT_DOUBLE@@AAPAD@Z 10046843 f i libucrt:output.obj
 0001:00045859       ??$read_va_arg@_J@__crt_stdio_output@@YA_JAAPAD@Z 10046859 f i libucrt:output.obj
 0001:0004586f       ??$read_va_arg@_K@__crt_stdio_output@@YA_KAAPAD@Z 1004686f f i libucrt:output.obj
 0001:00045885       ??$read_va_arg@_W@__crt_stdio_output@@YA_WAAPAD@Z 10046885 f i libucrt:output.obj
 0001:00045899       ??$scratch_count@D@formatting_buffer@__crt_stdio_output@@QBEIXZ 10046899 f i libucrt:output.obj
 0001:0004589e       ??$scratch_data@D@formatting_buffer@__crt_stdio_output@@QAEPADXZ 1004689e f i libucrt:output.obj
 0001:000458bc       ??$type_case_integer@$07@?$output_processor@DV?$stream_output_adapter@D@__crt_stdio_output@@V?$format_validation_base@DV?$stream_output_adapter@D@__crt_stdio_output@@@2@@__crt_stdio_output@@AAE_N_N@Z 100468bc f i libucrt:output.obj
 0001:00045a49       ??$type_case_integer@$07@?$output_processor@DV?$stream_output_adapter@D@__crt_stdio_output@@V?$positional_parameter_base@DV?$stream_output_adapter@D@__crt_stdio_output@@@2@@__crt_stdio_output@@AAE_N_N@Z 10046a49 f i libucrt:output.obj
 0001:00045be5       ??$type_case_integer@$07@?$output_processor@DV?$stream_output_adapter@D@__crt_stdio_output@@V?$standard_base@DV?$stream_output_adapter@D@__crt_stdio_output@@@2@@__crt_stdio_output@@AAE_N_N@Z 10046be5 f i libucrt:output.obj
 0001:00045d72       ??$type_case_integer@$07@?$output_processor@DV?$string_output_adapter@D@__crt_stdio_output@@V?$format_validation_base@DV?$string_output_adapter@D@__crt_stdio_output@@@2@@__crt_stdio_output@@AAE_N_N@Z 10046d72 f i libucrt:output.obj
 0001:00045eff       ??$type_case_integer@$07@?$output_processor@DV?$string_output_adapter@D@__crt_stdio_output@@V?$positional_parameter_base@DV?$string_output_adapter@D@__crt_stdio_output@@@2@@__crt_stdio_output@@AAE_N_N@Z 10046eff f i libucrt:output.obj
 0001:0004609b       ??$type_case_integer@$07@?$output_processor@DV?$string_output_adapter@D@__crt_stdio_output@@V?$standard_base@DV?$string_output_adapter@D@__crt_stdio_output@@@2@@__crt_stdio_output@@AAE_N_N@Z 1004709b f i libucrt:output.obj
 0001:00046228       ??$type_case_integer@$07@?$output_processor@_WV?$stream_output_adapter@_W@__crt_stdio_output@@V?$format_validation_base@_WV?$stream_output_adapter@_W@__crt_stdio_output@@@2@@__crt_stdio_output@@AAE_N_N@Z 10047228 f i libucrt:output.obj
 0001:000463ba       ??$type_case_integer@$07@?$output_processor@_WV?$stream_output_adapter@_W@__crt_stdio_output@@V?$positional_parameter_base@_WV?$stream_output_adapter@_W@__crt_stdio_output@@@2@@__crt_stdio_output@@AAE_N_N@Z 100473ba f i libucrt:output.obj
 0001:0004655a       ??$type_case_integer@$07@?$output_processor@_WV?$stream_output_adapter@_W@__crt_stdio_output@@V?$standard_base@_WV?$stream_output_adapter@_W@__crt_stdio_output@@@2@@__crt_stdio_output@@AAE_N_N@Z 1004755a f i libucrt:output.obj
 0001:000466ec       ??$type_case_integer@$07@?$output_processor@_WV?$string_output_adapter@_W@__crt_stdio_output@@V?$format_validation_base@_WV?$string_output_adapter@_W@__crt_stdio_output@@@2@@__crt_stdio_output@@AAE_N_N@Z 100476ec f i libucrt:output.obj
 0001:0004687e       ??$type_case_integer@$07@?$output_processor@_WV?$string_output_adapter@_W@__crt_stdio_output@@V?$positional_parameter_base@_WV?$string_output_adapter@_W@__crt_stdio_output@@@2@@__crt_stdio_output@@AAE_N_N@Z 1004787e f i libucrt:output.obj
 0001:00046a1e       ??$type_case_integer@$07@?$output_processor@_WV?$string_output_adapter@_W@__crt_stdio_output@@V?$standard_base@_WV?$string_output_adapter@_W@__crt_stdio_output@@@2@@__crt_stdio_output@@AAE_N_N@Z 10047a1e f i libucrt:output.obj
 0001:00046bb0       ??$type_case_integer@$09@?$output_processor@DV?$stream_output_adapter@D@__crt_stdio_output@@V?$format_validation_base@DV?$stream_output_adapter@D@__crt_stdio_output@@@2@@__crt_stdio_output@@AAE_N_N@Z 10047bb0 f i libucrt:output.obj
 0001:00046d3d       ??$type_case_integer@$09@?$output_processor@DV?$stream_output_adapter@D@__crt_stdio_output@@V?$positional_parameter_base@DV?$stream_output_adapter@D@__crt_stdio_output@@@2@@__crt_stdio_output@@AAE_N_N@Z 10047d3d f i libucrt:output.obj
 0001:00046ed9       ??$type_case_integer@$09@?$output_processor@DV?$stream_output_adapter@D@__crt_stdio_output@@V?$standard_base@DV?$stream_output_adapter@D@__crt_stdio_output@@@2@@__crt_stdio_output@@AAE_N_N@Z 10047ed9 f i libucrt:output.obj
 0001:00047066       ??$type_case_integer@$09@?$output_processor@DV?$string_output_adapter@D@__crt_stdio_output@@V?$format_validation_base@DV?$string_output_adapter@D@__crt_stdio_output@@@2@@__crt_stdio_output@@AAE_N_N@Z 10048066 f i libucrt:output.obj
 0001:000471f3       ??$type_case_integer@$09@?$output_processor@DV?$string_output_adapter@D@__crt_stdio_output@@V?$positional_parameter_base@DV?$string_output_adapter@D@__crt_stdio_output@@@2@@__crt_stdio_output@@AAE_N_N@Z 100481f3 f i libucrt:output.obj
 0001:0004738f       ??$type_case_integer@$09@?$output_processor@DV?$string_output_adapter@D@__crt_stdio_output@@V?$standard_base@DV?$string_output_adapter@D@__crt_stdio_output@@@2@@__crt_stdio_output@@AAE_N_N@Z 1004838f f i libucrt:output.obj
 0001:0004751c       ??$type_case_integer@$09@?$output_processor@_WV?$stream_output_adapter@_W@__crt_stdio_output@@V?$format_validation_base@_WV?$stream_output_adapter@_W@__crt_stdio_output@@@2@@__crt_stdio_output@@AAE_N_N@Z 1004851c f i libucrt:output.obj
 0001:000476ae       ??$type_case_integer@$09@?$output_processor@_WV?$stream_output_adapter@_W@__crt_stdio_output@@V?$positional_parameter_base@_WV?$stream_output_adapter@_W@__crt_stdio_output@@@2@@__crt_stdio_output@@AAE_N_N@Z 100486ae f i libucrt:output.obj
 0001:0004784e       ??$type_case_integer@$09@?$output_processor@_WV?$stream_output_adapter@_W@__crt_stdio_output@@V?$standard_base@_WV?$stream_output_adapter@_W@__crt_stdio_output@@@2@@__crt_stdio_output@@AAE_N_N@Z 1004884e f i libucrt:output.obj
 0001:000479e0       ??$type_case_integer@$09@?$output_processor@_WV?$string_output_adapter@_W@__crt_stdio_output@@V?$format_validation_base@_WV?$string_output_adapter@_W@__crt_stdio_output@@@2@@__crt_stdio_output@@AAE_N_N@Z 100489e0 f i libucrt:output.obj
 0001:00047b72       ??$type_case_integer@$09@?$output_processor@_WV?$string_output_adapter@_W@__crt_stdio_output@@V?$positional_parameter_base@_WV?$string_output_adapter@_W@__crt_stdio_output@@@2@@__crt_stdio_output@@AAE_N_N@Z 10048b72 f i libucrt:output.obj
 0001:00047d12       ??$type_case_integer@$09@?$output_processor@_WV?$string_output_adapter@_W@__crt_stdio_output@@V?$standard_base@_WV?$string_output_adapter@_W@__crt_stdio_output@@@2@@__crt_stdio_output@@AAE_N_N@Z 10048d12 f i libucrt:output.obj
 0001:00047ea4       ??$type_case_integer@$0BA@@?$output_processor@DV?$stream_output_adapter@D@__crt_stdio_output@@V?$format_validation_base@DV?$stream_output_adapter@D@__crt_stdio_output@@@2@@__crt_stdio_output@@AAE_N_N@Z 10048ea4 f i libucrt:output.obj
 0001:00048031       ??$type_case_integer@$0BA@@?$output_processor@DV?$stream_output_adapter@D@__crt_stdio_output@@V?$positional_parameter_base@DV?$stream_output_adapter@D@__crt_stdio_output@@@2@@__crt_stdio_output@@AAE_N_N@Z 10049031 f i libucrt:output.obj
 0001:000481cd       ??$type_case_integer@$0BA@@?$output_processor@DV?$stream_output_adapter@D@__crt_stdio_output@@V?$standard_base@DV?$stream_output_adapter@D@__crt_stdio_output@@@2@@__crt_stdio_output@@AAE_N_N@Z 100491cd f i libucrt:output.obj
 0001:0004835a       ??$type_case_integer@$0BA@@?$output_processor@DV?$string_output_adapter@D@__crt_stdio_output@@V?$format_validation_base@DV?$string_output_adapter@D@__crt_stdio_output@@@2@@__crt_stdio_output@@AAE_N_N@Z 1004935a f i libucrt:output.obj
 0001:000484e7       ??$type_case_integer@$0BA@@?$output_processor@DV?$string_output_adapter@D@__crt_stdio_output@@V?$positional_parameter_base@DV?$string_output_adapter@D@__crt_stdio_output@@@2@@__crt_stdio_output@@AAE_N_N@Z 100494e7 f i libucrt:output.obj
 0001:00048683       ??$type_case_integer@$0BA@@?$output_processor@DV?$string_output_adapter@D@__crt_stdio_output@@V?$standard_base@DV?$string_output_adapter@D@__crt_stdio_output@@@2@@__crt_stdio_output@@AAE_N_N@Z 10049683 f i libucrt:output.obj
 0001:00048810       ??$type_case_integer@$0BA@@?$output_processor@_WV?$stream_output_adapter@_W@__crt_stdio_output@@V?$format_validation_base@_WV?$stream_output_adapter@_W@__crt_stdio_output@@@2@@__crt_stdio_output@@AAE_N_N@Z 10049810 f i libucrt:output.obj
 0001:000489a2       ??$type_case_integer@$0BA@@?$output_processor@_WV?$stream_output_adapter@_W@__crt_stdio_output@@V?$positional_parameter_base@_WV?$stream_output_adapter@_W@__crt_stdio_output@@@2@@__crt_stdio_output@@AAE_N_N@Z 100499a2 f i libucrt:output.obj
 0001:00048b42       ??$type_case_integer@$0BA@@?$output_processor@_WV?$stream_output_adapter@_W@__crt_stdio_output@@V?$standard_base@_WV?$stream_output_adapter@_W@__crt_stdio_output@@@2@@__crt_stdio_output@@AAE_N_N@Z 10049b42 f i libucrt:output.obj
 0001:00048cd4       ??$type_case_integer@$0BA@@?$output_processor@_WV?$string_output_adapter@_W@__crt_stdio_output@@V?$format_validation_base@_WV?$string_output_adapter@_W@__crt_stdio_output@@@2@@__crt_stdio_output@@AAE_N_N@Z 10049cd4 f i libucrt:output.obj
 0001:00048e66       ??$type_case_integer@$0BA@@?$output_processor@_WV?$string_output_adapter@_W@__crt_stdio_output@@V?$positional_parameter_base@_WV?$string_output_adapter@_W@__crt_stdio_output@@@2@@__crt_stdio_output@@AAE_N_N@Z 10049e66 f i libucrt:output.obj
 0001:00049006       ??$type_case_integer@$0BA@@?$output_processor@_WV?$string_output_adapter@_W@__crt_stdio_output@@V?$standard_base@_WV?$string_output_adapter@_W@__crt_stdio_output@@@2@@__crt_stdio_output@@AAE_N_N@Z 1004a006 f i libucrt:output.obj
 0001:00049198       ??$type_case_integer_parse_into_buffer@I$07@?$output_processor@DV?$stream_output_adapter@D@__crt_stdio_output@@V?$format_validation_base@DV?$stream_output_adapter@D@__crt_stdio_output@@@2@@__crt_stdio_output@@AAEXI_N@Z 1004a198 f i libucrt:output.obj
 0001:000491fb       ??$type_case_integer_parse_into_buffer@I$07@?$output_processor@DV?$stream_output_adapter@D@__crt_stdio_output@@V?$positional_parameter_base@DV?$stream_output_adapter@D@__crt_stdio_output@@@2@@__crt_stdio_output@@AAEXI_N@Z 1004a1fb f i libucrt:output.obj
 0001:0004925e       ??$type_case_integer_parse_into_buffer@I$07@?$output_processor@DV?$stream_output_adapter@D@__crt_stdio_output@@V?$standard_base@DV?$stream_output_adapter@D@__crt_stdio_output@@@2@@__crt_stdio_output@@AAEXI_N@Z 1004a25e f i libucrt:output.obj
 0001:000492c1       ??$type_case_integer_parse_into_buffer@I$07@?$output_processor@DV?$string_output_adapter@D@__crt_stdio_output@@V?$format_validation_base@DV?$string_output_adapter@D@__crt_stdio_output@@@2@@__crt_stdio_output@@AAEXI_N@Z 1004a2c1 f i libucrt:output.obj
 0001:00049324       ??$type_case_integer_parse_into_buffer@I$07@?$output_processor@DV?$string_output_adapter@D@__crt_stdio_output@@V?$positional_parameter_base@DV?$string_output_adapter@D@__crt_stdio_output@@@2@@__crt_stdio_output@@AAEXI_N@Z 1004a324 f i libucrt:output.obj
 0001:00049387       ??$type_case_integer_parse_into_buffer@I$07@?$output_processor@DV?$string_output_adapter@D@__crt_stdio_output@@V?$standard_base@DV?$string_output_adapter@D@__crt_stdio_output@@@2@@__crt_stdio_output@@AAEXI_N@Z 1004a387 f i libucrt:output.obj
 0001:000493ea       ??$type_case_integer_parse_into_buffer@I$07@?$output_processor@_WV?$stream_output_adapter@_W@__crt_stdio_output@@V?$format_validation_base@_WV?$stream_output_adapter@_W@__crt_stdio_output@@@2@@__crt_stdio_output@@AAEXI_N@Z 1004a3ea f i libucrt:output.obj
 0001:0004945d       ??$type_case_integer_parse_into_buffer@I$07@?$output_processor@_WV?$stream_output_adapter@_W@__crt_stdio_output@@V?$positional_parameter_base@_WV?$stream_output_adapter@_W@__crt_stdio_output@@@2@@__crt_stdio_output@@AAEXI_N@Z 1004a45d f i libucrt:output.obj
 0001:000494d0       ??$type_case_integer_parse_into_buffer@I$07@?$output_processor@_WV?$stream_output_adapter@_W@__crt_stdio_output@@V?$standard_base@_WV?$stream_output_adapter@_W@__crt_stdio_output@@@2@@__crt_stdio_output@@AAEXI_N@Z 1004a4d0 f i libucrt:output.obj
 0001:00049543       ??$type_case_integer_parse_into_buffer@I$07@?$output_processor@_WV?$string_output_adapter@_W@__crt_stdio_output@@V?$format_validation_base@_WV?$string_output_adapter@_W@__crt_stdio_output@@@2@@__crt_stdio_output@@AAEXI_N@Z 1004a543 f i libucrt:output.obj
 0001:000495b6       ??$type_case_integer_parse_into_buffer@I$07@?$output_processor@_WV?$string_output_adapter@_W@__crt_stdio_output@@V?$positional_parameter_base@_WV?$string_output_adapter@_W@__crt_stdio_output@@@2@@__crt_stdio_output@@AAEXI_N@Z 1004a5b6 f i libucrt:output.obj
 0001:00049629       ??$type_case_integer_parse_into_buffer@I$07@?$output_processor@_WV?$string_output_adapter@_W@__crt_stdio_output@@V?$standard_base@_WV?$string_output_adapter@_W@__crt_stdio_output@@@2@@__crt_stdio_output@@AAEXI_N@Z 1004a629 f i libucrt:output.obj
 0001:0004969c       ??$type_case_integer_parse_into_buffer@I$09@?$output_processor@DV?$stream_output_adapter@D@__crt_stdio_output@@V?$format_validation_base@DV?$stream_output_adapter@D@__crt_stdio_output@@@2@@__crt_stdio_output@@AAEXI_N@Z 1004a69c f i libucrt:output.obj
 0001:00049723       ??$type_case_integer_parse_into_buffer@I$09@?$output_processor@DV?$stream_output_adapter@D@__crt_stdio_output@@V?$positional_parameter_base@DV?$stream_output_adapter@D@__crt_stdio_output@@@2@@__crt_stdio_output@@AAEXI_N@Z 1004a723 f i libucrt:output.obj
 0001:000497aa       ??$type_case_integer_parse_into_buffer@I$09@?$output_processor@DV?$stream_output_adapter@D@__crt_stdio_output@@V?$standard_base@DV?$stream_output_adapter@D@__crt_stdio_output@@@2@@__crt_stdio_output@@AAEXI_N@Z 1004a7aa f i libucrt:output.obj
 0001:00049831       ??$type_case_integer_parse_into_buffer@I$09@?$output_processor@DV?$string_output_adapter@D@__crt_stdio_output@@V?$format_validation_base@DV?$string_output_adapter@D@__crt_stdio_output@@@2@@__crt_stdio_output@@AAEXI_N@Z 1004a831 f i libucrt:output.obj
 0001:000498b8       ??$type_case_integer_parse_into_buffer@I$09@?$output_processor@DV?$string_output_adapter@D@__crt_stdio_output@@V?$positional_parameter_base@DV?$string_output_adapter@D@__crt_stdio_output@@@2@@__crt_stdio_output@@AAEXI_N@Z 1004a8b8 f i libucrt:output.obj
 0001:0004993f       ??$type_case_integer_parse_into_buffer@I$09@?$output_processor@DV?$string_output_adapter@D@__crt_stdio_output@@V?$standard_base@DV?$string_output_adapter@D@__crt_stdio_output@@@2@@__crt_stdio_output@@AAEXI_N@Z 1004a93f f i libucrt:output.obj
 0001:000499c6       ??$type_case_integer_parse_into_buffer@I$09@?$output_processor@_WV?$stream_output_adapter@_W@__crt_stdio_output@@V?$format_validation_base@_WV?$stream_output_adapter@_W@__crt_stdio_output@@@2@@__crt_stdio_output@@AAEXI_N@Z 1004a9c6 f i libucrt:output.obj
 0001:00049a62       ??$type_case_integer_parse_into_buffer@I$09@?$output_processor@_WV?$stream_output_adapter@_W@__crt_stdio_output@@V?$positional_parameter_base@_WV?$stream_output_adapter@_W@__crt_stdio_output@@@2@@__crt_stdio_output@@AAEXI_N@Z 1004aa62 f i libucrt:output.obj
 0001:00049afe       ??$type_case_integer_parse_into_buffer@I$09@?$output_processor@_WV?$stream_output_adapter@_W@__crt_stdio_output@@V?$standard_base@_WV?$stream_output_adapter@_W@__crt_stdio_output@@@2@@__crt_stdio_output@@AAEXI_N@Z 1004aafe f i libucrt:output.obj
 0001:00049b9a       ??$type_case_integer_parse_into_buffer@I$09@?$output_processor@_WV?$string_output_adapter@_W@__crt_stdio_output@@V?$format_validation_base@_WV?$string_output_adapter@_W@__crt_stdio_output@@@2@@__crt_stdio_output@@AAEXI_N@Z 1004ab9a f i libucrt:output.obj
 0001:00049c36       ??$type_case_integer_parse_into_buffer@I$09@?$output_processor@_WV?$string_output_adapter@_W@__crt_stdio_output@@V?$positional_parameter_base@_WV?$string_output_adapter@_W@__crt_stdio_output@@@2@@__crt_stdio_output@@AAEXI_N@Z 1004ac36 f i libucrt:output.obj
 0001:00049cd2       ??$type_case_integer_parse_into_buffer@I$09@?$output_processor@_WV?$string_output_adapter@_W@__crt_stdio_output@@V?$standard_base@_WV?$string_output_adapter@_W@__crt_stdio_output@@@2@@__crt_stdio_output@@AAEXI_N@Z 1004acd2 f i libucrt:output.obj
 0001:00049d6e       ??$type_case_integer_parse_into_buffer@I$0BA@@?$output_processor@DV?$stream_output_adapter@D@__crt_stdio_output@@V?$format_validation_base@DV?$stream_output_adapter@D@__crt_stdio_output@@@2@@__crt_stdio_output@@AAEXI_N@Z 1004ad6e f i libucrt:output.obj
 0001:00049deb       ??$type_case_integer_parse_into_buffer@I$0BA@@?$output_processor@DV?$stream_output_adapter@D@__crt_stdio_output@@V?$positional_parameter_base@DV?$stream_output_adapter@D@__crt_stdio_output@@@2@@__crt_stdio_output@@AAEXI_N@Z 1004adeb f i libucrt:output.obj
 0001:00049e68       ??$type_case_integer_parse_into_buffer@I$0BA@@?$output_processor@DV?$stream_output_adapter@D@__crt_stdio_output@@V?$standard_base@DV?$stream_output_adapter@D@__crt_stdio_output@@@2@@__crt_stdio_output@@AAEXI_N@Z 1004ae68 f i libucrt:output.obj
 0001:00049ee5       ??$type_case_integer_parse_into_buffer@I$0BA@@?$output_processor@DV?$string_output_adapter@D@__crt_stdio_output@@V?$format_validation_base@DV?$string_output_adapter@D@__crt_stdio_output@@@2@@__crt_stdio_output@@AAEXI_N@Z 1004aee5 f i libucrt:output.obj
 0001:00049f62       ??$type_case_integer_parse_into_buffer@I$0BA@@?$output_processor@DV?$string_output_adapter@D@__crt_stdio_output@@V?$positional_parameter_base@DV?$string_output_adapter@D@__crt_stdio_output@@@2@@__crt_stdio_output@@AAEXI_N@Z 1004af62 f i libucrt:output.obj
 0001:00049fdf       ??$type_case_integer_parse_into_buffer@I$0BA@@?$output_processor@DV?$string_output_adapter@D@__crt_stdio_output@@V?$standard_base@DV?$string_output_adapter@D@__crt_stdio_output@@@2@@__crt_stdio_output@@AAEXI_N@Z 1004afdf f i libucrt:output.obj
 0001:0004a05c       ??$type_case_integer_parse_into_buffer@I$0BA@@?$output_processor@_WV?$stream_output_adapter@_W@__crt_stdio_output@@V?$format_validation_base@_WV?$stream_output_adapter@_W@__crt_stdio_output@@@2@@__crt_stdio_output@@AAEXI_N@Z 1004b05c f i libucrt:output.obj
 0001:0004a0e6       ??$type_case_integer_parse_into_buffer@I$0BA@@?$output_processor@_WV?$stream_output_adapter@_W@__crt_stdio_output@@V?$positional_parameter_base@_WV?$stream_output_adapter@_W@__crt_stdio_output@@@2@@__crt_stdio_output@@AAEXI_N@Z 1004b0e6 f i libucrt:output.obj
 0001:0004a170       ??$type_case_integer_parse_into_buffer@I$0BA@@?$output_processor@_WV?$stream_output_adapter@_W@__crt_stdio_output@@V?$standard_base@_WV?$stream_output_adapter@_W@__crt_stdio_output@@@2@@__crt_stdio_output@@AAEXI_N@Z 1004b170 f i libucrt:output.obj
 0001:0004a1fa       ??$type_case_integer_parse_into_buffer@I$0BA@@?$output_processor@_WV?$string_output_adapter@_W@__crt_stdio_output@@V?$format_validation_base@_WV?$string_output_adapter@_W@__crt_stdio_output@@@2@@__crt_stdio_output@@AAEXI_N@Z 1004b1fa f i libucrt:output.obj
 0001:0004a284       ??$type_case_integer_parse_into_buffer@I$0BA@@?$output_processor@_WV?$string_output_adapter@_W@__crt_stdio_output@@V?$positional_parameter_base@_WV?$string_output_adapter@_W@__crt_stdio_output@@@2@@__crt_stdio_output@@AAEXI_N@Z 1004b284 f i libucrt:output.obj
 0001:0004a30e       ??$type_case_integer_parse_into_buffer@I$0BA@@?$output_processor@_WV?$string_output_adapter@_W@__crt_stdio_output@@V?$standard_base@_WV?$string_output_adapter@_W@__crt_stdio_output@@@2@@__crt_stdio_output@@AAEXI_N@Z 1004b30e f i libucrt:output.obj
 0001:0004a398       ??$type_case_integer_parse_into_buffer@_K$07@?$output_processor@DV?$stream_output_adapter@D@__crt_stdio_output@@V?$format_validation_base@DV?$stream_output_adapter@D@__crt_stdio_output@@@2@@__crt_stdio_output@@AAEX_K_N@Z 1004b398 f i libucrt:output.obj
 0001:0004a410       ??$type_case_integer_parse_into_buffer@_K$07@?$output_processor@DV?$stream_output_adapter@D@__crt_stdio_output@@V?$positional_parameter_base@DV?$stream_output_adapter@D@__crt_stdio_output@@@2@@__crt_stdio_output@@AAEX_K_N@Z 1004b410 f i libucrt:output.obj
 0001:0004a488       ??$type_case_integer_parse_into_buffer@_K$07@?$output_processor@DV?$stream_output_adapter@D@__crt_stdio_output@@V?$standard_base@DV?$stream_output_adapter@D@__crt_stdio_output@@@2@@__crt_stdio_output@@AAEX_K_N@Z 1004b488 f i libucrt:output.obj
 0001:0004a500       ??$type_case_integer_parse_into_buffer@_K$07@?$output_processor@DV?$string_output_adapter@D@__crt_stdio_output@@V?$format_validation_base@DV?$string_output_adapter@D@__crt_stdio_output@@@2@@__crt_stdio_output@@AAEX_K_N@Z 1004b500 f i libucrt:output.obj
 0001:0004a578       ??$type_case_integer_parse_into_buffer@_K$07@?$output_processor@DV?$string_output_adapter@D@__crt_stdio_output@@V?$positional_parameter_base@DV?$string_output_adapter@D@__crt_stdio_output@@@2@@__crt_stdio_output@@AAEX_K_N@Z 1004b578 f i libucrt:output.obj
 0001:0004a5f0       ??$type_case_integer_parse_into_buffer@_K$07@?$output_processor@DV?$string_output_adapter@D@__crt_stdio_output@@V?$standard_base@DV?$string_output_adapter@D@__crt_stdio_output@@@2@@__crt_stdio_output@@AAEX_K_N@Z 1004b5f0 f i libucrt:output.obj
 0001:0004a668       ??$type_case_integer_parse_into_buffer@_K$07@?$output_processor@_WV?$stream_output_adapter@_W@__crt_stdio_output@@V?$format_validation_base@_WV?$stream_output_adapter@_W@__crt_stdio_output@@@2@@__crt_stdio_output@@AAEX_K_N@Z 1004b668 f i libucrt:output.obj
 0001:0004a6ef       ??$type_case_integer_parse_into_buffer@_K$07@?$output_processor@_WV?$stream_output_adapter@_W@__crt_stdio_output@@V?$positional_parameter_base@_WV?$stream_output_adapter@_W@__crt_stdio_output@@@2@@__crt_stdio_output@@AAEX_K_N@Z 1004b6ef f i libucrt:output.obj
 0001:0004a776       ??$type_case_integer_parse_into_buffer@_K$07@?$output_processor@_WV?$stream_output_adapter@_W@__crt_stdio_output@@V?$standard_base@_WV?$stream_output_adapter@_W@__crt_stdio_output@@@2@@__crt_stdio_output@@AAEX_K_N@Z 1004b776 f i libucrt:output.obj
 0001:0004a7fd       ??$type_case_integer_parse_into_buffer@_K$07@?$output_processor@_WV?$string_output_adapter@_W@__crt_stdio_output@@V?$format_validation_base@_WV?$string_output_adapter@_W@__crt_stdio_output@@@2@@__crt_stdio_output@@AAEX_K_N@Z 1004b7fd f i libucrt:output.obj
 0001:0004a884       ??$type_case_integer_parse_into_buffer@_K$07@?$output_processor@_WV?$string_output_adapter@_W@__crt_stdio_output@@V?$positional_parameter_base@_WV?$string_output_adapter@_W@__crt_stdio_output@@@2@@__crt_stdio_output@@AAEX_K_N@Z 1004b884 f i libucrt:output.obj
 0001:0004a90b       ??$type_case_integer_parse_into_buffer@_K$07@?$output_processor@_WV?$string_output_adapter@_W@__crt_stdio_output@@V?$standard_base@_WV?$string_output_adapter@_W@__crt_stdio_output@@@2@@__crt_stdio_output@@AAEX_K_N@Z 1004b90b f i libucrt:output.obj
 0001:0004a992       ??$type_case_integer_parse_into_buffer@_K$09@?$output_processor@DV?$stream_output_adapter@D@__crt_stdio_output@@V?$format_validation_base@DV?$stream_output_adapter@D@__crt_stdio_output@@@2@@__crt_stdio_output@@AAEX_K_N@Z 1004b992 f i libucrt:output.obj
 0001:0004aa39       ??$type_case_integer_parse_into_buffer@_K$09@?$output_processor@DV?$stream_output_adapter@D@__crt_stdio_output@@V?$positional_parameter_base@DV?$stream_output_adapter@D@__crt_stdio_output@@@2@@__crt_stdio_output@@AAEX_K_N@Z 1004ba39 f i libucrt:output.obj
 0001:0004aae0       ??$type_case_integer_parse_into_buffer@_K$09@?$output_processor@DV?$stream_output_adapter@D@__crt_stdio_output@@V?$standard_base@DV?$stream_output_adapter@D@__crt_stdio_output@@@2@@__crt_stdio_output@@AAEX_K_N@Z 1004bae0 f i libucrt:output.obj
 0001:0004ab87       ??$type_case_integer_parse_into_buffer@_K$09@?$output_processor@DV?$string_output_adapter@D@__crt_stdio_output@@V?$format_validation_base@DV?$string_output_adapter@D@__crt_stdio_output@@@2@@__crt_stdio_output@@AAEX_K_N@Z 1004bb87 f i libucrt:output.obj
 0001:0004ac2e       ??$type_case_integer_parse_into_buffer@_K$09@?$output_processor@DV?$string_output_adapter@D@__crt_stdio_output@@V?$positional_parameter_base@DV?$string_output_adapter@D@__crt_stdio_output@@@2@@__crt_stdio_output@@AAEX_K_N@Z 1004bc2e f i libucrt:output.obj
 0001:0004acd5       ??$type_case_integer_parse_into_buffer@_K$09@?$output_processor@DV?$string_output_adapter@D@__crt_stdio_output@@V?$standard_base@DV?$string_output_adapter@D@__crt_stdio_output@@@2@@__crt_stdio_output@@AAEX_K_N@Z 1004bcd5 f i libucrt:output.obj
 0001:0004ad7c       ??$type_case_integer_parse_into_buffer@_K$09@?$output_processor@_WV?$stream_output_adapter@_W@__crt_stdio_output@@V?$format_validation_base@_WV?$stream_output_adapter@_W@__crt_stdio_output@@@2@@__crt_stdio_output@@AAEX_K_N@Z 1004bd7c f i libucrt:output.obj
 0001:0004ae39       ??$type_case_integer_parse_into_buffer@_K$09@?$output_processor@_WV?$stream_output_adapter@_W@__crt_stdio_output@@V?$positional_parameter_base@_WV?$stream_output_adapter@_W@__crt_stdio_output@@@2@@__crt_stdio_output@@AAEX_K_N@Z 1004be39 f i libucrt:output.obj
 0001:0004aef6       ??$type_case_integer_parse_into_buffer@_K$09@?$output_processor@_WV?$stream_output_adapter@_W@__crt_stdio_output@@V?$standard_base@_WV?$stream_output_adapter@_W@__crt_stdio_output@@@2@@__crt_stdio_output@@AAEX_K_N@Z 1004bef6 f i libucrt:output.obj
 0001:0004afb3       ??$type_case_integer_parse_into_buffer@_K$09@?$output_processor@_WV?$string_output_adapter@_W@__crt_stdio_output@@V?$format_validation_base@_WV?$string_output_adapter@_W@__crt_stdio_output@@@2@@__crt_stdio_output@@AAEX_K_N@Z 1004bfb3 f i libucrt:output.obj
 0001:0004b070       ??$type_case_integer_parse_into_buffer@_K$09@?$output_processor@_WV?$string_output_adapter@_W@__crt_stdio_output@@V?$positional_parameter_base@_WV?$string_output_adapter@_W@__crt_stdio_output@@@2@@__crt_stdio_output@@AAEX_K_N@Z 1004c070 f i libucrt:output.obj
 0001:0004b12d       ??$type_case_integer_parse_into_buffer@_K$09@?$output_processor@_WV?$string_output_adapter@_W@__crt_stdio_output@@V?$standard_base@_WV?$string_output_adapter@_W@__crt_stdio_output@@@2@@__crt_stdio_output@@AAEX_K_N@Z 1004c12d f i libucrt:output.obj
 0001:0004b1ea       ??$type_case_integer_parse_into_buffer@_K$0BA@@?$output_processor@DV?$stream_output_adapter@D@__crt_stdio_output@@V?$format_validation_base@DV?$stream_output_adapter@D@__crt_stdio_output@@@2@@__crt_stdio_output@@AAEX_K_N@Z 1004c1ea f i libucrt:output.obj
 0001:0004b274       ??$type_case_integer_parse_into_buffer@_K$0BA@@?$output_processor@DV?$stream_output_adapter@D@__crt_stdio_output@@V?$positional_parameter_base@DV?$stream_output_adapter@D@__crt_stdio_output@@@2@@__crt_stdio_output@@AAEX_K_N@Z 1004c274 f i libucrt:output.obj
 0001:0004b2fe       ??$type_case_integer_parse_into_buffer@_K$0BA@@?$output_processor@DV?$stream_output_adapter@D@__crt_stdio_output@@V?$standard_base@DV?$stream_output_adapter@D@__crt_stdio_output@@@2@@__crt_stdio_output@@AAEX_K_N@Z 1004c2fe f i libucrt:output.obj
 0001:0004b388       ??$type_case_integer_parse_into_buffer@_K$0BA@@?$output_processor@DV?$string_output_adapter@D@__crt_stdio_output@@V?$format_validation_base@DV?$string_output_adapter@D@__crt_stdio_output@@@2@@__crt_stdio_output@@AAEX_K_N@Z 1004c388 f i libucrt:output.obj
 0001:0004b412       ??$type_case_integer_parse_into_buffer@_K$0BA@@?$output_processor@DV?$string_output_adapter@D@__crt_stdio_output@@V?$positional_parameter_base@DV?$string_output_adapter@D@__crt_stdio_output@@@2@@__crt_stdio_output@@AAEX_K_N@Z 1004c412 f i libucrt:output.obj
 0001:0004b49c       ??$type_case_integer_parse_into_buffer@_K$0BA@@?$output_processor@DV?$string_output_adapter@D@__crt_stdio_output@@V?$standard_base@DV?$string_output_adapter@D@__crt_stdio_output@@@2@@__crt_stdio_output@@AAEX_K_N@Z 1004c49c f i libucrt:output.obj
 0001:0004b526       ??$type_case_integer_parse_into_buffer@_K$0BA@@?$output_processor@_WV?$stream_output_adapter@_W@__crt_stdio_output@@V?$format_validation_base@_WV?$stream_output_adapter@_W@__crt_stdio_output@@@2@@__crt_stdio_output@@AAEX_K_N@Z 1004c526 f i libucrt:output.obj
 0001:0004b5bc       ??$type_case_integer_parse_into_buffer@_K$0BA@@?$output_processor@_WV?$stream_output_adapter@_W@__crt_stdio_output@@V?$positional_parameter_base@_WV?$stream_output_adapter@_W@__crt_stdio_output@@@2@@__crt_stdio_output@@AAEX_K_N@Z 1004c5bc f i libucrt:output.obj
 0001:0004b652       ??$type_case_integer_parse_into_buffer@_K$0BA@@?$output_processor@_WV?$stream_output_adapter@_W@__crt_stdio_output@@V?$standard_base@_WV?$stream_output_adapter@_W@__crt_stdio_output@@@2@@__crt_stdio_output@@AAEX_K_N@Z 1004c652 f i libucrt:output.obj
 0001:0004b6e8       ??$type_case_integer_parse_into_buffer@_K$0BA@@?$output_processor@_WV?$string_output_adapter@_W@__crt_stdio_output@@V?$format_validation_base@_WV?$string_output_adapter@_W@__crt_stdio_output@@@2@@__crt_stdio_output@@AAEX_K_N@Z 1004c6e8 f i libucrt:output.obj
 0001:0004b77e       ??$type_case_integer_parse_into_buffer@_K$0BA@@?$output_processor@_WV?$string_output_adapter@_W@__crt_stdio_output@@V?$positional_parameter_base@_WV?$string_output_adapter@_W@__crt_stdio_output@@@2@@__crt_stdio_output@@AAEX_K_N@Z 1004c77e f i libucrt:output.obj
 0001:0004b814       ??$type_case_integer_parse_into_buffer@_K$0BA@@?$output_processor@_WV?$string_output_adapter@_W@__crt_stdio_output@@V?$standard_base@_WV?$string_output_adapter@_W@__crt_stdio_output@@@2@@__crt_stdio_output@@AAEX_K_N@Z 1004c814 f i libucrt:output.obj
 0001:0004b8aa       ??$write_multiple_characters@V?$stream_output_adapter@D@__crt_stdio_output@@D@__crt_stdio_output@@YAXABV?$stream_output_adapter@D@0@DHQAHAAV__crt_cached_ptd_host@@@Z 1004c8aa f i libucrt:output.obj
 0001:0004b8d9       ??$write_multiple_characters@V?$stream_output_adapter@_W@__crt_stdio_output@@D@__crt_stdio_output@@YAXABV?$stream_output_adapter@_W@0@DHQAHAAV__crt_cached_ptd_host@@@Z 1004c8d9 f i libucrt:output.obj
 0001:0004b90d       ??$write_multiple_characters@V?$string_output_adapter@D@__crt_stdio_output@@D@__crt_stdio_output@@YAXABV?$string_output_adapter@D@0@DHQAHAAV__crt_cached_ptd_host@@@Z 1004c90d f i libucrt:output.obj
 0001:0004b970       ??$write_multiple_characters@V?$string_output_adapter@_W@__crt_stdio_output@@D@__crt_stdio_output@@YAXABV?$string_output_adapter@_W@0@DHQAHAAV__crt_cached_ptd_host@@@Z 1004c970 f i libucrt:output.obj
 0001:0004bb9f       ??0?$common_data@D@__crt_stdio_output@@IAE@AAV__crt_cached_ptd_host@@@Z 1004cb9f f i libucrt:output.obj
 0001:0004bbe6       ??0?$common_data@_W@__crt_stdio_output@@IAE@AAV__crt_cached_ptd_host@@@Z 1004cbe6 f i libucrt:output.obj
 0001:0004bc32       ??0?$output_adapter_data@DV?$stream_output_adapter@D@__crt_stdio_output@@@__crt_stdio_output@@IAE@ABV?$stream_output_adapter@D@1@_KQBDAAV__crt_cached_ptd_host@@QAD@Z 1004cc32 f i libucrt:output.obj
 0001:0004bc99       ??0?$output_adapter_data@DV?$string_output_adapter@D@__crt_stdio_output@@@__crt_stdio_output@@IAE@ABV?$string_output_adapter@D@1@_KQBDAAV__crt_cached_ptd_host@@QAD@Z 1004cc99 f i libucrt:output.obj
 0001:0004bd00       ??0?$output_adapter_data@_WV?$stream_output_adapter@_W@__crt_stdio_output@@@__crt_stdio_output@@IAE@ABV?$stream_output_adapter@_W@1@_KQB_WAAV__crt_cached_ptd_host@@QAD@Z 1004cd00 f i libucrt:output.obj
 0001:0004bd6c       ??0?$output_adapter_data@_WV?$string_output_adapter@_W@__crt_stdio_output@@@__crt_stdio_output@@IAE@ABV?$string_output_adapter@_W@1@_KQB_WAAV__crt_cached_ptd_host@@QAD@Z 1004cd6c f i libucrt:output.obj
 0001:0004bdd8       ??0?$output_processor@DV?$stream_output_adapter@D@__crt_stdio_output@@V?$format_validation_base@DV?$stream_output_adapter@D@__crt_stdio_output@@@2@@__crt_stdio_output@@QAE@ABV?$stream_output_adapter@D@1@_KQBDAAV__crt_cached_ptd_host@@QAD@Z 1004cdd8 f i libucrt:output.obj
 0001:0004be05       ??0?$output_processor@DV?$stream_output_adapter@D@__crt_stdio_output@@V?$positional_parameter_base@DV?$stream_output_adapter@D@__crt_stdio_output@@@2@@__crt_stdio_output@@QAE@ABV?$stream_output_adapter@D@1@_KQBDAAV__crt_cached_ptd_host@@QAD@Z 1004ce05 f i libucrt:output.obj
 0001:0004be2b       ??0?$output_processor@DV?$stream_output_adapter@D@__crt_stdio_output@@V?$standard_base@DV?$stream_output_adapter@D@__crt_stdio_output@@@2@@__crt_stdio_output@@QAE@ABV?$stream_output_adapter@D@1@_KQBDAAV__crt_cached_ptd_host@@QAD@Z 1004ce2b f i libucrt:output.obj
 0001:0004be58       ??0?$output_processor@DV?$string_output_adapter@D@__crt_stdio_output@@V?$format_validation_base@DV?$string_output_adapter@D@__crt_stdio_output@@@2@@__crt_stdio_output@@QAE@ABV?$string_output_adapter@D@1@_KQBDAAV__crt_cached_ptd_host@@QAD@Z 1004ce58 f i libucrt:output.obj
 0001:0004be85       ??0?$output_processor@DV?$string_output_adapter@D@__crt_stdio_output@@V?$positional_parameter_base@DV?$string_output_adapter@D@__crt_stdio_output@@@2@@__crt_stdio_output@@QAE@ABV?$string_output_adapter@D@1@_KQBDAAV__crt_cached_ptd_host@@QAD@Z 1004ce85 f i libucrt:output.obj
 0001:0004beab       ??0?$output_processor@DV?$string_output_adapter@D@__crt_stdio_output@@V?$standard_base@DV?$string_output_adapter@D@__crt_stdio_output@@@2@@__crt_stdio_output@@QAE@ABV?$string_output_adapter@D@1@_KQBDAAV__crt_cached_ptd_host@@QAD@Z 1004ceab f i libucrt:output.obj
 0001:0004bed8       ??0?$output_processor@_WV?$stream_output_adapter@_W@__crt_stdio_output@@V?$format_validation_base@_WV?$stream_output_adapter@_W@__crt_stdio_output@@@2@@__crt_stdio_output@@QAE@ABV?$stream_output_adapter@_W@1@_KQB_WAAV__crt_cached_ptd_host@@QAD@Z 1004ced8 f i libucrt:output.obj
 0001:0004bf05       ??0?$output_processor@_WV?$stream_output_adapter@_W@__crt_stdio_output@@V?$positional_parameter_base@_WV?$stream_output_adapter@_W@__crt_stdio_output@@@2@@__crt_stdio_output@@QAE@ABV?$stream_output_adapter@_W@1@_KQB_WAAV__crt_cached_ptd_host@@QAD@Z 1004cf05 f i libucrt:output.obj
 0001:0004bf2b       ??0?$output_processor@_WV?$stream_output_adapter@_W@__crt_stdio_output@@V?$standard_base@_WV?$stream_output_adapter@_W@__crt_stdio_output@@@2@@__crt_stdio_output@@QAE@ABV?$stream_output_adapter@_W@1@_KQB_WAAV__crt_cached_ptd_host@@QAD@Z 1004cf2b f i libucrt:output.obj
 0001:0004bf58       ??0?$output_processor@_WV?$string_output_adapter@_W@__crt_stdio_output@@V?$format_validation_base@_WV?$string_output_adapter@_W@__crt_stdio_output@@@2@@__crt_stdio_output@@QAE@ABV?$string_output_adapter@_W@1@_KQB_WAAV__crt_cached_ptd_host@@QAD@Z 1004cf58 f i libucrt:output.obj
 0001:0004bf85       ??0?$output_processor@_WV?$string_output_adapter@_W@__crt_stdio_output@@V?$positional_parameter_base@_WV?$string_output_adapter@_W@__crt_stdio_output@@@2@@__crt_stdio_output@@QAE@ABV?$string_output_adapter@_W@1@_KQB_WAAV__crt_cached_ptd_host@@QAD@Z 1004cf85 f i libucrt:output.obj
 0001:0004bfab       ??0?$output_processor@_WV?$string_output_adapter@_W@__crt_stdio_output@@V?$standard_base@_WV?$string_output_adapter@_W@__crt_stdio_output@@@2@@__crt_stdio_output@@QAE@ABV?$string_output_adapter@_W@1@_KQB_WAAV__crt_cached_ptd_host@@QAD@Z 1004cfab f i libucrt:output.obj
 0001:0004bfd8       ??0?$stream_output_adapter@D@__crt_stdio_output@@QAE@QAU_iobuf@@@Z 1004cfd8 f i libucrt:output.obj
 0001:0004bfe8       ??0?$stream_output_adapter@_W@__crt_stdio_output@@QAE@QAU_iobuf@@@Z 1004cfe8 f i libucrt:output.obj
 0001:0004bff8       ??0?$string_output_adapter@D@__crt_stdio_output@@QAE@QAU?$string_output_adapter_context@D@1@@Z 1004cff8 f i libucrt:output.obj
 0001:0004c008       ??0?$string_output_adapter@_W@__crt_stdio_output@@QAE@QAU?$string_output_adapter_context@_W@1@@Z 1004d008 f i libucrt:output.obj
 0001:0004c018       ??0formatting_buffer@__crt_stdio_output@@QAE@XZ 1004d018 f i libucrt:output.obj
 0001:0004c029       ??0guard@?$cached@H@__crt_cached_ptd_host@@QAE@AAU12@@Z 1004d029 f i libucrt:output.obj
 0001:0004c048       ??1?$common_data@D@__crt_stdio_output@@QAE@XZ 1004d048 f i libucrt:output.obj
 0001:0004c050       ??1?$common_data@_W@__crt_stdio_output@@QAE@XZ 1004d050 f i libucrt:output.obj
 0001:0004c058       ??1?$format_validation_base@DV?$stream_output_adapter@D@__crt_stdio_output@@@__crt_stdio_output@@QAE@XZ 1004d058 f i libucrt:output.obj
 0001:0004c060       ??1?$format_validation_base@DV?$string_output_adapter@D@__crt_stdio_output@@@__crt_stdio_output@@QAE@XZ 1004d060 f i libucrt:output.obj
 0001:0004c068       ??1?$format_validation_base@_WV?$stream_output_adapter@_W@__crt_stdio_output@@@__crt_stdio_output@@QAE@XZ 1004d068 f i libucrt:output.obj
 0001:0004c070       ??1?$format_validation_base@_WV?$string_output_adapter@_W@__crt_stdio_output@@@__crt_stdio_output@@QAE@XZ 1004d070 f i libucrt:output.obj
 0001:0004c078       ??1?$output_adapter_data@DV?$stream_output_adapter@D@__crt_stdio_output@@@__crt_stdio_output@@QAE@XZ 1004d078 f i libucrt:output.obj
 0001:0004c080       ??1?$output_adapter_data@DV?$string_output_adapter@D@__crt_stdio_output@@@__crt_stdio_output@@QAE@XZ 1004d080 f i libucrt:output.obj
 0001:0004c088       ??1?$output_adapter_data@_WV?$stream_output_adapter@_W@__crt_stdio_output@@@__crt_stdio_output@@QAE@XZ 1004d088 f i libucrt:output.obj
 0001:0004c090       ??1?$output_adapter_data@_WV?$string_output_adapter@_W@__crt_stdio_output@@@__crt_stdio_output@@QAE@XZ 1004d090 f i libucrt:output.obj
 0001:0004c098       ??1?$output_processor@DV?$stream_output_adapter@D@__crt_stdio_output@@V?$format_validation_base@DV?$stream_output_adapter@D@__crt_stdio_output@@@2@@__crt_stdio_output@@QAE@XZ 1004d098 f i libucrt:output.obj
 0001:0004c0a0       ??1?$output_processor@DV?$stream_output_adapter@D@__crt_stdio_output@@V?$positional_parameter_base@DV?$stream_output_adapter@D@__crt_stdio_output@@@2@@__crt_stdio_output@@QAE@XZ 1004d0a0 f i libucrt:output.obj
 0001:0004c0a8       ??1?$output_processor@DV?$stream_output_adapter@D@__crt_stdio_output@@V?$standard_base@DV?$stream_output_adapter@D@__crt_stdio_output@@@2@@__crt_stdio_output@@QAE@XZ 1004d0a8 f i libucrt:output.obj
 0001:0004c0b0       ??1?$output_processor@DV?$string_output_adapter@D@__crt_stdio_output@@V?$format_validation_base@DV?$string_output_adapter@D@__crt_stdio_output@@@2@@__crt_stdio_output@@QAE@XZ 1004d0b0 f i libucrt:output.obj
 0001:0004c0b8       ??1?$output_processor@DV?$string_output_adapter@D@__crt_stdio_output@@V?$positional_parameter_base@DV?$string_output_adapter@D@__crt_stdio_output@@@2@@__crt_stdio_output@@QAE@XZ 1004d0b8 f i libucrt:output.obj
 0001:0004c0c0       ??1?$output_processor@DV?$string_output_adapter@D@__crt_stdio_output@@V?$standard_base@DV?$string_output_adapter@D@__crt_stdio_output@@@2@@__crt_stdio_output@@QAE@XZ 1004d0c0 f i libucrt:output.obj
 0001:0004c0c8       ??1?$output_processor@_WV?$stream_output_adapter@_W@__crt_stdio_output@@V?$format_validation_base@_WV?$stream_output_adapter@_W@__crt_stdio_output@@@2@@__crt_stdio_output@@QAE@XZ 1004d0c8 f i libucrt:output.obj
 0001:0004c0d0       ??1?$output_processor@_WV?$stream_output_adapter@_W@__crt_stdio_output@@V?$positional_parameter_base@_WV?$stream_output_adapter@_W@__crt_stdio_output@@@2@@__crt_stdio_output@@QAE@XZ 1004d0d0 f i libucrt:output.obj
 0001:0004c0d8       ??1?$output_processor@_WV?$stream_output_adapter@_W@__crt_stdio_output@@V?$standard_base@_WV?$stream_output_adapter@_W@__crt_stdio_output@@@2@@__crt_stdio_output@@QAE@XZ 1004d0d8 f i libucrt:output.obj
 0001:0004c0e0       ??1?$output_processor@_WV?$string_output_adapter@_W@__crt_stdio_output@@V?$format_validation_base@_WV?$string_output_adapter@_W@__crt_stdio_output@@@2@@__crt_stdio_output@@QAE@XZ 1004d0e0 f i libucrt:output.obj
 0001:0004c0e8       ??1?$output_processor@_WV?$string_output_adapter@_W@__crt_stdio_output@@V?$positional_parameter_base@_WV?$string_output_adapter@_W@__crt_stdio_output@@@2@@__crt_stdio_output@@QAE@XZ 1004d0e8 f i libucrt:output.obj
 0001:0004c0f0       ??1?$output_processor@_WV?$string_output_adapter@_W@__crt_stdio_output@@V?$standard_base@_WV?$string_output_adapter@_W@__crt_stdio_output@@@2@@__crt_stdio_output@@QAE@XZ 1004d0f0 f i libucrt:output.obj
 0001:0004c0f8       ??1?$positional_parameter_base@DV?$stream_output_adapter@D@__crt_stdio_output@@@__crt_stdio_output@@QAE@XZ 1004d0f8 f i libucrt:output.obj
 0001:0004c100       ??1?$positional_parameter_base@DV?$string_output_adapter@D@__crt_stdio_output@@@__crt_stdio_output@@QAE@XZ 1004d100 f i libucrt:output.obj
 0001:0004c108       ??1?$positional_parameter_base@_WV?$stream_output_adapter@_W@__crt_stdio_output@@@__crt_stdio_output@@QAE@XZ 1004d108 f i libucrt:output.obj
 0001:0004c110       ??1?$positional_parameter_base@_WV?$string_output_adapter@_W@__crt_stdio_output@@@__crt_stdio_output@@QAE@XZ 1004d110 f i libucrt:output.obj
 0001:0004c118       ??1?$standard_base@DV?$stream_output_adapter@D@__crt_stdio_output@@@__crt_stdio_output@@QAE@XZ 1004d118 f i libucrt:output.obj
 0001:0004c120       ??1?$standard_base@DV?$string_output_adapter@D@__crt_stdio_output@@@__crt_stdio_output@@QAE@XZ 1004d120 f i libucrt:output.obj
 0001:0004c128       ??1?$standard_base@_WV?$stream_output_adapter@_W@__crt_stdio_output@@@__crt_stdio_output@@QAE@XZ 1004d128 f i libucrt:output.obj
 0001:0004c130       ??1?$standard_base@_WV?$string_output_adapter@_W@__crt_stdio_output@@@__crt_stdio_output@@QAE@XZ 1004d130 f i libucrt:output.obj
 0001:0004c138       ??1formatting_buffer@__crt_stdio_output@@QAE@XZ 1004d138 f i libucrt:output.obj
 0001:0004c152       ??1guard@?$cached@H@__crt_cached_ptd_host@@QAE@XZ 1004d152 f i libucrt:output.obj
 0001:0004c168       ??4?$__crt_unique_heap_ptr@DU__crt_internal_free_policy@@@@QAEAAV0@$$QAV0@@Z 1004d168 f i libucrt:output.obj
 0001:0004c18c       ??A?$spectre_mitigated_lookup_table@Ustate_transition_pair@__crt_stdio_output@@$0IA@@__crt_stdio_output@@QBEABUstate_transition_pair@1@I@Z 1004d18c f i libucrt:output.obj
 0001:0004c604       ?adjust_hexit@?$output_processor@DV?$stream_output_adapter@D@__crt_stdio_output@@V?$format_validation_base@DV?$stream_output_adapter@D@__crt_stdio_output@@@2@@__crt_stdio_output@@CADH_N@Z 1004d604 f i libucrt:output.obj
 0001:0004c618       ?adjust_hexit@?$output_processor@DV?$stream_output_adapter@D@__crt_stdio_output@@V?$positional_parameter_base@DV?$stream_output_adapter@D@__crt_stdio_output@@@2@@__crt_stdio_output@@CADH_N@Z 1004d618 f i libucrt:output.obj
 0001:0004c62c       ?adjust_hexit@?$output_processor@DV?$stream_output_adapter@D@__crt_stdio_output@@V?$standard_base@DV?$stream_output_adapter@D@__crt_stdio_output@@@2@@__crt_stdio_output@@CADH_N@Z 1004d62c f i libucrt:output.obj
 0001:0004c640       ?adjust_hexit@?$output_processor@DV?$string_output_adapter@D@__crt_stdio_output@@V?$format_validation_base@DV?$string_output_adapter@D@__crt_stdio_output@@@2@@__crt_stdio_output@@CADH_N@Z 1004d640 f i libucrt:output.obj
 0001:0004c654       ?adjust_hexit@?$output_processor@DV?$string_output_adapter@D@__crt_stdio_output@@V?$positional_parameter_base@DV?$string_output_adapter@D@__crt_stdio_output@@@2@@__crt_stdio_output@@CADH_N@Z 1004d654 f i libucrt:output.obj
 0001:0004c668       ?adjust_hexit@?$output_processor@DV?$string_output_adapter@D@__crt_stdio_output@@V?$standard_base@DV?$string_output_adapter@D@__crt_stdio_output@@@2@@__crt_stdio_output@@CADH_N@Z 1004d668 f i libucrt:output.obj
 0001:0004c67c       ?adjust_hexit@?$output_processor@_WV?$stream_output_adapter@_W@__crt_stdio_output@@V?$format_validation_base@_WV?$stream_output_adapter@_W@__crt_stdio_output@@@2@@__crt_stdio_output@@CADH_N@Z 1004d67c f i libucrt:output.obj
 0001:0004c690       ?adjust_hexit@?$output_processor@_WV?$stream_output_adapter@_W@__crt_stdio_output@@V?$positional_parameter_base@_WV?$stream_output_adapter@_W@__crt_stdio_output@@@2@@__crt_stdio_output@@CADH_N@Z 1004d690 f i libucrt:output.obj
 0001:0004c6a4       ?adjust_hexit@?$output_processor@_WV?$stream_output_adapter@_W@__crt_stdio_output@@V?$standard_base@_WV?$stream_output_adapter@_W@__crt_stdio_output@@@2@@__crt_stdio_output@@CADH_N@Z 1004d6a4 f i libucrt:output.obj
 0001:0004c6b8       ?adjust_hexit@?$output_processor@_WV?$string_output_adapter@_W@__crt_stdio_output@@V?$format_validation_base@_WV?$string_output_adapter@_W@__crt_stdio_output@@@2@@__crt_stdio_output@@CADH_N@Z 1004d6b8 f i libucrt:output.obj
 0001:0004c6cc       ?adjust_hexit@?$output_processor@_WV?$string_output_adapter@_W@__crt_stdio_output@@V?$positional_parameter_base@_WV?$string_output_adapter@_W@__crt_stdio_output@@@2@@__crt_stdio_output@@CADH_N@Z 1004d6cc f i libucrt:output.obj
 0001:0004c6e0       ?adjust_hexit@?$output_processor@_WV?$string_output_adapter@_W@__crt_stdio_output@@V?$standard_base@_WV?$string_output_adapter@_W@__crt_stdio_output@@@2@@__crt_stdio_output@@CADH_N@Z 1004d6e0 f i libucrt:output.obj
 0001:0004c6f4       ?advance_to_next_pass@?$positional_parameter_base@DV?$stream_output_adapter@D@__crt_stdio_output@@@__crt_stdio_output@@IAE_NXZ 1004d6f4 f i libucrt:output.obj
 0001:0004c742       ?advance_to_next_pass@?$positional_parameter_base@DV?$string_output_adapter@D@__crt_stdio_output@@@__crt_stdio_output@@IAE_NXZ 1004d742 f i libucrt:output.obj
 0001:0004c790       ?advance_to_next_pass@?$positional_parameter_base@_WV?$stream_output_adapter@_W@__crt_stdio_output@@@__crt_stdio_output@@IAE_NXZ 1004d790 f i libucrt:output.obj
 0001:0004c7de       ?advance_to_next_pass@?$positional_parameter_base@_WV?$string_output_adapter@_W@__crt_stdio_output@@@__crt_stdio_output@@IAE_NXZ 1004d7de f i libucrt:output.obj
 0001:0004c82c       ?advance_to_next_pass@?$standard_base@DV?$stream_output_adapter@D@__crt_stdio_output@@@__crt_stdio_output@@IAE_NXZ 1004d82c f i libucrt:output.obj
 0001:0004c83d       ?advance_to_next_pass@?$standard_base@DV?$string_output_adapter@D@__crt_stdio_output@@@__crt_stdio_output@@IAE_NXZ 1004d83d f i libucrt:output.obj
 0001:0004c84e       ?advance_to_next_pass@?$standard_base@_WV?$stream_output_adapter@_W@__crt_stdio_output@@@__crt_stdio_output@@IAE_NXZ 1004d84e f i libucrt:output.obj
 0001:0004c85f       ?advance_to_next_pass@?$standard_base@_WV?$string_output_adapter@_W@__crt_stdio_output@@@__crt_stdio_output@@IAE_NXZ 1004d85f f i libucrt:output.obj
 0001:0004c870       ?check@?$cached@H@__crt_cached_ptd_host@@QBE_NH@Z 1004d870 f i libucrt:output.obj
 0001:0004c88c       ?create_guard@?$cached@H@__crt_cached_ptd_host@@QAE?AVguard@12@XZ 1004d88c f i libucrt:output.obj
 0001:0004c8a9       ?crop_zeroes@__crt_stdio_output@@YAXPADQAU__crt_locale_pointers@@@Z 1004d8a9 f i libucrt:output.obj
 0001:0004c909       ?disable@guard@?$cached@H@__crt_cached_ptd_host@@QAEXXZ 1004d909 f i libucrt:output.obj
 0001:0004c90e       ?enable@guard@?$cached@H@__crt_cached_ptd_host@@QAEXXZ 1004d90e f i libucrt:output.obj
 0001:0004c913       ?find_next_state@?$output_processor@DV?$stream_output_adapter@D@__crt_stdio_output@@V?$format_validation_base@DV?$stream_output_adapter@D@__crt_stdio_output@@@2@@__crt_stdio_output@@ABE?AW4state@2@DW432@@Z 1004d913 f i libucrt:output.obj
 0001:0004c950       ?find_next_state@?$output_processor@DV?$stream_output_adapter@D@__crt_stdio_output@@V?$positional_parameter_base@DV?$stream_output_adapter@D@__crt_stdio_output@@@2@@__crt_stdio_output@@ABE?AW4state@2@DW432@@Z 1004d950 f i libucrt:output.obj
 0001:0004c98d       ?find_next_state@?$output_processor@DV?$stream_output_adapter@D@__crt_stdio_output@@V?$standard_base@DV?$stream_output_adapter@D@__crt_stdio_output@@@2@@__crt_stdio_output@@ABE?AW4state@2@DW432@@Z 1004d98d f i libucrt:output.obj
 0001:0004c9c8       ?find_next_state@?$output_processor@DV?$string_output_adapter@D@__crt_stdio_output@@V?$format_validation_base@DV?$string_output_adapter@D@__crt_stdio_output@@@2@@__crt_stdio_output@@ABE?AW4state@2@DW432@@Z 1004d9c8 f i libucrt:output.obj
 0001:0004ca05       ?find_next_state@?$output_processor@DV?$string_output_adapter@D@__crt_stdio_output@@V?$positional_parameter_base@DV?$string_output_adapter@D@__crt_stdio_output@@@2@@__crt_stdio_output@@ABE?AW4state@2@DW432@@Z 1004da05 f i libucrt:output.obj
 0001:0004ca42       ?find_next_state@?$output_processor@DV?$string_output_adapter@D@__crt_stdio_output@@V?$standard_base@DV?$string_output_adapter@D@__crt_stdio_output@@@2@@__crt_stdio_output@@ABE?AW4state@2@DW432@@Z 1004da42 f i libucrt:output.obj
 0001:0004ca7d       ?find_next_state@?$output_processor@_WV?$stream_output_adapter@_W@__crt_stdio_output@@V?$format_validation_base@_WV?$stream_output_adapter@_W@__crt_stdio_output@@@2@@__crt_stdio_output@@ABE?AW4state@2@_WW432@@Z 1004da7d f i libucrt:output.obj
 0001:0004cab9       ?find_next_state@?$output_processor@_WV?$stream_output_adapter@_W@__crt_stdio_output@@V?$positional_parameter_base@_WV?$stream_output_adapter@_W@__crt_stdio_output@@@2@@__crt_stdio_output@@ABE?AW4state@2@_WW432@@Z 1004dab9 f i libucrt:output.obj
 0001:0004caf5       ?find_next_state@?$output_processor@_WV?$stream_output_adapter@_W@__crt_stdio_output@@V?$standard_base@_WV?$stream_output_adapter@_W@__crt_stdio_output@@@2@@__crt_stdio_output@@ABE?AW4state@2@_WW432@@Z 1004daf5 f i libucrt:output.obj
 0001:0004cb2f       ?find_next_state@?$output_processor@_WV?$string_output_adapter@_W@__crt_stdio_output@@V?$format_validation_base@_WV?$string_output_adapter@_W@__crt_stdio_output@@@2@@__crt_stdio_output@@ABE?AW4state@2@_WW432@@Z 1004db2f f i libucrt:output.obj
 0001:0004cb6b       ?find_next_state@?$output_processor@_WV?$string_output_adapter@_W@__crt_stdio_output@@V?$positional_parameter_base@_WV?$string_output_adapter@_W@__crt_stdio_output@@@2@@__crt_stdio_output@@ABE?AW4state@2@_WW432@@Z 1004db6b f i libucrt:output.obj
 0001:0004cba7       ?find_next_state@?$output_processor@_WV?$string_output_adapter@_W@__crt_stdio_output@@V?$standard_base@_WV?$string_output_adapter@_W@__crt_stdio_output@@@2@@__crt_stdio_output@@ABE?AW4state@2@_WW432@@Z 1004dba7 f i libucrt:output.obj
 0001:0004cbe1       ?force_decimal_point@__crt_stdio_output@@YAXPADQAU__crt_locale_pointers@@@Z 1004dbe1 f i libucrt:output.obj
 0001:0004cc3d       ?get_parameter_type@?$positional_parameter_base@DV?$stream_output_adapter@D@__crt_stdio_output@@@__crt_stdio_output@@CA?AW4parameter_type@12@F@Z 1004dc3d f i libucrt:output.obj
 0001:0004cc41       ?get_parameter_type@?$positional_parameter_base@DV?$stream_output_adapter@D@__crt_stdio_output@@@__crt_stdio_output@@CA?AW4parameter_type@12@G@Z 1004dc41 f i libucrt:output.obj
 0001:0004cc45       ?get_parameter_type@?$positional_parameter_base@DV?$stream_output_adapter@D@__crt_stdio_output@@@__crt_stdio_output@@CA?AW4parameter_type@12@H@Z 1004dc45 f i libucrt:output.obj
 0001:0004cc49       ?get_parameter_type@?$positional_parameter_base@DV?$stream_output_adapter@D@__crt_stdio_output@@@__crt_stdio_output@@CA?AW4parameter_type@12@I@Z 1004dc49 f i libucrt:output.obj
 0001:0004cc4d       ?get_parameter_type@?$positional_parameter_base@DV?$stream_output_adapter@D@__crt_stdio_output@@@__crt_stdio_output@@CA?AW4parameter_type@12@U_CRT_DOUBLE@@@Z 1004dc4d f i libucrt:output.obj
 0001:0004cc51       ?get_parameter_type@?$positional_parameter_base@DV?$stream_output_adapter@D@__crt_stdio_output@@@__crt_stdio_output@@CA?AW4parameter_type@12@_J@Z 1004dc51 f i libucrt:output.obj
 0001:0004cc55       ?get_parameter_type@?$positional_parameter_base@DV?$stream_output_adapter@D@__crt_stdio_output@@@__crt_stdio_output@@CA?AW4parameter_type@12@_K@Z 1004dc55 f i libucrt:output.obj
 0001:0004cc59       ?get_parameter_type@?$positional_parameter_base@DV?$stream_output_adapter@D@__crt_stdio_output@@@__crt_stdio_output@@CA?AW4parameter_type@12@_W@Z 1004dc59 f i libucrt:output.obj
 0001:0004cc5d       ?get_parameter_type@?$positional_parameter_base@DV?$string_output_adapter@D@__crt_stdio_output@@@__crt_stdio_output@@CA?AW4parameter_type@12@F@Z 1004dc5d f i libucrt:output.obj
 0001:0004cc61       ?get_parameter_type@?$positional_parameter_base@DV?$string_output_adapter@D@__crt_stdio_output@@@__crt_stdio_output@@CA?AW4parameter_type@12@G@Z 1004dc61 f i libucrt:output.obj
 0001:0004cc65       ?get_parameter_type@?$positional_parameter_base@DV?$string_output_adapter@D@__crt_stdio_output@@@__crt_stdio_output@@CA?AW4parameter_type@12@H@Z 1004dc65 f i libucrt:output.obj
 0001:0004cc69       ?get_parameter_type@?$positional_parameter_base@DV?$string_output_adapter@D@__crt_stdio_output@@@__crt_stdio_output@@CA?AW4parameter_type@12@I@Z 1004dc69 f i libucrt:output.obj
 0001:0004cc6d       ?get_parameter_type@?$positional_parameter_base@DV?$string_output_adapter@D@__crt_stdio_output@@@__crt_stdio_output@@CA?AW4parameter_type@12@U_CRT_DOUBLE@@@Z 1004dc6d f i libucrt:output.obj
 0001:0004cc71       ?get_parameter_type@?$positional_parameter_base@DV?$string_output_adapter@D@__crt_stdio_output@@@__crt_stdio_output@@CA?AW4parameter_type@12@_J@Z 1004dc71 f i libucrt:output.obj
 0001:0004cc75       ?get_parameter_type@?$positional_parameter_base@DV?$string_output_adapter@D@__crt_stdio_output@@@__crt_stdio_output@@CA?AW4parameter_type@12@_K@Z 1004dc75 f i libucrt:output.obj
 0001:0004cc79       ?get_parameter_type@?$positional_parameter_base@DV?$string_output_adapter@D@__crt_stdio_output@@@__crt_stdio_output@@CA?AW4parameter_type@12@_W@Z 1004dc79 f i libucrt:output.obj
 0001:0004cc7d       ?get_parameter_type@?$positional_parameter_base@_WV?$stream_output_adapter@_W@__crt_stdio_output@@@__crt_stdio_output@@CA?AW4parameter_type@12@F@Z 1004dc7d f i libucrt:output.obj
 0001:0004cc81       ?get_parameter_type@?$positional_parameter_base@_WV?$stream_output_adapter@_W@__crt_stdio_output@@@__crt_stdio_output@@CA?AW4parameter_type@12@G@Z 1004dc81 f i libucrt:output.obj
 0001:0004cc85       ?get_parameter_type@?$positional_parameter_base@_WV?$stream_output_adapter@_W@__crt_stdio_output@@@__crt_stdio_output@@CA?AW4parameter_type@12@H@Z 1004dc85 f i libucrt:output.obj
 0001:0004cc89       ?get_parameter_type@?$positional_parameter_base@_WV?$stream_output_adapter@_W@__crt_stdio_output@@@__crt_stdio_output@@CA?AW4parameter_type@12@I@Z 1004dc89 f i libucrt:output.obj
 0001:0004cc8d       ?get_parameter_type@?$positional_parameter_base@_WV?$stream_output_adapter@_W@__crt_stdio_output@@@__crt_stdio_output@@CA?AW4parameter_type@12@U_CRT_DOUBLE@@@Z 1004dc8d f i libucrt:output.obj
 0001:0004cc91       ?get_parameter_type@?$positional_parameter_base@_WV?$stream_output_adapter@_W@__crt_stdio_output@@@__crt_stdio_output@@CA?AW4parameter_type@12@_J@Z 1004dc91 f i libucrt:output.obj
 0001:0004cc95       ?get_parameter_type@?$positional_parameter_base@_WV?$stream_output_adapter@_W@__crt_stdio_output@@@__crt_stdio_output@@CA?AW4parameter_type@12@_K@Z 1004dc95 f i libucrt:output.obj
 0001:0004cc99       ?get_parameter_type@?$positional_parameter_base@_WV?$stream_output_adapter@_W@__crt_stdio_output@@@__crt_stdio_output@@CA?AW4parameter_type@12@_W@Z 1004dc99 f i libucrt:output.obj
 0001:0004cc9d       ?get_parameter_type@?$positional_parameter_base@_WV?$string_output_adapter@_W@__crt_stdio_output@@@__crt_stdio_output@@CA?AW4parameter_type@12@F@Z 1004dc9d f i libucrt:output.obj
 0001:0004cca1       ?get_parameter_type@?$positional_parameter_base@_WV?$string_output_adapter@_W@__crt_stdio_output@@@__crt_stdio_output@@CA?AW4parameter_type@12@G@Z 1004dca1 f i libucrt:output.obj
 0001:0004cca5       ?get_parameter_type@?$positional_parameter_base@_WV?$string_output_adapter@_W@__crt_stdio_output@@@__crt_stdio_output@@CA?AW4parameter_type@12@H@Z 1004dca5 f i libucrt:output.obj
 0001:0004cca9       ?get_parameter_type@?$positional_parameter_base@_WV?$string_output_adapter@_W@__crt_stdio_output@@@__crt_stdio_output@@CA?AW4parameter_type@12@I@Z 1004dca9 f i libucrt:output.obj
 0001:0004ccad       ?get_parameter_type@?$positional_parameter_base@_WV?$string_output_adapter@_W@__crt_stdio_output@@@__crt_stdio_output@@CA?AW4parameter_type@12@U_CRT_DOUBLE@@@Z 1004dcad f i libucrt:output.obj
 0001:0004ccb1       ?get_parameter_type@?$positional_parameter_base@_WV?$string_output_adapter@_W@__crt_stdio_output@@@__crt_stdio_output@@CA?AW4parameter_type@12@_J@Z 1004dcb1 f i libucrt:output.obj
 0001:0004ccb5       ?get_parameter_type@?$positional_parameter_base@_WV?$string_output_adapter@_W@__crt_stdio_output@@@__crt_stdio_output@@CA?AW4parameter_type@12@_K@Z 1004dcb5 f i libucrt:output.obj
 0001:0004ccb9       ?get_parameter_type@?$positional_parameter_base@_WV?$string_output_adapter@_W@__crt_stdio_output@@@__crt_stdio_output@@CA?AW4parameter_type@12@_W@Z 1004dcb9 f i libucrt:output.obj
 0001:0004ccbd       ?has_flag@?$output_processor@DV?$stream_output_adapter@D@__crt_stdio_output@@V?$format_validation_base@DV?$stream_output_adapter@D@__crt_stdio_output@@@2@@__crt_stdio_output@@ABE_NI@Z 1004dcbd f i libucrt:output.obj
 0001:0004cccf       ?has_flag@?$output_processor@DV?$stream_output_adapter@D@__crt_stdio_output@@V?$positional_parameter_base@DV?$stream_output_adapter@D@__crt_stdio_output@@@2@@__crt_stdio_output@@ABE_NI@Z 1004dccf f i libucrt:output.obj
 0001:0004cce1       ?has_flag@?$output_processor@DV?$stream_output_adapter@D@__crt_stdio_output@@V?$standard_base@DV?$stream_output_adapter@D@__crt_stdio_output@@@2@@__crt_stdio_output@@ABE_NI@Z 1004dce1 f i libucrt:output.obj
 0001:0004ccf3       ?has_flag@?$output_processor@DV?$string_output_adapter@D@__crt_stdio_output@@V?$format_validation_base@DV?$string_output_adapter@D@__crt_stdio_output@@@2@@__crt_stdio_output@@ABE_NI@Z 1004dcf3 f i libucrt:output.obj
 0001:0004cd05       ?has_flag@?$output_processor@DV?$string_output_adapter@D@__crt_stdio_output@@V?$positional_parameter_base@DV?$string_output_adapter@D@__crt_stdio_output@@@2@@__crt_stdio_output@@ABE_NI@Z 1004dd05 f i libucrt:output.obj
 0001:0004cd17       ?has_flag@?$output_processor@DV?$string_output_adapter@D@__crt_stdio_output@@V?$standard_base@DV?$string_output_adapter@D@__crt_stdio_output@@@2@@__crt_stdio_output@@ABE_NI@Z 1004dd17 f i libucrt:output.obj
 0001:0004cd29       ?has_flag@?$output_processor@_WV?$stream_output_adapter@_W@__crt_stdio_output@@V?$format_validation_base@_WV?$stream_output_adapter@_W@__crt_stdio_output@@@2@@__crt_stdio_output@@ABE_NI@Z 1004dd29 f i libucrt:output.obj
 0001:0004cd3b       ?has_flag@?$output_processor@_WV?$stream_output_adapter@_W@__crt_stdio_output@@V?$positional_parameter_base@_WV?$stream_output_adapter@_W@__crt_stdio_output@@@2@@__crt_stdio_output@@ABE_NI@Z 1004dd3b f i libucrt:output.obj
 0001:0004cd4d       ?has_flag@?$output_processor@_WV?$stream_output_adapter@_W@__crt_stdio_output@@V?$standard_base@_WV?$stream_output_adapter@_W@__crt_stdio_output@@@2@@__crt_stdio_output@@ABE_NI@Z 1004dd4d f i libucrt:output.obj
 0001:0004cd5f       ?has_flag@?$output_processor@_WV?$string_output_adapter@_W@__crt_stdio_output@@V?$format_validation_base@_WV?$string_output_adapter@_W@__crt_stdio_output@@@2@@__crt_stdio_output@@ABE_NI@Z 1004dd5f f i libucrt:output.obj
 0001:0004cd71       ?has_flag@?$output_processor@_WV?$string_output_adapter@_W@__crt_stdio_output@@V?$positional_parameter_base@_WV?$string_output_adapter@_W@__crt_stdio_output@@@2@@__crt_stdio_output@@ABE_NI@Z 1004dd71 f i libucrt:output.obj
 0001:0004cd83       ?has_flag@?$output_processor@_WV?$string_output_adapter@_W@__crt_stdio_output@@V?$standard_base@_WV?$string_output_adapter@_W@__crt_stdio_output@@@2@@__crt_stdio_output@@ABE_NI@Z 1004dd83 f i libucrt:output.obj
 0001:0004cd95       ?is_positional_parameter_reappearance_consistent@?$positional_parameter_base@DV?$stream_output_adapter@D@__crt_stdio_output@@@__crt_stdio_output@@AAE_NABUparameter_data@12@W4parameter_type@12@DW4length_modifier@2@@Z 1004dd95 f i libucrt:output.obj
 0001:0004ceaf       ?is_positional_parameter_reappearance_consistent@?$positional_parameter_base@DV?$string_output_adapter@D@__crt_stdio_output@@@__crt_stdio_output@@AAE_NABUparameter_data@12@W4parameter_type@12@DW4length_modifier@2@@Z 1004deaf f i libucrt:output.obj
 0001:0004cfc9       ?is_positional_parameter_reappearance_consistent@?$positional_parameter_base@_WV?$stream_output_adapter@_W@__crt_stdio_output@@@__crt_stdio_output@@AAE_NABUparameter_data@12@W4parameter_type@12@_WW4length_modifier@2@@Z 1004dfc9 f i libucrt:output.obj
 0001:0004d0e4       ?is_positional_parameter_reappearance_consistent@?$positional_parameter_base@_WV?$string_output_adapter@_W@__crt_stdio_output@@@__crt_stdio_output@@AAE_NABUparameter_data@12@W4parameter_type@12@_WW4length_modifier@2@@Z 1004e0e4 f i libucrt:output.obj
 0001:0004d1ff       ?narrow_null_string@?$output_processor@DV?$stream_output_adapter@D@__crt_stdio_output@@V?$format_validation_base@DV?$stream_output_adapter@D@__crt_stdio_output@@@2@@__crt_stdio_output@@CAPADXZ 1004e1ff f i libucrt:output.obj
 0001:0004d205       ?narrow_null_string@?$output_processor@DV?$stream_output_adapter@D@__crt_stdio_output@@V?$positional_parameter_base@DV?$stream_output_adapter@D@__crt_stdio_output@@@2@@__crt_stdio_output@@CAPADXZ 1004e205 f i libucrt:output.obj
 0001:0004d20b       ?narrow_null_string@?$output_processor@DV?$stream_output_adapter@D@__crt_stdio_output@@V?$standard_base@DV?$stream_output_adapter@D@__crt_stdio_output@@@2@@__crt_stdio_output@@CAPADXZ 1004e20b f i libucrt:output.obj
 0001:0004d211       ?narrow_null_string@?$output_processor@DV?$string_output_adapter@D@__crt_stdio_output@@V?$format_validation_base@DV?$string_output_adapter@D@__crt_stdio_output@@@2@@__crt_stdio_output@@CAPADXZ 1004e211 f i libucrt:output.obj
 0001:0004d217       ?narrow_null_string@?$output_processor@DV?$string_output_adapter@D@__crt_stdio_output@@V?$positional_parameter_base@DV?$string_output_adapter@D@__crt_stdio_output@@@2@@__crt_stdio_output@@CAPADXZ 1004e217 f i libucrt:output.obj
 0001:0004d21d       ?narrow_null_string@?$output_processor@DV?$string_output_adapter@D@__crt_stdio_output@@V?$standard_base@DV?$string_output_adapter@D@__crt_stdio_output@@@2@@__crt_stdio_output@@CAPADXZ 1004e21d f i libucrt:output.obj
 0001:0004d223       ?narrow_null_string@?$output_processor@_WV?$stream_output_adapter@_W@__crt_stdio_output@@V?$format_validation_base@_WV?$stream_output_adapter@_W@__crt_stdio_output@@@2@@__crt_stdio_output@@CAPADXZ 1004e223 f i libucrt:output.obj
 0001:0004d229       ?narrow_null_string@?$output_processor@_WV?$stream_output_adapter@_W@__crt_stdio_output@@V?$positional_parameter_base@_WV?$stream_output_adapter@_W@__crt_stdio_output@@@2@@__crt_stdio_output@@CAPADXZ 1004e229 f i libucrt:output.obj
 0001:0004d22f       ?narrow_null_string@?$output_processor@_WV?$stream_output_adapter@_W@__crt_stdio_output@@V?$standard_base@_WV?$stream_output_adapter@_W@__crt_stdio_output@@@2@@__crt_stdio_output@@CAPADXZ 1004e22f f i libucrt:output.obj
 0001:0004d235       ?narrow_null_string@?$output_processor@_WV?$string_output_adapter@_W@__crt_stdio_output@@V?$format_validation_base@_WV?$string_output_adapter@_W@__crt_stdio_output@@@2@@__crt_stdio_output@@CAPADXZ 1004e235 f i libucrt:output.obj
 0001:0004d23b       ?narrow_null_string@?$output_processor@_WV?$string_output_adapter@_W@__crt_stdio_output@@V?$positional_parameter_base@_WV?$string_output_adapter@_W@__crt_stdio_output@@@2@@__crt_stdio_output@@CAPADXZ 1004e23b f i libucrt:output.obj
 0001:0004d241       ?narrow_null_string@?$output_processor@_WV?$string_output_adapter@_W@__crt_stdio_output@@V?$standard_base@_WV?$string_output_adapter@_W@__crt_stdio_output@@@2@@__crt_stdio_output@@CAPADXZ 1004e241 f i libucrt:output.obj
 0001:0004d247       ?parse_int_from_format_string@?$output_processor@DV?$stream_output_adapter@D@__crt_stdio_output@@V?$format_validation_base@DV?$stream_output_adapter@D@__crt_stdio_output@@@2@@__crt_stdio_output@@AAE_NQAH@Z 1004e247 f i libucrt:output.obj
 0001:0004d2bf       ?parse_int_from_format_string@?$output_processor@DV?$stream_output_adapter@D@__crt_stdio_output@@V?$positional_parameter_base@DV?$stream_output_adapter@D@__crt_stdio_output@@@2@@__crt_stdio_output@@AAE_NQAH@Z 1004e2bf f i libucrt:output.obj
 0001:0004d337       ?parse_int_from_format_string@?$output_processor@DV?$stream_output_adapter@D@__crt_stdio_output@@V?$standard_base@DV?$stream_output_adapter@D@__crt_stdio_output@@@2@@__crt_stdio_output@@AAE_NQAH@Z 1004e337 f i libucrt:output.obj
 0001:0004d3af       ?parse_int_from_format_string@?$output_processor@DV?$string_output_adapter@D@__crt_stdio_output@@V?$format_validation_base@DV?$string_output_adapter@D@__crt_stdio_output@@@2@@__crt_stdio_output@@AAE_NQAH@Z 1004e3af f i libucrt:output.obj
 0001:0004d427       ?parse_int_from_format_string@?$output_processor@DV?$string_output_adapter@D@__crt_stdio_output@@V?$positional_parameter_base@DV?$string_output_adapter@D@__crt_stdio_output@@@2@@__crt_stdio_output@@AAE_NQAH@Z 1004e427 f i libucrt:output.obj
 0001:0004d49f       ?parse_int_from_format_string@?$output_processor@DV?$string_output_adapter@D@__crt_stdio_output@@V?$standard_base@DV?$string_output_adapter@D@__crt_stdio_output@@@2@@__crt_stdio_output@@AAE_NQAH@Z 1004e49f f i libucrt:output.obj
 0001:0004d517       ?parse_int_from_format_string@?$output_processor@_WV?$stream_output_adapter@_W@__crt_stdio_output@@V?$format_validation_base@_WV?$stream_output_adapter@_W@__crt_stdio_output@@@2@@__crt_stdio_output@@AAE_NQAH@Z 1004e517 f i libucrt:output.obj
 0001:0004d591       ?parse_int_from_format_string@?$output_processor@_WV?$stream_output_adapter@_W@__crt_stdio_output@@V?$positional_parameter_base@_WV?$stream_output_adapter@_W@__crt_stdio_output@@@2@@__crt_stdio_output@@AAE_NQAH@Z 1004e591 f i libucrt:output.obj
 0001:0004d60b       ?parse_int_from_format_string@?$output_processor@_WV?$stream_output_adapter@_W@__crt_stdio_output@@V?$standard_base@_WV?$stream_output_adapter@_W@__crt_stdio_output@@@2@@__crt_stdio_output@@AAE_NQAH@Z 1004e60b f i libucrt:output.obj
 0001:0004d685       ?parse_int_from_format_string@?$output_processor@_WV?$string_output_adapter@_W@__crt_stdio_output@@V?$format_validation_base@_WV?$string_output_adapter@_W@__crt_stdio_output@@@2@@__crt_stdio_output@@AAE_NQAH@Z 1004e685 f i libucrt:output.obj
 0001:0004d6ff       ?parse_int_from_format_string@?$output_processor@_WV?$string_output_adapter@_W@__crt_stdio_output@@V?$positional_parameter_base@_WV?$string_output_adapter@_W@__crt_stdio_output@@@2@@__crt_stdio_output@@AAE_NQAH@Z 1004e6ff f i libucrt:output.obj
 0001:0004d779       ?parse_int_from_format_string@?$output_processor@_WV?$string_output_adapter@_W@__crt_stdio_output@@V?$standard_base@_WV?$string_output_adapter@_W@__crt_stdio_output@@@2@@__crt_stdio_output@@AAE_NQAH@Z 1004e779 f i libucrt:output.obj
 0001:0004d7f3       ?process@?$output_processor@DV?$stream_output_adapter@D@__crt_stdio_output@@V?$format_validation_base@DV?$stream_output_adapter@D@__crt_stdio_output@@@2@@__crt_stdio_output@@QAEHXZ 1004e7f3 f i libucrt:output.obj
 0001:0004dab3       ?process@?$output_processor@DV?$stream_output_adapter@D@__crt_stdio_output@@V?$positional_parameter_base@DV?$stream_output_adapter@D@__crt_stdio_output@@@2@@__crt_stdio_output@@QAEHXZ 1004eab3 f i libucrt:output.obj
 0001:0004dd87       ?process@?$output_processor@DV?$stream_output_adapter@D@__crt_stdio_output@@V?$standard_base@DV?$stream_output_adapter@D@__crt_stdio_output@@@2@@__crt_stdio_output@@QAEHXZ 1004ed87 f i libucrt:output.obj
 0001:0004e037       ?process@?$output_processor@DV?$string_output_adapter@D@__crt_stdio_output@@V?$format_validation_base@DV?$string_output_adapter@D@__crt_stdio_output@@@2@@__crt_stdio_output@@QAEHXZ 1004f037 f i libucrt:output.obj
 0001:0004e31b       ?process@?$output_processor@DV?$string_output_adapter@D@__crt_stdio_output@@V?$positional_parameter_base@DV?$string_output_adapter@D@__crt_stdio_output@@@2@@__crt_stdio_output@@QAEHXZ 1004f31b f i libucrt:output.obj
 0001:0004e61b       ?process@?$output_processor@DV?$string_output_adapter@D@__crt_stdio_output@@V?$standard_base@DV?$string_output_adapter@D@__crt_stdio_output@@@2@@__crt_stdio_output@@QAEHXZ 1004f61b f i libucrt:output.obj
 0001:0004e8ef       ?process@?$output_processor@_WV?$stream_output_adapter@_W@__crt_stdio_output@@V?$format_validation_base@_WV?$stream_output_adapter@_W@__crt_stdio_output@@@2@@__crt_stdio_output@@QAEHXZ 1004f8ef f i libucrt:output.obj
 0001:0004eb0b       ?process@?$output_processor@_WV?$stream_output_adapter@_W@__crt_stdio_output@@V?$positional_parameter_base@_WV?$stream_output_adapter@_W@__crt_stdio_output@@@2@@__crt_stdio_output@@QAEHXZ 1004fb0b f i libucrt:output.obj
 0001:0004ed5f       ?process@?$output_processor@_WV?$stream_output_adapter@_W@__crt_stdio_output@@V?$standard_base@_WV?$stream_output_adapter@_W@__crt_stdio_output@@@2@@__crt_stdio_output@@QAEHXZ 1004fd5f f i libucrt:output.obj
 0001:0004ef6f       ?process@?$output_processor@_WV?$string_output_adapter@_W@__crt_stdio_output@@V?$format_validation_base@_WV?$string_output_adapter@_W@__crt_stdio_output@@@2@@__crt_stdio_output@@QAEHXZ 1004ff6f f i libucrt:output.obj
 0001:0004f1af       ?process@?$output_processor@_WV?$string_output_adapter@_W@__crt_stdio_output@@V?$positional_parameter_base@_WV?$string_output_adapter@_W@__crt_stdio_output@@@2@@__crt_stdio_output@@QAEHXZ 100501af f i libucrt:output.obj
 0001:0004f417       ?process@?$output_processor@_WV?$string_output_adapter@_W@__crt_stdio_output@@V?$standard_base@_WV?$string_output_adapter@_W@__crt_stdio_output@@@2@@__crt_stdio_output@@QAEHXZ 10050417 f i libucrt:output.obj
 0001:0004f653       ?set_flag@?$output_processor@DV?$stream_output_adapter@D@__crt_stdio_output@@V?$format_validation_base@DV?$stream_output_adapter@D@__crt_stdio_output@@@2@@__crt_stdio_output@@AAEXI@Z 10050653 f i libucrt:output.obj
 0001:0004f662       ?set_flag@?$output_processor@DV?$stream_output_adapter@D@__crt_stdio_output@@V?$positional_parameter_base@DV?$stream_output_adapter@D@__crt_stdio_output@@@2@@__crt_stdio_output@@AAEXI@Z 10050662 f i libucrt:output.obj
 0001:0004f671       ?set_flag@?$output_processor@DV?$stream_output_adapter@D@__crt_stdio_output@@V?$standard_base@DV?$stream_output_adapter@D@__crt_stdio_output@@@2@@__crt_stdio_output@@AAEXI@Z 10050671 f i libucrt:output.obj
 0001:0004f680       ?set_flag@?$output_processor@DV?$string_output_adapter@D@__crt_stdio_output@@V?$format_validation_base@DV?$string_output_adapter@D@__crt_stdio_output@@@2@@__crt_stdio_output@@AAEXI@Z 10050680 f i libucrt:output.obj
 0001:0004f68f       ?set_flag@?$output_processor@DV?$string_output_adapter@D@__crt_stdio_output@@V?$positional_parameter_base@DV?$string_output_adapter@D@__crt_stdio_output@@@2@@__crt_stdio_output@@AAEXI@Z 1005068f f i libucrt:output.obj
 0001:0004f69e       ?set_flag@?$output_processor@DV?$string_output_adapter@D@__crt_stdio_output@@V?$standard_base@DV?$string_output_adapter@D@__crt_stdio_output@@@2@@__crt_stdio_output@@AAEXI@Z 1005069e f i libucrt:output.obj
 0001:0004f6ad       ?set_flag@?$output_processor@_WV?$stream_output_adapter@_W@__crt_stdio_output@@V?$format_validation_base@_WV?$stream_output_adapter@_W@__crt_stdio_output@@@2@@__crt_stdio_output@@AAEXI@Z 100506ad f i libucrt:output.obj
 0001:0004f6bc       ?set_flag@?$output_processor@_WV?$stream_output_adapter@_W@__crt_stdio_output@@V?$positional_parameter_base@_WV?$stream_output_adapter@_W@__crt_stdio_output@@@2@@__crt_stdio_output@@AAEXI@Z 100506bc f i libucrt:output.obj
 0001:0004f6cb       ?set_flag@?$output_processor@_WV?$stream_output_adapter@_W@__crt_stdio_output@@V?$standard_base@_WV?$stream_output_adapter@_W@__crt_stdio_output@@@2@@__crt_stdio_output@@AAEXI@Z 100506cb f i libucrt:output.obj
 0001:0004f6da       ?set_flag@?$output_processor@_WV?$string_output_adapter@_W@__crt_stdio_output@@V?$format_validation_base@_WV?$string_output_adapter@_W@__crt_stdio_output@@@2@@__crt_stdio_output@@AAEXI@Z 100506da f i libucrt:output.obj
 0001:0004f6e9       ?set_flag@?$output_processor@_WV?$string_output_adapter@_W@__crt_stdio_output@@V?$positional_parameter_base@_WV?$string_output_adapter@_W@__crt_stdio_output@@@2@@__crt_stdio_output@@AAEXI@Z 100506e9 f i libucrt:output.obj
 0001:0004f6f8       ?set_flag@?$output_processor@_WV?$string_output_adapter@_W@__crt_stdio_output@@V?$standard_base@_WV?$string_output_adapter@_W@__crt_stdio_output@@@2@@__crt_stdio_output@@AAEXI@Z 100506f8 f i libucrt:output.obj
 0001:0004f707       ?should_format@?$positional_parameter_base@DV?$stream_output_adapter@D@__crt_stdio_output@@@__crt_stdio_output@@IAE_NXZ 10050707 f i libucrt:output.obj
 0001:0004f71d       ?should_format@?$positional_parameter_base@DV?$string_output_adapter@D@__crt_stdio_output@@@__crt_stdio_output@@IAE_NXZ 1005071d f i libucrt:output.obj
 0001:0004f733       ?should_format@?$positional_parameter_base@_WV?$stream_output_adapter@_W@__crt_stdio_output@@@__crt_stdio_output@@IAE_NXZ 10050733 f i libucrt:output.obj
 0001:0004f749       ?should_format@?$positional_parameter_base@_WV?$string_output_adapter@_W@__crt_stdio_output@@@__crt_stdio_output@@IAE_NXZ 10050749 f i libucrt:output.obj
 0001:0004f75f       ?should_format@?$standard_base@DV?$stream_output_adapter@D@__crt_stdio_output@@@__crt_stdio_output@@IAE_NXZ 1005075f f i libucrt:output.obj
 0001:0004f762       ?should_format@?$standard_base@DV?$string_output_adapter@D@__crt_stdio_output@@@__crt_stdio_output@@IAE_NXZ 10050762 f i libucrt:output.obj
 0001:0004f765       ?should_format@?$standard_base@_WV?$stream_output_adapter@_W@__crt_stdio_output@@@__crt_stdio_output@@IAE_NXZ 10050765 f i libucrt:output.obj
 0001:0004f768       ?should_format@?$standard_base@_WV?$string_output_adapter@_W@__crt_stdio_output@@@__crt_stdio_output@@IAE_NXZ 10050768 f i libucrt:output.obj
 0001:0004f76b       ?should_skip_normal_state_processing@?$positional_parameter_base@DV?$stream_output_adapter@D@__crt_stdio_output@@@__crt_stdio_output@@IAE_NXZ 1005076b f i libucrt:output.obj
 0001:0004f795       ?should_skip_normal_state_processing@?$positional_parameter_base@DV?$string_output_adapter@D@__crt_stdio_output@@@__crt_stdio_output@@IAE_NXZ 10050795 f i libucrt:output.obj
 0001:0004f7bf       ?should_skip_normal_state_processing@?$positional_parameter_base@_WV?$stream_output_adapter@_W@__crt_stdio_output@@@__crt_stdio_output@@IAE_NXZ 100507bf f i libucrt:output.obj
 0001:0004f7e9       ?should_skip_normal_state_processing@?$positional_parameter_base@_WV?$string_output_adapter@_W@__crt_stdio_output@@@__crt_stdio_output@@IAE_NXZ 100507e9 f i libucrt:output.obj
 0001:0004f813       ?should_skip_normal_state_processing@?$standard_base@DV?$stream_output_adapter@D@__crt_stdio_output@@@__crt_stdio_output@@IAE_NXZ 10050813 f i libucrt:output.obj
 0001:0004f816       ?should_skip_normal_state_processing@?$standard_base@DV?$string_output_adapter@D@__crt_stdio_output@@@__crt_stdio_output@@IAE_NXZ 10050816 f i libucrt:output.obj
 0001:0004f819       ?should_skip_normal_state_processing@?$standard_base@_WV?$stream_output_adapter@_W@__crt_stdio_output@@@__crt_stdio_output@@IAE_NXZ 10050819 f i libucrt:output.obj
 0001:0004f81c       ?should_skip_normal_state_processing@?$standard_base@_WV?$string_output_adapter@_W@__crt_stdio_output@@@__crt_stdio_output@@IAE_NXZ 1005081c f i libucrt:output.obj
 0001:0004f81f       ?should_skip_type_state_output@?$positional_parameter_base@DV?$stream_output_adapter@D@__crt_stdio_output@@@__crt_stdio_output@@IBE_NXZ 1005081f f i libucrt:output.obj
 0001:0004f836       ?should_skip_type_state_output@?$positional_parameter_base@DV?$string_output_adapter@D@__crt_stdio_output@@@__crt_stdio_output@@IBE_NXZ 10050836 f i libucrt:output.obj
 0001:0004f84d       ?should_skip_type_state_output@?$positional_parameter_base@_WV?$stream_output_adapter@_W@__crt_stdio_output@@@__crt_stdio_output@@IBE_NXZ 1005084d f i libucrt:output.obj
 0001:0004f864       ?should_skip_type_state_output@?$positional_parameter_base@_WV?$string_output_adapter@_W@__crt_stdio_output@@@__crt_stdio_output@@IBE_NXZ 10050864 f i libucrt:output.obj
 0001:0004f87b       ?should_skip_type_state_output@?$standard_base@DV?$stream_output_adapter@D@__crt_stdio_output@@@__crt_stdio_output@@IBE_NXZ 1005087b f i libucrt:output.obj
 0001:0004f87e       ?should_skip_type_state_output@?$standard_base@DV?$string_output_adapter@D@__crt_stdio_output@@@__crt_stdio_output@@IBE_NXZ 1005087e f i libucrt:output.obj
 0001:0004f881       ?should_skip_type_state_output@?$standard_base@_WV?$stream_output_adapter@_W@__crt_stdio_output@@@__crt_stdio_output@@IBE_NXZ 10050881 f i libucrt:output.obj
 0001:0004f884       ?should_skip_type_state_output@?$standard_base@_WV?$string_output_adapter@_W@__crt_stdio_output@@@__crt_stdio_output@@IBE_NXZ 10050884 f i libucrt:output.obj
 0001:0004f887       ?state_case_dot@?$output_processor@DV?$stream_output_adapter@D@__crt_stdio_output@@V?$format_validation_base@DV?$stream_output_adapter@D@__crt_stdio_output@@@2@@__crt_stdio_output@@AAE_NXZ 10050887 f i libucrt:output.obj
 0001:0004f88e       ?state_case_dot@?$output_processor@DV?$stream_output_adapter@D@__crt_stdio_output@@V?$positional_parameter_base@DV?$stream_output_adapter@D@__crt_stdio_output@@@2@@__crt_stdio_output@@AAE_NXZ 1005088e f i libucrt:output.obj
 0001:0004f895       ?state_case_dot@?$output_processor@DV?$stream_output_adapter@D@__crt_stdio_output@@V?$standard_base@DV?$stream_output_adapter@D@__crt_stdio_output@@@2@@__crt_stdio_output@@AAE_NXZ 10050895 f i libucrt:output.obj
 0001:0004f89c       ?state_case_dot@?$output_processor@DV?$string_output_adapter@D@__crt_stdio_output@@V?$format_validation_base@DV?$string_output_adapter@D@__crt_stdio_output@@@2@@__crt_stdio_output@@AAE_NXZ 1005089c f i libucrt:output.obj
 0001:0004f8a3       ?state_case_dot@?$output_processor@DV?$string_output_adapter@D@__crt_stdio_output@@V?$positional_parameter_base@DV?$string_output_adapter@D@__crt_stdio_output@@@2@@__crt_stdio_output@@AAE_NXZ 100508a3 f i libucrt:output.obj
 0001:0004f8aa       ?state_case_dot@?$output_processor@DV?$string_output_adapter@D@__crt_stdio_output@@V?$standard_base@DV?$string_output_adapter@D@__crt_stdio_output@@@2@@__crt_stdio_output@@AAE_NXZ 100508aa f i libucrt:output.obj
 0001:0004f8b1       ?state_case_dot@?$output_processor@_WV?$stream_output_adapter@_W@__crt_stdio_output@@V?$format_validation_base@_WV?$stream_output_adapter@_W@__crt_stdio_output@@@2@@__crt_stdio_output@@AAE_NXZ 100508b1 f i libucrt:output.obj
 0001:0004f8b8       ?state_case_dot@?$output_processor@_WV?$stream_output_adapter@_W@__crt_stdio_output@@V?$positional_parameter_base@_WV?$stream_output_adapter@_W@__crt_stdio_output@@@2@@__crt_stdio_output@@AAE_NXZ 100508b8 f i libucrt:output.obj
 0001:0004f8bf       ?state_case_dot@?$output_processor@_WV?$stream_output_adapter@_W@__crt_stdio_output@@V?$standard_base@_WV?$stream_output_adapter@_W@__crt_stdio_output@@@2@@__crt_stdio_output@@AAE_NXZ 100508bf f i libucrt:output.obj
 0001:0004f8c6       ?state_case_dot@?$output_processor@_WV?$string_output_adapter@_W@__crt_stdio_output@@V?$format_validation_base@_WV?$string_output_adapter@_W@__crt_stdio_output@@@2@@__crt_stdio_output@@AAE_NXZ 100508c6 f i libucrt:output.obj
 0001:0004f8cd       ?state_case_dot@?$output_processor@_WV?$string_output_adapter@_W@__crt_stdio_output@@V?$positional_parameter_base@_WV?$string_output_adapter@_W@__crt_stdio_output@@@2@@__crt_stdio_output@@AAE_NXZ 100508cd f i libucrt:output.obj
 0001:0004f8d4       ?state_case_dot@?$output_processor@_WV?$string_output_adapter@_W@__crt_stdio_output@@V?$standard_base@_WV?$string_output_adapter@_W@__crt_stdio_output@@@2@@__crt_stdio_output@@AAE_NXZ 100508d4 f i libucrt:output.obj
 0001:0004f8db       ?state_case_flag@?$output_processor@DV?$stream_output_adapter@D@__crt_stdio_output@@V?$format_validation_base@DV?$stream_output_adapter@D@__crt_stdio_output@@@2@@__crt_stdio_output@@AAE_NXZ 100508db f i libucrt:output.obj
 0001:0004f918       ?state_case_flag@?$output_processor@DV?$stream_output_adapter@D@__crt_stdio_output@@V?$positional_parameter_base@DV?$stream_output_adapter@D@__crt_stdio_output@@@2@@__crt_stdio_output@@AAE_NXZ 10050918 f i libucrt:output.obj
 0001:0004f955       ?state_case_flag@?$output_processor@DV?$stream_output_adapter@D@__crt_stdio_output@@V?$standard_base@DV?$stream_output_adapter@D@__crt_stdio_output@@@2@@__crt_stdio_output@@AAE_NXZ 10050955 f i libucrt:output.obj
 0001:0004f992       ?state_case_flag@?$output_processor@DV?$string_output_adapter@D@__crt_stdio_output@@V?$format_validation_base@DV?$string_output_adapter@D@__crt_stdio_output@@@2@@__crt_stdio_output@@AAE_NXZ 10050992 f i libucrt:output.obj
 0001:0004f9cf       ?state_case_flag@?$output_processor@DV?$string_output_adapter@D@__crt_stdio_output@@V?$positional_parameter_base@DV?$string_output_adapter@D@__crt_stdio_output@@@2@@__crt_stdio_output@@AAE_NXZ 100509cf f i libucrt:output.obj
 0001:0004fa0c       ?state_case_flag@?$output_processor@DV?$string_output_adapter@D@__crt_stdio_output@@V?$standard_base@DV?$string_output_adapter@D@__crt_stdio_output@@@2@@__crt_stdio_output@@AAE_NXZ 10050a0c f i libucrt:output.obj
 0001:0004fa49       ?state_case_flag@?$output_processor@_WV?$stream_output_adapter@_W@__crt_stdio_output@@V?$format_validation_base@_WV?$stream_output_adapter@_W@__crt_stdio_output@@@2@@__crt_stdio_output@@AAE_NXZ 10050a49 f i libucrt:output.obj
 0001:0004fa86       ?state_case_flag@?$output_processor@_WV?$stream_output_adapter@_W@__crt_stdio_output@@V?$positional_parameter_base@_WV?$stream_output_adapter@_W@__crt_stdio_output@@@2@@__crt_stdio_output@@AAE_NXZ 10050a86 f i libucrt:output.obj
 0001:0004fac3       ?state_case_flag@?$output_processor@_WV?$stream_output_adapter@_W@__crt_stdio_output@@V?$standard_base@_WV?$stream_output_adapter@_W@__crt_stdio_output@@@2@@__crt_stdio_output@@AAE_NXZ 10050ac3 f i libucrt:output.obj
 0001:0004fb00       ?state_case_flag@?$output_processor@_WV?$string_output_adapter@_W@__crt_stdio_output@@V?$format_validation_base@_WV?$string_output_adapter@_W@__crt_stdio_output@@@2@@__crt_stdio_output@@AAE_NXZ 10050b00 f i libucrt:output.obj
 0001:0004fb3d       ?state_case_flag@?$output_processor@_WV?$string_output_adapter@_W@__crt_stdio_output@@V?$positional_parameter_base@_WV?$string_output_adapter@_W@__crt_stdio_output@@@2@@__crt_stdio_output@@AAE_NXZ 10050b3d f i libucrt:output.obj
 0001:0004fb7a       ?state_case_flag@?$output_processor@_WV?$string_output_adapter@_W@__crt_stdio_output@@V?$standard_base@_WV?$string_output_adapter@_W@__crt_stdio_output@@@2@@__crt_stdio_output@@AAE_NXZ 10050b7a f i libucrt:output.obj
 0001:0004fbb7       ?state_case_normal@?$output_processor@DV?$stream_output_adapter@D@__crt_stdio_output@@V?$format_validation_base@DV?$stream_output_adapter@D@__crt_stdio_output@@@2@@__crt_stdio_output@@AAE_NXZ 10050bb7 f i libucrt:output.obj
 0001:0004fc74       ?state_case_normal@?$output_processor@DV?$stream_output_adapter@D@__crt_stdio_output@@V?$positional_parameter_base@DV?$stream_output_adapter@D@__crt_stdio_output@@@2@@__crt_stdio_output@@AAE_NXZ 10050c74 f i libucrt:output.obj
 0001:0004fd3c       ?state_case_normal@?$output_processor@DV?$stream_output_adapter@D@__crt_stdio_output@@V?$standard_base@DV?$stream_output_adapter@D@__crt_stdio_output@@@2@@__crt_stdio_output@@AAE_NXZ 10050d3c f i libucrt:output.obj
 0001:0004fdf9       ?state_case_normal@?$output_processor@DV?$string_output_adapter@D@__crt_stdio_output@@V?$format_validation_base@DV?$string_output_adapter@D@__crt_stdio_output@@@2@@__crt_stdio_output@@AAE_NXZ 10050df9 f i libucrt:output.obj
 0001:0004fef5       ?state_case_normal@?$output_processor@DV?$string_output_adapter@D@__crt_stdio_output@@V?$positional_parameter_base@DV?$string_output_adapter@D@__crt_stdio_output@@@2@@__crt_stdio_output@@AAE_NXZ 10050ef5 f i libucrt:output.obj
 0001:0004fffc       ?state_case_normal@?$output_processor@DV?$string_output_adapter@D@__crt_stdio_output@@V?$standard_base@DV?$string_output_adapter@D@__crt_stdio_output@@@2@@__crt_stdio_output@@AAE_NXZ 10050ffc f i libucrt:output.obj
 0001:000500f8       ?state_case_normal@?$output_processor@_WV?$stream_output_adapter@_W@__crt_stdio_output@@V?$format_validation_base@_WV?$stream_output_adapter@_W@__crt_stdio_output@@@2@@__crt_stdio_output@@AAE_NXZ 100510f8 f i libucrt:output.obj
 0001:00050116       ?state_case_normal@?$output_processor@_WV?$stream_output_adapter@_W@__crt_stdio_output@@V?$positional_parameter_base@_WV?$stream_output_adapter@_W@__crt_stdio_output@@@2@@__crt_stdio_output@@AAE_NXZ 10051116 f i libucrt:output.obj
 0001:00050143       ?state_case_normal@?$output_processor@_WV?$stream_output_adapter@_W@__crt_stdio_output@@V?$standard_base@_WV?$stream_output_adapter@_W@__crt_stdio_output@@@2@@__crt_stdio_output@@AAE_NXZ 10051143 f i libucrt:output.obj
 0001:00050161       ?state_case_normal@?$output_processor@_WV?$string_output_adapter@_W@__crt_stdio_output@@V?$format_validation_base@_WV?$string_output_adapter@_W@__crt_stdio_output@@@2@@__crt_stdio_output@@AAE_NXZ 10051161 f i libucrt:output.obj
 0001:000501a9       ?state_case_normal@?$output_processor@_WV?$string_output_adapter@_W@__crt_stdio_output@@V?$positional_parameter_base@_WV?$string_output_adapter@_W@__crt_stdio_output@@@2@@__crt_stdio_output@@AAE_NXZ 100511a9 f i libucrt:output.obj
 0001:000501fc       ?state_case_normal@?$output_processor@_WV?$string_output_adapter@_W@__crt_stdio_output@@V?$standard_base@_WV?$string_output_adapter@_W@__crt_stdio_output@@@2@@__crt_stdio_output@@AAE_NXZ 100511fc f i libucrt:output.obj
 0001:00050244       ?state_case_normal_common@?$output_processor@DV?$stream_output_adapter@D@__crt_stdio_output@@V?$format_validation_base@DV?$stream_output_adapter@D@__crt_stdio_output@@@2@@__crt_stdio_output@@AAE_NXZ 10051244 f i libucrt:output.obj
 0001:000502dc       ?state_case_normal_common@?$output_processor@DV?$stream_output_adapter@D@__crt_stdio_output@@V?$positional_parameter_base@DV?$stream_output_adapter@D@__crt_stdio_output@@@2@@__crt_stdio_output@@AAE_NXZ 100512dc f i libucrt:output.obj
 0001:00050374       ?state_case_normal_common@?$output_processor@DV?$stream_output_adapter@D@__crt_stdio_output@@V?$standard_base@DV?$stream_output_adapter@D@__crt_stdio_output@@@2@@__crt_stdio_output@@AAE_NXZ 10051374 f i libucrt:output.obj
 0001:0005040c       ?state_case_normal_common@?$output_processor@DV?$string_output_adapter@D@__crt_stdio_output@@V?$format_validation_base@DV?$string_output_adapter@D@__crt_stdio_output@@@2@@__crt_stdio_output@@AAE_NXZ 1005140c f i libucrt:output.obj
 0001:000504ec       ?state_case_normal_common@?$output_processor@DV?$string_output_adapter@D@__crt_stdio_output@@V?$positional_parameter_base@DV?$string_output_adapter@D@__crt_stdio_output@@@2@@__crt_stdio_output@@AAE_NXZ 100514ec f i libucrt:output.obj
 0001:000505cc       ?state_case_normal_common@?$output_processor@DV?$string_output_adapter@D@__crt_stdio_output@@V?$standard_base@DV?$string_output_adapter@D@__crt_stdio_output@@@2@@__crt_stdio_output@@AAE_NXZ 100515cc f i libucrt:output.obj
 0001:000506ac       ?state_case_normal_common@?$output_processor@_WV?$stream_output_adapter@_W@__crt_stdio_output@@V?$format_validation_base@_WV?$stream_output_adapter@_W@__crt_stdio_output@@@2@@__crt_stdio_output@@AAE_NXZ 100516ac f i libucrt:output.obj
 0001:000506ca       ?state_case_normal_common@?$output_processor@_WV?$stream_output_adapter@_W@__crt_stdio_output@@V?$positional_parameter_base@_WV?$stream_output_adapter@_W@__crt_stdio_output@@@2@@__crt_stdio_output@@AAE_NXZ 100516ca f i libucrt:output.obj
 0001:000506e8       ?state_case_normal_common@?$output_processor@_WV?$stream_output_adapter@_W@__crt_stdio_output@@V?$standard_base@_WV?$stream_output_adapter@_W@__crt_stdio_output@@@2@@__crt_stdio_output@@AAE_NXZ 100516e8 f i libucrt:output.obj
 0001:00050706       ?state_case_normal_common@?$output_processor@_WV?$string_output_adapter@_W@__crt_stdio_output@@V?$format_validation_base@_WV?$string_output_adapter@_W@__crt_stdio_output@@@2@@__crt_stdio_output@@AAE_NXZ 10051706 f i libucrt:output.obj
 0001:0005074e       ?state_case_normal_common@?$output_processor@_WV?$string_output_adapter@_W@__crt_stdio_output@@V?$positional_parameter_base@_WV?$string_output_adapter@_W@__crt_stdio_output@@@2@@__crt_stdio_output@@AAE_NXZ 1005174e f i libucrt:output.obj
 0001:00050796       ?state_case_normal_common@?$output_processor@_WV?$string_output_adapter@_W@__crt_stdio_output@@V?$standard_base@_WV?$string_output_adapter@_W@__crt_stdio_output@@@2@@__crt_stdio_output@@AAE_NXZ 10051796 f i libucrt:output.obj
 0001:000507de       ?state_case_normal_tchar@?$output_processor@DV?$stream_output_adapter@D@__crt_stdio_output@@V?$format_validation_base@DV?$stream_output_adapter@D@__crt_stdio_output@@@2@@__crt_stdio_output@@AAE_ND@Z 100517de f i libucrt:output.obj
 0001:00050865       ?state_case_normal_tchar@?$output_processor@DV?$stream_output_adapter@D@__crt_stdio_output@@V?$positional_parameter_base@DV?$stream_output_adapter@D@__crt_stdio_output@@@2@@__crt_stdio_output@@AAE_ND@Z 10051865 f i libucrt:output.obj
 0001:000508ec       ?state_case_normal_tchar@?$output_processor@DV?$stream_output_adapter@D@__crt_stdio_output@@V?$standard_base@DV?$stream_output_adapter@D@__crt_stdio_output@@@2@@__crt_stdio_output@@AAE_ND@Z 100518ec f i libucrt:output.obj
 0001:00050973       ?state_case_normal_tchar@?$output_processor@DV?$string_output_adapter@D@__crt_stdio_output@@V?$format_validation_base@DV?$string_output_adapter@D@__crt_stdio_output@@@2@@__crt_stdio_output@@AAE_ND@Z 10051973 f i libucrt:output.obj
 0001:00050a1e       ?state_case_normal_tchar@?$output_processor@DV?$string_output_adapter@D@__crt_stdio_output@@V?$positional_parameter_base@DV?$string_output_adapter@D@__crt_stdio_output@@@2@@__crt_stdio_output@@AAE_ND@Z 10051a1e f i libucrt:output.obj
 0001:00050ac9       ?state_case_normal_tchar@?$output_processor@DV?$string_output_adapter@D@__crt_stdio_output@@V?$standard_base@DV?$string_output_adapter@D@__crt_stdio_output@@@2@@__crt_stdio_output@@AAE_ND@Z 10051ac9 f i libucrt:output.obj
 0001:00050b74       ?state_case_normal_tchar@?$output_processor@_WV?$stream_output_adapter@_W@__crt_stdio_output@@V?$format_validation_base@_WV?$stream_output_adapter@_W@__crt_stdio_output@@@2@@__crt_stdio_output@@AAE_N_W@Z 10051b74 f i libucrt:output.obj
 0001:00050b7d       ?state_case_normal_tchar@?$output_processor@_WV?$stream_output_adapter@_W@__crt_stdio_output@@V?$positional_parameter_base@_WV?$stream_output_adapter@_W@__crt_stdio_output@@@2@@__crt_stdio_output@@AAE_N_W@Z 10051b7d f i libucrt:output.obj
 0001:00050b86       ?state_case_normal_tchar@?$output_processor@_WV?$stream_output_adapter@_W@__crt_stdio_output@@V?$standard_base@_WV?$stream_output_adapter@_W@__crt_stdio_output@@@2@@__crt_stdio_output@@AAE_N_W@Z 10051b86 f i libucrt:output.obj
 0001:00050b8f       ?state_case_normal_tchar@?$output_processor@_WV?$string_output_adapter@_W@__crt_stdio_output@@V?$format_validation_base@_WV?$string_output_adapter@_W@__crt_stdio_output@@@2@@__crt_stdio_output@@AAE_N_W@Z 10051b8f f i libucrt:output.obj
 0001:00050b98       ?state_case_normal_tchar@?$output_processor@_WV?$string_output_adapter@_W@__crt_stdio_output@@V?$positional_parameter_base@_WV?$string_output_adapter@_W@__crt_stdio_output@@@2@@__crt_stdio_output@@AAE_N_W@Z 10051b98 f i libucrt:output.obj
 0001:00050ba1       ?state_case_normal_tchar@?$output_processor@_WV?$string_output_adapter@_W@__crt_stdio_output@@V?$standard_base@_WV?$string_output_adapter@_W@__crt_stdio_output@@@2@@__crt_stdio_output@@AAE_N_W@Z 10051ba1 f i libucrt:output.obj
 0001:00050baa       ?state_case_percent@?$output_processor@DV?$stream_output_adapter@D@__crt_stdio_output@@V?$format_validation_base@DV?$stream_output_adapter@D@__crt_stdio_output@@@2@@__crt_stdio_output@@AAE_NXZ 10051baa f i libucrt:output.obj
 0001:00050bc2       ?state_case_percent@?$output_processor@DV?$stream_output_adapter@D@__crt_stdio_output@@V?$positional_parameter_base@DV?$stream_output_adapter@D@__crt_stdio_output@@@2@@__crt_stdio_output@@AAE_NXZ 10051bc2 f i libucrt:output.obj
 0001:00050bda       ?state_case_percent@?$output_processor@DV?$stream_output_adapter@D@__crt_stdio_output@@V?$standard_base@DV?$stream_output_adapter@D@__crt_stdio_output@@@2@@__crt_stdio_output@@AAE_NXZ 10051bda f i libucrt:output.obj
 0001:00050bf2       ?state_case_percent@?$output_processor@DV?$string_output_adapter@D@__crt_stdio_output@@V?$format_validation_base@DV?$string_output_adapter@D@__crt_stdio_output@@@2@@__crt_stdio_output@@AAE_NXZ 10051bf2 f i libucrt:output.obj
 0001:00050c0a       ?state_case_percent@?$output_processor@DV?$string_output_adapter@D@__crt_stdio_output@@V?$positional_parameter_base@DV?$string_output_adapter@D@__crt_stdio_output@@@2@@__crt_stdio_output@@AAE_NXZ 10051c0a f i libucrt:output.obj
 0001:00050c22       ?state_case_percent@?$output_processor@DV?$string_output_adapter@D@__crt_stdio_output@@V?$standard_base@DV?$string_output_adapter@D@__crt_stdio_output@@@2@@__crt_stdio_output@@AAE_NXZ 10051c22 f i libucrt:output.obj
 0001:00050c3a       ?state_case_percent@?$output_processor@_WV?$stream_output_adapter@_W@__crt_stdio_output@@V?$format_validation_base@_WV?$stream_output_adapter@_W@__crt_stdio_output@@@2@@__crt_stdio_output@@AAE_NXZ 10051c3a f i libucrt:output.obj
 0001:00050c52       ?state_case_percent@?$output_processor@_WV?$stream_output_adapter@_W@__crt_stdio_output@@V?$positional_parameter_base@_WV?$stream_output_adapter@_W@__crt_stdio_output@@@2@@__crt_stdio_output@@AAE_NXZ 10051c52 f i libucrt:output.obj
 0001:00050c6a       ?state_case_percent@?$output_processor@_WV?$stream_output_adapter@_W@__crt_stdio_output@@V?$standard_base@_WV?$stream_output_adapter@_W@__crt_stdio_output@@@2@@__crt_stdio_output@@AAE_NXZ 10051c6a f i libucrt:output.obj
 0001:00050c82       ?state_case_percent@?$output_processor@_WV?$string_output_adapter@_W@__crt_stdio_output@@V?$format_validation_base@_WV?$string_output_adapter@_W@__crt_stdio_output@@@2@@__crt_stdio_output@@AAE_NXZ 10051c82 f i libucrt:output.obj
 0001:00050c9a       ?state_case_percent@?$output_processor@_WV?$string_output_adapter@_W@__crt_stdio_output@@V?$positional_parameter_base@_WV?$string_output_adapter@_W@__crt_stdio_output@@@2@@__crt_stdio_output@@AAE_NXZ 10051c9a f i libucrt:output.obj
 0001:00050cb2       ?state_case_percent@?$output_processor@_WV?$string_output_adapter@_W@__crt_stdio_output@@V?$standard_base@_WV?$string_output_adapter@_W@__crt_stdio_output@@@2@@__crt_stdio_output@@AAE_NXZ 10051cb2 f i libucrt:output.obj
 0001:00050cca       ?state_case_precision@?$output_processor@DV?$stream_output_adapter@D@__crt_stdio_output@@V?$format_validation_base@DV?$stream_output_adapter@D@__crt_stdio_output@@@2@@__crt_stdio_output@@AAE_NXZ 10051cca f i libucrt:output.obj
 0001:00050cf6       ?state_case_precision@?$output_processor@DV?$stream_output_adapter@D@__crt_stdio_output@@V?$positional_parameter_base@DV?$stream_output_adapter@D@__crt_stdio_output@@@2@@__crt_stdio_output@@AAE_NXZ 10051cf6 f i libucrt:output.obj
 0001:00050d30       ?state_case_precision@?$output_processor@DV?$stream_output_adapter@D@__crt_stdio_output@@V?$standard_base@DV?$stream_output_adapter@D@__crt_stdio_output@@@2@@__crt_stdio_output@@AAE_NXZ 10051d30 f i libucrt:output.obj
 0001:00050d5c       ?state_case_precision@?$output_processor@DV?$string_output_adapter@D@__crt_stdio_output@@V?$format_validation_base@DV?$string_output_adapter@D@__crt_stdio_output@@@2@@__crt_stdio_output@@AAE_NXZ 10051d5c f i libucrt:output.obj
 0001:00050d88       ?state_case_precision@?$output_processor@DV?$string_output_adapter@D@__crt_stdio_output@@V?$positional_parameter_base@DV?$string_output_adapter@D@__crt_stdio_output@@@2@@__crt_stdio_output@@AAE_NXZ 10051d88 f i libucrt:output.obj
 0001:00050dc2       ?state_case_precision@?$output_processor@DV?$string_output_adapter@D@__crt_stdio_output@@V?$standard_base@DV?$string_output_adapter@D@__crt_stdio_output@@@2@@__crt_stdio_output@@AAE_NXZ 10051dc2 f i libucrt:output.obj
 0001:00050dee       ?state_case_precision@?$output_processor@_WV?$stream_output_adapter@_W@__crt_stdio_output@@V?$format_validation_base@_WV?$stream_output_adapter@_W@__crt_stdio_output@@@2@@__crt_stdio_output@@AAE_NXZ 10051dee f i libucrt:output.obj
 0001:00050e1b       ?state_case_precision@?$output_processor@_WV?$stream_output_adapter@_W@__crt_stdio_output@@V?$positional_parameter_base@_WV?$stream_output_adapter@_W@__crt_stdio_output@@@2@@__crt_stdio_output@@AAE_NXZ 10051e1b f i libucrt:output.obj
 0001:00050e56       ?state_case_precision@?$output_processor@_WV?$stream_output_adapter@_W@__crt_stdio_output@@V?$standard_base@_WV?$stream_output_adapter@_W@__crt_stdio_output@@@2@@__crt_stdio_output@@AAE_NXZ 10051e56 f i libucrt:output.obj
 0001:00050e83       ?state_case_precision@?$output_processor@_WV?$string_output_adapter@_W@__crt_stdio_output@@V?$format_validation_base@_WV?$string_output_adapter@_W@__crt_stdio_output@@@2@@__crt_stdio_output@@AAE_NXZ 10051e83 f i libucrt:output.obj
 0001:00050eb0       ?state_case_precision@?$output_processor@_WV?$string_output_adapter@_W@__crt_stdio_output@@V?$positional_parameter_base@_WV?$string_output_adapter@_W@__crt_stdio_output@@@2@@__crt_stdio_output@@AAE_NXZ 10051eb0 f i libucrt:output.obj
 0001:00050eeb       ?state_case_precision@?$output_processor@_WV?$string_output_adapter@_W@__crt_stdio_output@@V?$standard_base@_WV?$string_output_adapter@_W@__crt_stdio_output@@@2@@__crt_stdio_output@@AAE_NXZ 10051eeb f i libucrt:output.obj
 0001:00050f18       ?state_case_size@?$output_processor@DV?$stream_output_adapter@D@__crt_stdio_output@@V?$format_validation_base@DV?$stream_output_adapter@D@__crt_stdio_output@@@2@@__crt_stdio_output@@AAE_NXZ 10051f18 f i libucrt:output.obj
 0001:00051071       ?state_case_size@?$output_processor@DV?$stream_output_adapter@D@__crt_stdio_output@@V?$positional_parameter_base@DV?$stream_output_adapter@D@__crt_stdio_output@@@2@@__crt_stdio_output@@AAE_NXZ 10052071 f i libucrt:output.obj
 0001:000511ca       ?state_case_size@?$output_processor@DV?$stream_output_adapter@D@__crt_stdio_output@@V?$standard_base@DV?$stream_output_adapter@D@__crt_stdio_output@@@2@@__crt_stdio_output@@AAE_NXZ 100521ca f i libucrt:output.obj
 0001:00051323       ?state_case_size@?$output_processor@DV?$string_output_adapter@D@__crt_stdio_output@@V?$format_validation_base@DV?$string_output_adapter@D@__crt_stdio_output@@@2@@__crt_stdio_output@@AAE_NXZ 10052323 f i libucrt:output.obj
 0001:0005147c       ?state_case_size@?$output_processor@DV?$string_output_adapter@D@__crt_stdio_output@@V?$positional_parameter_base@DV?$string_output_adapter@D@__crt_stdio_output@@@2@@__crt_stdio_output@@AAE_NXZ 1005247c f i libucrt:output.obj
 0001:000515d5       ?state_case_size@?$output_processor@DV?$string_output_adapter@D@__crt_stdio_output@@V?$standard_base@DV?$string_output_adapter@D@__crt_stdio_output@@@2@@__crt_stdio_output@@AAE_NXZ 100525d5 f i libucrt:output.obj
 0001:0005172e       ?state_case_size@?$output_processor@_WV?$stream_output_adapter@_W@__crt_stdio_output@@V?$format_validation_base@_WV?$stream_output_adapter@_W@__crt_stdio_output@@@2@@__crt_stdio_output@@AAE_NXZ 1005272e f i libucrt:output.obj
 0001:000518b8       ?state_case_size@?$output_processor@_WV?$stream_output_adapter@_W@__crt_stdio_output@@V?$positional_parameter_base@_WV?$stream_output_adapter@_W@__crt_stdio_output@@@2@@__crt_stdio_output@@AAE_NXZ 100528b8 f i libucrt:output.obj
 0001:00051a42       ?state_case_size@?$output_processor@_WV?$stream_output_adapter@_W@__crt_stdio_output@@V?$standard_base@_WV?$stream_output_adapter@_W@__crt_stdio_output@@@2@@__crt_stdio_output@@AAE_NXZ 10052a42 f i libucrt:output.obj
 0001:00051bcc       ?state_case_size@?$output_processor@_WV?$string_output_adapter@_W@__crt_stdio_output@@V?$format_validation_base@_WV?$string_output_adapter@_W@__crt_stdio_output@@@2@@__crt_stdio_output@@AAE_NXZ 10052bcc f i libucrt:output.obj
 0001:00051d56       ?state_case_size@?$output_processor@_WV?$string_output_adapter@_W@__crt_stdio_output@@V?$positional_parameter_base@_WV?$string_output_adapter@_W@__crt_stdio_output@@@2@@__crt_stdio_output@@AAE_NXZ 10052d56 f i libucrt:output.obj
 0001:00051ee0       ?state_case_size@?$output_processor@_WV?$string_output_adapter@_W@__crt_stdio_output@@V?$standard_base@_WV?$string_output_adapter@_W@__crt_stdio_output@@@2@@__crt_stdio_output@@AAE_NXZ 10052ee0 f i libucrt:output.obj
 0001:0005206a       ?state_case_type@?$output_processor@DV?$stream_output_adapter@D@__crt_stdio_output@@V?$format_validation_base@DV?$stream_output_adapter@D@__crt_stdio_output@@@2@@__crt_stdio_output@@AAE_NXZ 1005306a f i libucrt:output.obj
 0001:000523ac       ?state_case_type@?$output_processor@DV?$stream_output_adapter@D@__crt_stdio_output@@V?$positional_parameter_base@DV?$stream_output_adapter@D@__crt_stdio_output@@@2@@__crt_stdio_output@@AAE_NXZ 100533ac f i libucrt:output.obj
 0001:000526fd       ?state_case_type@?$output_processor@DV?$stream_output_adapter@D@__crt_stdio_output@@V?$standard_base@DV?$stream_output_adapter@D@__crt_stdio_output@@@2@@__crt_stdio_output@@AAE_NXZ 100536fd f i libucrt:output.obj
 0001:00052a3f       ?state_case_type@?$output_processor@DV?$string_output_adapter@D@__crt_stdio_output@@V?$format_validation_base@DV?$string_output_adapter@D@__crt_stdio_output@@@2@@__crt_stdio_output@@AAE_NXZ 10053a3f f i libucrt:output.obj
 0001:00052d9e       ?state_case_type@?$output_processor@DV?$string_output_adapter@D@__crt_stdio_output@@V?$positional_parameter_base@DV?$string_output_adapter@D@__crt_stdio_output@@@2@@__crt_stdio_output@@AAE_NXZ 10053d9e f i libucrt:output.obj
 0001:0005310c       ?state_case_type@?$output_processor@DV?$string_output_adapter@D@__crt_stdio_output@@V?$standard_base@DV?$string_output_adapter@D@__crt_stdio_output@@@2@@__crt_stdio_output@@AAE_NXZ 1005410c f i libucrt:output.obj
 0001:0005346b       ?state_case_type@?$output_processor@_WV?$stream_output_adapter@_W@__crt_stdio_output@@V?$format_validation_base@_WV?$stream_output_adapter@_W@__crt_stdio_output@@@2@@__crt_stdio_output@@AAE_NXZ 1005446b f i libucrt:output.obj
 0001:000537c9       ?state_case_type@?$output_processor@_WV?$stream_output_adapter@_W@__crt_stdio_output@@V?$positional_parameter_base@_WV?$stream_output_adapter@_W@__crt_stdio_output@@@2@@__crt_stdio_output@@AAE_NXZ 100547c9 f i libucrt:output.obj
 0001:00053b36       ?state_case_type@?$output_processor@_WV?$stream_output_adapter@_W@__crt_stdio_output@@V?$standard_base@_WV?$stream_output_adapter@_W@__crt_stdio_output@@@2@@__crt_stdio_output@@AAE_NXZ 10054b36 f i libucrt:output.obj
 0001:00053e94       ?state_case_type@?$output_processor@_WV?$string_output_adapter@_W@__crt_stdio_output@@V?$format_validation_base@_WV?$string_output_adapter@_W@__crt_stdio_output@@@2@@__crt_stdio_output@@AAE_NXZ 10054e94 f i libucrt:output.obj
 0001:00054288       ?state_case_type@?$output_processor@_WV?$string_output_adapter@_W@__crt_stdio_output@@V?$positional_parameter_base@_WV?$string_output_adapter@_W@__crt_stdio_output@@@2@@__crt_stdio_output@@AAE_NXZ 10055288 f i libucrt:output.obj
 0001:0005468b       ?state_case_type@?$output_processor@_WV?$string_output_adapter@_W@__crt_stdio_output@@V?$standard_base@_WV?$string_output_adapter@_W@__crt_stdio_output@@@2@@__crt_stdio_output@@AAE_NXZ 1005568b f i libucrt:output.obj
 0001:00054a7f       ?state_case_width@?$output_processor@DV?$stream_output_adapter@D@__crt_stdio_output@@V?$format_validation_base@DV?$stream_output_adapter@D@__crt_stdio_output@@@2@@__crt_stdio_output@@AAE_NXZ 10055a7f f i libucrt:output.obj
 0001:00054ab0       ?state_case_width@?$output_processor@DV?$stream_output_adapter@D@__crt_stdio_output@@V?$positional_parameter_base@DV?$stream_output_adapter@D@__crt_stdio_output@@@2@@__crt_stdio_output@@AAE_NXZ 10055ab0 f i libucrt:output.obj
 0001:00054af0       ?state_case_width@?$output_processor@DV?$stream_output_adapter@D@__crt_stdio_output@@V?$standard_base@DV?$stream_output_adapter@D@__crt_stdio_output@@@2@@__crt_stdio_output@@AAE_NXZ 10055af0 f i libucrt:output.obj
 0001:00054b21       ?state_case_width@?$output_processor@DV?$string_output_adapter@D@__crt_stdio_output@@V?$format_validation_base@DV?$string_output_adapter@D@__crt_stdio_output@@@2@@__crt_stdio_output@@AAE_NXZ 10055b21 f i libucrt:output.obj
 0001:00054b52       ?state_case_width@?$output_processor@DV?$string_output_adapter@D@__crt_stdio_output@@V?$positional_parameter_base@DV?$string_output_adapter@D@__crt_stdio_output@@@2@@__crt_stdio_output@@AAE_NXZ 10055b52 f i libucrt:output.obj
 0001:00054b92       ?state_case_width@?$output_processor@DV?$string_output_adapter@D@__crt_stdio_output@@V?$standard_base@DV?$string_output_adapter@D@__crt_stdio_output@@@2@@__crt_stdio_output@@AAE_NXZ 10055b92 f i libucrt:output.obj
 0001:00054bc3       ?state_case_width@?$output_processor@_WV?$stream_output_adapter@_W@__crt_stdio_output@@V?$format_validation_base@_WV?$stream_output_adapter@_W@__crt_stdio_output@@@2@@__crt_stdio_output@@AAE_NXZ 10055bc3 f i libucrt:output.obj
 0001:00054bf5       ?state_case_width@?$output_processor@_WV?$stream_output_adapter@_W@__crt_stdio_output@@V?$positional_parameter_base@_WV?$stream_output_adapter@_W@__crt_stdio_output@@@2@@__crt_stdio_output@@AAE_NXZ 10055bf5 f i libucrt:output.obj
 0001:00054c36       ?state_case_width@?$output_processor@_WV?$stream_output_adapter@_W@__crt_stdio_output@@V?$standard_base@_WV?$stream_output_adapter@_W@__crt_stdio_output@@@2@@__crt_stdio_output@@AAE_NXZ 10055c36 f i libucrt:output.obj
 0001:00054c68       ?state_case_width@?$output_processor@_WV?$string_output_adapter@_W@__crt_stdio_output@@V?$format_validation_base@_WV?$string_output_adapter@_W@__crt_stdio_output@@@2@@__crt_stdio_output@@AAE_NXZ 10055c68 f i libucrt:output.obj
 0001:00054c9a       ?state_case_width@?$output_processor@_WV?$string_output_adapter@_W@__crt_stdio_output@@V?$positional_parameter_base@_WV?$string_output_adapter@_W@__crt_stdio_output@@@2@@__crt_stdio_output@@AAE_NXZ 10055c9a f i libucrt:output.obj
 0001:00054cdb       ?state_case_width@?$output_processor@_WV?$string_output_adapter@_W@__crt_stdio_output@@V?$standard_base@_WV?$string_output_adapter@_W@__crt_stdio_output@@@2@@__crt_stdio_output@@AAE_NXZ 10055cdb f i libucrt:output.obj
 0001:00054d0d       ?state_count@?$format_validation_base@DV?$stream_output_adapter@D@__crt_stdio_output@@@__crt_stdio_output@@KAIXZ 10055d0d f i libucrt:output.obj
 0001:00054d11       ?state_count@?$format_validation_base@DV?$string_output_adapter@D@__crt_stdio_output@@@__crt_stdio_output@@KAIXZ 10055d11 f i libucrt:output.obj
 0001:00054d15       ?state_count@?$format_validation_base@_WV?$stream_output_adapter@_W@__crt_stdio_output@@@__crt_stdio_output@@KAIXZ 10055d15 f i libucrt:output.obj
 0001:00054d19       ?state_count@?$format_validation_base@_WV?$string_output_adapter@_W@__crt_stdio_output@@@__crt_stdio_output@@KAIXZ 10055d19 f i libucrt:output.obj
 0001:00054d1d       ?state_count@?$standard_base@DV?$stream_output_adapter@D@__crt_stdio_output@@@__crt_stdio_output@@KAIXZ 10055d1d f i libucrt:output.obj
 0001:00054d21       ?state_count@?$standard_base@DV?$string_output_adapter@D@__crt_stdio_output@@@__crt_stdio_output@@KAIXZ 10055d21 f i libucrt:output.obj
 0001:00054d25       ?state_count@?$standard_base@_WV?$stream_output_adapter@_W@__crt_stdio_output@@@__crt_stdio_output@@KAIXZ 10055d25 f i libucrt:output.obj
 0001:00054d29       ?state_count@?$standard_base@_WV?$string_output_adapter@_W@__crt_stdio_output@@@__crt_stdio_output@@KAIXZ 10055d29 f i libucrt:output.obj
 0001:00054d2d       ?state_transition_table@?$format_validation_base@DV?$stream_output_adapter@D@__crt_stdio_output@@@__crt_stdio_output@@KAABV?$spectre_mitigated_lookup_table@Ustate_transition_pair@__crt_stdio_output@@$0IA@@2@XZ 10055d2d f i libucrt:output.obj
 0001:00054d33       ?state_transition_table@?$format_validation_base@DV?$string_output_adapter@D@__crt_stdio_output@@@__crt_stdio_output@@KAABV?$spectre_mitigated_lookup_table@Ustate_transition_pair@__crt_stdio_output@@$0IA@@2@XZ 10055d33 f i libucrt:output.obj
 0001:00054d39       ?state_transition_table@?$format_validation_base@_WV?$stream_output_adapter@_W@__crt_stdio_output@@@__crt_stdio_output@@KAABV?$spectre_mitigated_lookup_table@Ustate_transition_pair@__crt_stdio_output@@$0IA@@2@XZ 10055d39 f i libucrt:output.obj
 0001:00054d3f       ?state_transition_table@?$format_validation_base@_WV?$string_output_adapter@_W@__crt_stdio_output@@@__crt_stdio_output@@KAABV?$spectre_mitigated_lookup_table@Ustate_transition_pair@__crt_stdio_output@@$0IA@@2@XZ 10055d3f f i libucrt:output.obj
 0001:00054d45       ?state_transition_table@?$standard_base@DV?$stream_output_adapter@D@__crt_stdio_output@@@__crt_stdio_output@@KAABV?$spectre_mitigated_lookup_table@Ustate_transition_pair@__crt_stdio_output@@$0IA@@2@XZ 10055d45 f i libucrt:output.obj
 0001:00054d4b       ?state_transition_table@?$standard_base@DV?$string_output_adapter@D@__crt_stdio_output@@@__crt_stdio_output@@KAABV?$spectre_mitigated_lookup_table@Ustate_transition_pair@__crt_stdio_output@@$0IA@@2@XZ 10055d4b f i libucrt:output.obj
 0001:00054d51       ?state_transition_table@?$standard_base@_WV?$stream_output_adapter@_W@__crt_stdio_output@@@__crt_stdio_output@@KAABV?$spectre_mitigated_lookup_table@Ustate_transition_pair@__crt_stdio_output@@$0IA@@2@XZ 10055d51 f i libucrt:output.obj
 0001:00054d57       ?state_transition_table@?$standard_base@_WV?$string_output_adapter@_W@__crt_stdio_output@@@__crt_stdio_output@@KAABV?$spectre_mitigated_lookup_table@Ustate_transition_pair@__crt_stdio_output@@$0IA@@2@XZ 10055d57 f i libucrt:output.obj
 0001:00054d5d       ?tchar_string@?$common_data@D@__crt_stdio_output@@IAEAAPADD@Z 10055d5d f i libucrt:output.obj
 0001:00054d63       ?tchar_string@?$common_data@D@__crt_stdio_output@@IAEAAPADXZ 10055d63 f i libucrt:output.obj
 0001:00054d67       ?tchar_string@?$common_data@_W@__crt_stdio_output@@IAEAAPA_WXZ 10055d67 f i libucrt:output.obj
 0001:00054d6b       ?tchar_string@?$common_data@_W@__crt_stdio_output@@IAEAAPA_W_W@Z 10055d6b f i libucrt:output.obj
 0001:00054d71       ?to_integer_size@__crt_stdio_output@@YAIW4length_modifier@1@@Z 10055d71 f i libucrt:output.obj
 0001:00054dc5       ?type_case_X@?$output_processor@DV?$stream_output_adapter@D@__crt_stdio_output@@V?$format_validation_base@DV?$stream_output_adapter@D@__crt_stdio_output@@@2@@__crt_stdio_output@@AAE_NXZ 10055dc5 f i libucrt:output.obj
 0001:00054dcd       ?type_case_X@?$output_processor@DV?$stream_output_adapter@D@__crt_stdio_output@@V?$positional_parameter_base@DV?$stream_output_adapter@D@__crt_stdio_output@@@2@@__crt_stdio_output@@AAE_NXZ 10055dcd f i libucrt:output.obj
 0001:00054dd5       ?type_case_X@?$output_processor@DV?$stream_output_adapter@D@__crt_stdio_output@@V?$standard_base@DV?$stream_output_adapter@D@__crt_stdio_output@@@2@@__crt_stdio_output@@AAE_NXZ 10055dd5 f i libucrt:output.obj
 0001:00054ddd       ?type_case_X@?$output_processor@DV?$string_output_adapter@D@__crt_stdio_output@@V?$format_validation_base@DV?$string_output_adapter@D@__crt_stdio_output@@@2@@__crt_stdio_output@@AAE_NXZ 10055ddd f i libucrt:output.obj
 0001:00054de5       ?type_case_X@?$output_processor@DV?$string_output_adapter@D@__crt_stdio_output@@V?$positional_parameter_base@DV?$string_output_adapter@D@__crt_stdio_output@@@2@@__crt_stdio_output@@AAE_NXZ 10055de5 f i libucrt:output.obj
 0001:00054ded       ?type_case_X@?$output_processor@DV?$string_output_adapter@D@__crt_stdio_output@@V?$standard_base@DV?$string_output_adapter@D@__crt_stdio_output@@@2@@__crt_stdio_output@@AAE_NXZ 10055ded f i libucrt:output.obj
 0001:00054df5       ?type_case_X@?$output_processor@_WV?$stream_output_adapter@_W@__crt_stdio_output@@V?$format_validation_base@_WV?$stream_output_adapter@_W@__crt_stdio_output@@@2@@__crt_stdio_output@@AAE_NXZ 10055df5 f i libucrt:output.obj
 0001:00054dfd       ?type_case_X@?$output_processor@_WV?$stream_output_adapter@_W@__crt_stdio_output@@V?$positional_parameter_base@_WV?$stream_output_adapter@_W@__crt_stdio_output@@@2@@__crt_stdio_output@@AAE_NXZ 10055dfd f i libucrt:output.obj
 0001:00054e05       ?type_case_X@?$output_processor@_WV?$stream_output_adapter@_W@__crt_stdio_output@@V?$standard_base@_WV?$stream_output_adapter@_W@__crt_stdio_output@@@2@@__crt_stdio_output@@AAE_NXZ 10055e05 f i libucrt:output.obj
 0001:00054e0d       ?type_case_X@?$output_processor@_WV?$string_output_adapter@_W@__crt_stdio_output@@V?$format_validation_base@_WV?$string_output_adapter@_W@__crt_stdio_output@@@2@@__crt_stdio_output@@AAE_NXZ 10055e0d f i libucrt:output.obj
 0001:00054e15       ?type_case_X@?$output_processor@_WV?$string_output_adapter@_W@__crt_stdio_output@@V?$positional_parameter_base@_WV?$string_output_adapter@_W@__crt_stdio_output@@@2@@__crt_stdio_output@@AAE_NXZ 10055e15 f i libucrt:output.obj
 0001:00054e1d       ?type_case_X@?$output_processor@_WV?$string_output_adapter@_W@__crt_stdio_output@@V?$standard_base@_WV?$string_output_adapter@_W@__crt_stdio_output@@@2@@__crt_stdio_output@@AAE_NXZ 10055e1d f i libucrt:output.obj
 0001:00054e25       ?type_case_Z@?$output_processor@DV?$stream_output_adapter@D@__crt_stdio_output@@V?$format_validation_base@DV?$stream_output_adapter@D@__crt_stdio_output@@@2@@__crt_stdio_output@@AAE_NXZ 10055e25 f i libucrt:output.obj
 0001:00054e88       ?type_case_Z@?$output_processor@DV?$stream_output_adapter@D@__crt_stdio_output@@V?$positional_parameter_base@DV?$stream_output_adapter@D@__crt_stdio_output@@@2@@__crt_stdio_output@@AAE_NXZ 10055e88 f i libucrt:output.obj
 0001:00054f02       ?type_case_Z@?$output_processor@DV?$stream_output_adapter@D@__crt_stdio_output@@V?$standard_base@DV?$stream_output_adapter@D@__crt_stdio_output@@@2@@__crt_stdio_output@@AAE_NXZ 10055f02 f i libucrt:output.obj
 0001:00054f65       ?type_case_Z@?$output_processor@DV?$string_output_adapter@D@__crt_stdio_output@@V?$format_validation_base@DV?$string_output_adapter@D@__crt_stdio_output@@@2@@__crt_stdio_output@@AAE_NXZ 10055f65 f i libucrt:output.obj
 0001:00054fc8       ?type_case_Z@?$output_processor@DV?$string_output_adapter@D@__crt_stdio_output@@V?$positional_parameter_base@DV?$string_output_adapter@D@__crt_stdio_output@@@2@@__crt_stdio_output@@AAE_NXZ 10055fc8 f i libucrt:output.obj
 0001:00055042       ?type_case_Z@?$output_processor@DV?$string_output_adapter@D@__crt_stdio_output@@V?$standard_base@DV?$string_output_adapter@D@__crt_stdio_output@@@2@@__crt_stdio_output@@AAE_NXZ 10056042 f i libucrt:output.obj
 0001:000550a5       ?type_case_Z@?$output_processor@_WV?$stream_output_adapter@_W@__crt_stdio_output@@V?$format_validation_base@_WV?$stream_output_adapter@_W@__crt_stdio_output@@@2@@__crt_stdio_output@@AAE_NXZ 100560a5 f i libucrt:output.obj
 0001:00055108       ?type_case_Z@?$output_processor@_WV?$stream_output_adapter@_W@__crt_stdio_output@@V?$positional_parameter_base@_WV?$stream_output_adapter@_W@__crt_stdio_output@@@2@@__crt_stdio_output@@AAE_NXZ 10056108 f i libucrt:output.obj
 0001:00055182       ?type_case_Z@?$output_processor@_WV?$stream_output_adapter@_W@__crt_stdio_output@@V?$standard_base@_WV?$stream_output_adapter@_W@__crt_stdio_output@@@2@@__crt_stdio_output@@AAE_NXZ 10056182 f i libucrt:output.obj
 0001:000551e5       ?type_case_Z@?$output_processor@_WV?$string_output_adapter@_W@__crt_stdio_output@@V?$format_validation_base@_WV?$string_output_adapter@_W@__crt_stdio_output@@@2@@__crt_stdio_output@@AAE_NXZ 100561e5 f i libucrt:output.obj
 0001:00055248       ?type_case_Z@?$output_processor@_WV?$string_output_adapter@_W@__crt_stdio_output@@V?$positional_parameter_base@_WV?$string_output_adapter@_W@__crt_stdio_output@@@2@@__crt_stdio_output@@AAE_NXZ 10056248 f i libucrt:output.obj
 0001:000552c2       ?type_case_Z@?$output_processor@_WV?$string_output_adapter@_W@__crt_stdio_output@@V?$standard_base@_WV?$string_output_adapter@_W@__crt_stdio_output@@@2@@__crt_stdio_output@@AAE_NXZ 100562c2 f i libucrt:output.obj
 0001:00055325       ?type_case_a@?$output_processor@DV?$stream_output_adapter@D@__crt_stdio_output@@V?$format_validation_base@DV?$stream_output_adapter@D@__crt_stdio_output@@@2@@__crt_stdio_output@@AAE_NXZ 10056325 f i libucrt:output.obj
 0001:000554b6       ?type_case_a@?$output_processor@DV?$stream_output_adapter@D@__crt_stdio_output@@V?$positional_parameter_base@DV?$stream_output_adapter@D@__crt_stdio_output@@@2@@__crt_stdio_output@@AAE_NXZ 100564b6 f i libucrt:output.obj
 0001:00055664       ?type_case_a@?$output_processor@DV?$stream_output_adapter@D@__crt_stdio_output@@V?$standard_base@DV?$stream_output_adapter@D@__crt_stdio_output@@@2@@__crt_stdio_output@@AAE_NXZ 10056664 f i libucrt:output.obj
 0001:000557f5       ?type_case_a@?$output_processor@DV?$string_output_adapter@D@__crt_stdio_output@@V?$format_validation_base@DV?$string_output_adapter@D@__crt_stdio_output@@@2@@__crt_stdio_output@@AAE_NXZ 100567f5 f i libucrt:output.obj
 0001:00055986       ?type_case_a@?$output_processor@DV?$string_output_adapter@D@__crt_stdio_output@@V?$positional_parameter_base@DV?$string_output_adapter@D@__crt_stdio_output@@@2@@__crt_stdio_output@@AAE_NXZ 10056986 f i libucrt:output.obj
 0001:00055b34       ?type_case_a@?$output_processor@DV?$string_output_adapter@D@__crt_stdio_output@@V?$standard_base@DV?$string_output_adapter@D@__crt_stdio_output@@@2@@__crt_stdio_output@@AAE_NXZ 10056b34 f i libucrt:output.obj
 0001:00055cc5       ?type_case_a@?$output_processor@_WV?$stream_output_adapter@_W@__crt_stdio_output@@V?$format_validation_base@_WV?$stream_output_adapter@_W@__crt_stdio_output@@@2@@__crt_stdio_output@@AAE_NXZ 10056cc5 f i libucrt:output.obj
 0001:00055e6c       ?type_case_a@?$output_processor@_WV?$stream_output_adapter@_W@__crt_stdio_output@@V?$positional_parameter_base@_WV?$stream_output_adapter@_W@__crt_stdio_output@@@2@@__crt_stdio_output@@AAE_NXZ 10056e6c f i libucrt:output.obj
 0001:00056030       ?type_case_a@?$output_processor@_WV?$stream_output_adapter@_W@__crt_stdio_output@@V?$standard_base@_WV?$stream_output_adapter@_W@__crt_stdio_output@@@2@@__crt_stdio_output@@AAE_NXZ 10057030 f i libucrt:output.obj
 0001:000561d7       ?type_case_a@?$output_processor@_WV?$string_output_adapter@_W@__crt_stdio_output@@V?$format_validation_base@_WV?$string_output_adapter@_W@__crt_stdio_output@@@2@@__crt_stdio_output@@AAE_NXZ 100571d7 f i libucrt:output.obj
 0001:0005637e       ?type_case_a@?$output_processor@_WV?$string_output_adapter@_W@__crt_stdio_output@@V?$positional_parameter_base@_WV?$string_output_adapter@_W@__crt_stdio_output@@@2@@__crt_stdio_output@@AAE_NXZ 1005737e f i libucrt:output.obj
 0001:00056542       ?type_case_a@?$output_processor@_WV?$string_output_adapter@_W@__crt_stdio_output@@V?$standard_base@_WV?$string_output_adapter@_W@__crt_stdio_output@@@2@@__crt_stdio_output@@AAE_NXZ 10057542 f i libucrt:output.obj
 0001:000566e9       ?type_case_c@?$output_processor@DV?$stream_output_adapter@D@__crt_stdio_output@@V?$format_validation_base@DV?$stream_output_adapter@D@__crt_stdio_output@@@2@@__crt_stdio_output@@AAE_NXZ 100576e9 f i libucrt:output.obj
 0001:000566f1       ?type_case_c@?$output_processor@DV?$stream_output_adapter@D@__crt_stdio_output@@V?$positional_parameter_base@DV?$stream_output_adapter@D@__crt_stdio_output@@@2@@__crt_stdio_output@@AAE_NXZ 100576f1 f i libucrt:output.obj
 0001:000566f9       ?type_case_c@?$output_processor@DV?$stream_output_adapter@D@__crt_stdio_output@@V?$standard_base@DV?$stream_output_adapter@D@__crt_stdio_output@@@2@@__crt_stdio_output@@AAE_NXZ 100576f9 f i libucrt:output.obj
 0001:00056701       ?type_case_c@?$output_processor@DV?$string_output_adapter@D@__crt_stdio_output@@V?$format_validation_base@DV?$string_output_adapter@D@__crt_stdio_output@@@2@@__crt_stdio_output@@AAE_NXZ 10057701 f i libucrt:output.obj
 0001:00056709       ?type_case_c@?$output_processor@DV?$string_output_adapter@D@__crt_stdio_output@@V?$positional_parameter_base@DV?$string_output_adapter@D@__crt_stdio_output@@@2@@__crt_stdio_output@@AAE_NXZ 10057709 f i libucrt:output.obj
 0001:00056711       ?type_case_c@?$output_processor@DV?$string_output_adapter@D@__crt_stdio_output@@V?$standard_base@DV?$string_output_adapter@D@__crt_stdio_output@@@2@@__crt_stdio_output@@AAE_NXZ 10057711 f i libucrt:output.obj
 0001:00056719       ?type_case_c@?$output_processor@_WV?$stream_output_adapter@_W@__crt_stdio_output@@V?$format_validation_base@_WV?$stream_output_adapter@_W@__crt_stdio_output@@@2@@__crt_stdio_output@@AAE_NXZ 10057719 f i libucrt:output.obj
 0001:00056721       ?type_case_c@?$output_processor@_WV?$stream_output_adapter@_W@__crt_stdio_output@@V?$positional_parameter_base@_WV?$stream_output_adapter@_W@__crt_stdio_output@@@2@@__crt_stdio_output@@AAE_NXZ 10057721 f i libucrt:output.obj
 0001:00056729       ?type_case_c@?$output_processor@_WV?$stream_output_adapter@_W@__crt_stdio_output@@V?$standard_base@_WV?$stream_output_adapter@_W@__crt_stdio_output@@@2@@__crt_stdio_output@@AAE_NXZ 10057729 f i libucrt:output.obj
 0001:00056731       ?type_case_c@?$output_processor@_WV?$string_output_adapter@_W@__crt_stdio_output@@V?$format_validation_base@_WV?$string_output_adapter@_W@__crt_stdio_output@@@2@@__crt_stdio_output@@AAE_NXZ 10057731 f i libucrt:output.obj
 0001:00056739       ?type_case_c@?$output_processor@_WV?$string_output_adapter@_W@__crt_stdio_output@@V?$positional_parameter_base@_WV?$string_output_adapter@_W@__crt_stdio_output@@@2@@__crt_stdio_output@@AAE_NXZ 10057739 f i libucrt:output.obj
 0001:00056741       ?type_case_c@?$output_processor@_WV?$string_output_adapter@_W@__crt_stdio_output@@V?$standard_base@_WV?$string_output_adapter@_W@__crt_stdio_output@@@2@@__crt_stdio_output@@AAE_NXZ 10057741 f i libucrt:output.obj
 0001:00056749       ?type_case_c_tchar@?$output_processor@DV?$stream_output_adapter@D@__crt_stdio_output@@V?$format_validation_base@DV?$stream_output_adapter@D@__crt_stdio_output@@@2@@__crt_stdio_output@@AAE_ND@Z 10057749 f i libucrt:output.obj
 0001:000567de       ?type_case_c_tchar@?$output_processor@DV?$stream_output_adapter@D@__crt_stdio_output@@V?$positional_parameter_base@DV?$stream_output_adapter@D@__crt_stdio_output@@@2@@__crt_stdio_output@@AAE_ND@Z 100577de f i libucrt:output.obj
 0001:0005689d       ?type_case_c_tchar@?$output_processor@DV?$stream_output_adapter@D@__crt_stdio_output@@V?$standard_base@DV?$stream_output_adapter@D@__crt_stdio_output@@@2@@__crt_stdio_output@@AAE_ND@Z 1005789d f i libucrt:output.obj
 0001:00056932       ?type_case_c_tchar@?$output_processor@DV?$string_output_adapter@D@__crt_stdio_output@@V?$format_validation_base@DV?$string_output_adapter@D@__crt_stdio_output@@@2@@__crt_stdio_output@@AAE_ND@Z 10057932 f i libucrt:output.obj
 0001:000569c7       ?type_case_c_tchar@?$output_processor@DV?$string_output_adapter@D@__crt_stdio_output@@V?$positional_parameter_base@DV?$string_output_adapter@D@__crt_stdio_output@@@2@@__crt_stdio_output@@AAE_ND@Z 100579c7 f i libucrt:output.obj
 0001:00056a86       ?type_case_c_tchar@?$output_processor@DV?$string_output_adapter@D@__crt_stdio_output@@V?$standard_base@DV?$string_output_adapter@D@__crt_stdio_output@@@2@@__crt_stdio_output@@AAE_ND@Z 10057a86 f i libucrt:output.obj
 0001:00056b1b       ?type_case_c_tchar@?$output_processor@_WV?$stream_output_adapter@_W@__crt_stdio_output@@V?$format_validation_base@_WV?$stream_output_adapter@_W@__crt_stdio_output@@@2@@__crt_stdio_output@@AAE_N_W@Z 10057b1b f i libucrt:output.obj
 0001:00056bc3       ?type_case_c_tchar@?$output_processor@_WV?$stream_output_adapter@_W@__crt_stdio_output@@V?$positional_parameter_base@_WV?$stream_output_adapter@_W@__crt_stdio_output@@@2@@__crt_stdio_output@@AAE_N_W@Z 10057bc3 f i libucrt:output.obj
 0001:00056c8e       ?type_case_c_tchar@?$output_processor@_WV?$stream_output_adapter@_W@__crt_stdio_output@@V?$standard_base@_WV?$stream_output_adapter@_W@__crt_stdio_output@@@2@@__crt_stdio_output@@AAE_N_W@Z 10057c8e f i libucrt:output.obj
 0001:00056d36       ?type_case_c_tchar@?$output_processor@_WV?$string_output_adapter@_W@__crt_stdio_output@@V?$format_validation_base@_WV?$string_output_adapter@_W@__crt_stdio_output@@@2@@__crt_stdio_output@@AAE_N_W@Z 10057d36 f i libucrt:output.obj
 0001:00056dde       ?type_case_c_tchar@?$output_processor@_WV?$string_output_adapter@_W@__crt_stdio_output@@V?$positional_parameter_base@_WV?$string_output_adapter@_W@__crt_stdio_output@@@2@@__crt_stdio_output@@AAE_N_W@Z 10057dde f i libucrt:output.obj
 0001:00056ea9       ?type_case_c_tchar@?$output_processor@_WV?$string_output_adapter@_W@__crt_stdio_output@@V?$standard_base@_WV?$string_output_adapter@_W@__crt_stdio_output@@@2@@__crt_stdio_output@@AAE_N_W@Z 10057ea9 f i libucrt:output.obj
 0001:00056f51       ?type_case_d@?$output_processor@DV?$stream_output_adapter@D@__crt_stdio_output@@V?$format_validation_base@DV?$stream_output_adapter@D@__crt_stdio_output@@@2@@__crt_stdio_output@@AAE_NXZ 10057f51 f i libucrt:output.obj
 0001:00056f5d       ?type_case_d@?$output_processor@DV?$stream_output_adapter@D@__crt_stdio_output@@V?$positional_parameter_base@DV?$stream_output_adapter@D@__crt_stdio_output@@@2@@__crt_stdio_output@@AAE_NXZ 10057f5d f i libucrt:output.obj
 0001:00056f69       ?type_case_d@?$output_processor@DV?$stream_output_adapter@D@__crt_stdio_output@@V?$standard_base@DV?$stream_output_adapter@D@__crt_stdio_output@@@2@@__crt_stdio_output@@AAE_NXZ 10057f69 f i libucrt:output.obj
 0001:00056f75       ?type_case_d@?$output_processor@DV?$string_output_adapter@D@__crt_stdio_output@@V?$format_validation_base@DV?$string_output_adapter@D@__crt_stdio_output@@@2@@__crt_stdio_output@@AAE_NXZ 10057f75 f i libucrt:output.obj
 0001:00056f81       ?type_case_d@?$output_processor@DV?$string_output_adapter@D@__crt_stdio_output@@V?$positional_parameter_base@DV?$string_output_adapter@D@__crt_stdio_output@@@2@@__crt_stdio_output@@AAE_NXZ 10057f81 f i libucrt:output.obj
 0001:00056f8d       ?type_case_d@?$output_processor@DV?$string_output_adapter@D@__crt_stdio_output@@V?$standard_base@DV?$string_output_adapter@D@__crt_stdio_output@@@2@@__crt_stdio_output@@AAE_NXZ 10057f8d f i libucrt:output.obj
 0001:00056f99       ?type_case_d@?$output_processor@_WV?$stream_output_adapter@_W@__crt_stdio_output@@V?$format_validation_base@_WV?$stream_output_adapter@_W@__crt_stdio_output@@@2@@__crt_stdio_output@@AAE_NXZ 10057f99 f i libucrt:output.obj
 0001:00056fa5       ?type_case_d@?$output_processor@_WV?$stream_output_adapter@_W@__crt_stdio_output@@V?$positional_parameter_base@_WV?$stream_output_adapter@_W@__crt_stdio_output@@@2@@__crt_stdio_output@@AAE_NXZ 10057fa5 f i libucrt:output.obj
 0001:00056fb1       ?type_case_d@?$output_processor@_WV?$stream_output_adapter@_W@__crt_stdio_output@@V?$standard_base@_WV?$stream_output_adapter@_W@__crt_stdio_output@@@2@@__crt_stdio_output@@AAE_NXZ 10057fb1 f i libucrt:output.obj
 0001:00056fbd       ?type_case_d@?$output_processor@_WV?$string_output_adapter@_W@__crt_stdio_output@@V?$format_validation_base@_WV?$string_output_adapter@_W@__crt_stdio_output@@@2@@__crt_stdio_output@@AAE_NXZ 10057fbd f i libucrt:output.obj
 0001:00056fc9       ?type_case_d@?$output_processor@_WV?$string_output_adapter@_W@__crt_stdio_output@@V?$positional_parameter_base@_WV?$string_output_adapter@_W@__crt_stdio_output@@@2@@__crt_stdio_output@@AAE_NXZ 10057fc9 f i libucrt:output.obj
 0001:00056fd5       ?type_case_d@?$output_processor@_WV?$string_output_adapter@_W@__crt_stdio_output@@V?$standard_base@_WV?$string_output_adapter@_W@__crt_stdio_output@@@2@@__crt_stdio_output@@AAE_NXZ 10057fd5 f i libucrt:output.obj
 0001:00056fe1       ?type_case_n@?$output_processor@DV?$stream_output_adapter@D@__crt_stdio_output@@V?$format_validation_base@DV?$stream_output_adapter@D@__crt_stdio_output@@@2@@__crt_stdio_output@@AAE_NXZ 10057fe1 f i libucrt:output.obj
 0001:00057066       ?type_case_n@?$output_processor@DV?$stream_output_adapter@D@__crt_stdio_output@@V?$positional_parameter_base@DV?$stream_output_adapter@D@__crt_stdio_output@@@2@@__crt_stdio_output@@AAE_NXZ 10058066 f i libucrt:output.obj
 0001:00057113       ?type_case_n@?$output_processor@DV?$stream_output_adapter@D@__crt_stdio_output@@V?$standard_base@DV?$stream_output_adapter@D@__crt_stdio_output@@@2@@__crt_stdio_output@@AAE_NXZ 10058113 f i libucrt:output.obj
 0001:00057198       ?type_case_n@?$output_processor@DV?$string_output_adapter@D@__crt_stdio_output@@V?$format_validation_base@DV?$string_output_adapter@D@__crt_stdio_output@@@2@@__crt_stdio_output@@AAE_NXZ 10058198 f i libucrt:output.obj
 0001:0005721d       ?type_case_n@?$output_processor@DV?$string_output_adapter@D@__crt_stdio_output@@V?$positional_parameter_base@DV?$string_output_adapter@D@__crt_stdio_output@@@2@@__crt_stdio_output@@AAE_NXZ 1005821d f i libucrt:output.obj
 0001:000572ca       ?type_case_n@?$output_processor@DV?$string_output_adapter@D@__crt_stdio_output@@V?$standard_base@DV?$string_output_adapter@D@__crt_stdio_output@@@2@@__crt_stdio_output@@AAE_NXZ 100582ca f i libucrt:output.obj
 0001:0005734f       ?type_case_n@?$output_processor@_WV?$stream_output_adapter@_W@__crt_stdio_output@@V?$format_validation_base@_WV?$stream_output_adapter@_W@__crt_stdio_output@@@2@@__crt_stdio_output@@AAE_NXZ 1005834f f i libucrt:output.obj
 0001:000573d4       ?type_case_n@?$output_processor@_WV?$stream_output_adapter@_W@__crt_stdio_output@@V?$positional_parameter_base@_WV?$stream_output_adapter@_W@__crt_stdio_output@@@2@@__crt_stdio_output@@AAE_NXZ 100583d4 f i libucrt:output.obj
 0001:00057481       ?type_case_n@?$output_processor@_WV?$stream_output_adapter@_W@__crt_stdio_output@@V?$standard_base@_WV?$stream_output_adapter@_W@__crt_stdio_output@@@2@@__crt_stdio_output@@AAE_NXZ 10058481 f i libucrt:output.obj
 0001:00057506       ?type_case_n@?$output_processor@_WV?$string_output_adapter@_W@__crt_stdio_output@@V?$format_validation_base@_WV?$string_output_adapter@_W@__crt_stdio_output@@@2@@__crt_stdio_output@@AAE_NXZ 10058506 f i libucrt:output.obj
 0001:0005758b       ?type_case_n@?$output_processor@_WV?$string_output_adapter@_W@__crt_stdio_output@@V?$positional_parameter_base@_WV?$string_output_adapter@_W@__crt_stdio_output@@@2@@__crt_stdio_output@@AAE_NXZ 1005858b f i libucrt:output.obj
 0001:00057638       ?type_case_n@?$output_processor@_WV?$string_output_adapter@_W@__crt_stdio_output@@V?$standard_base@_WV?$string_output_adapter@_W@__crt_stdio_output@@@2@@__crt_stdio_output@@AAE_NXZ 10058638 f i libucrt:output.obj
 0001:000576bd       ?type_case_o@?$output_processor@DV?$stream_output_adapter@D@__crt_stdio_output@@V?$format_validation_base@DV?$stream_output_adapter@D@__crt_stdio_output@@@2@@__crt_stdio_output@@AAE_NXZ 100586bd f i libucrt:output.obj
 0001:000576da       ?type_case_o@?$output_processor@DV?$stream_output_adapter@D@__crt_stdio_output@@V?$positional_parameter_base@DV?$stream_output_adapter@D@__crt_stdio_output@@@2@@__crt_stdio_output@@AAE_NXZ 100586da f i libucrt:output.obj
 0001:000576f7       ?type_case_o@?$output_processor@DV?$stream_output_adapter@D@__crt_stdio_output@@V?$standard_base@DV?$stream_output_adapter@D@__crt_stdio_output@@@2@@__crt_stdio_output@@AAE_NXZ 100586f7 f i libucrt:output.obj
 0001:00057714       ?type_case_o@?$output_processor@DV?$string_output_adapter@D@__crt_stdio_output@@V?$format_validation_base@DV?$string_output_adapter@D@__crt_stdio_output@@@2@@__crt_stdio_output@@AAE_NXZ 10058714 f i libucrt:output.obj
 0001:00057731       ?type_case_o@?$output_processor@DV?$string_output_adapter@D@__crt_stdio_output@@V?$positional_parameter_base@DV?$string_output_adapter@D@__crt_stdio_output@@@2@@__crt_stdio_output@@AAE_NXZ 10058731 f i libucrt:output.obj
 0001:0005774e       ?type_case_o@?$output_processor@DV?$string_output_adapter@D@__crt_stdio_output@@V?$standard_base@DV?$string_output_adapter@D@__crt_stdio_output@@@2@@__crt_stdio_output@@AAE_NXZ 1005874e f i libucrt:output.obj
 0001:0005776b       ?type_case_o@?$output_processor@_WV?$stream_output_adapter@_W@__crt_stdio_output@@V?$format_validation_base@_WV?$stream_output_adapter@_W@__crt_stdio_output@@@2@@__crt_stdio_output@@AAE_NXZ 1005876b f i libucrt:output.obj
 0001:00057788       ?type_case_o@?$output_processor@_WV?$stream_output_adapter@_W@__crt_stdio_output@@V?$positional_parameter_base@_WV?$stream_output_adapter@_W@__crt_stdio_output@@@2@@__crt_stdio_output@@AAE_NXZ 10058788 f i libucrt:output.obj
 0001:000577a5       ?type_case_o@?$output_processor@_WV?$stream_output_adapter@_W@__crt_stdio_output@@V?$standard_base@_WV?$stream_output_adapter@_W@__crt_stdio_output@@@2@@__crt_stdio_output@@AAE_NXZ 100587a5 f i libucrt:output.obj
 0001:000577c2       ?type_case_o@?$output_processor@_WV?$string_output_adapter@_W@__crt_stdio_output@@V?$format_validation_base@_WV?$string_output_adapter@_W@__crt_stdio_output@@@2@@__crt_stdio_output@@AAE_NXZ 100587c2 f i libucrt:output.obj
 0001:000577df       ?type_case_o@?$output_processor@_WV?$string_output_adapter@_W@__crt_stdio_output@@V?$positional_parameter_base@_WV?$string_output_adapter@_W@__crt_stdio_output@@@2@@__crt_stdio_output@@AAE_NXZ 100587df f i libucrt:output.obj
 0001:000577fc       ?type_case_o@?$output_processor@_WV?$string_output_adapter@_W@__crt_stdio_output@@V?$standard_base@_WV?$string_output_adapter@_W@__crt_stdio_output@@@2@@__crt_stdio_output@@AAE_NXZ 100587fc f i libucrt:output.obj
 0001:00057819       ?type_case_p@?$output_processor@DV?$stream_output_adapter@D@__crt_stdio_output@@V?$format_validation_base@DV?$stream_output_adapter@D@__crt_stdio_output@@@2@@__crt_stdio_output@@AAE_NXZ 10058819 f i libucrt:output.obj
 0001:0005782f       ?type_case_p@?$output_processor@DV?$stream_output_adapter@D@__crt_stdio_output@@V?$positional_parameter_base@DV?$stream_output_adapter@D@__crt_stdio_output@@@2@@__crt_stdio_output@@AAE_NXZ 1005882f f i libucrt:output.obj
 0001:00057845       ?type_case_p@?$output_processor@DV?$stream_output_adapter@D@__crt_stdio_output@@V?$standard_base@DV?$stream_output_adapter@D@__crt_stdio_output@@@2@@__crt_stdio_output@@AAE_NXZ 10058845 f i libucrt:output.obj
 0001:0005785b       ?type_case_p@?$output_processor@DV?$string_output_adapter@D@__crt_stdio_output@@V?$format_validation_base@DV?$string_output_adapter@D@__crt_stdio_output@@@2@@__crt_stdio_output@@AAE_NXZ 1005885b f i libucrt:output.obj
 0001:00057871       ?type_case_p@?$output_processor@DV?$string_output_adapter@D@__crt_stdio_output@@V?$positional_parameter_base@DV?$string_output_adapter@D@__crt_stdio_output@@@2@@__crt_stdio_output@@AAE_NXZ 10058871 f i libucrt:output.obj
 0001:00057887       ?type_case_p@?$output_processor@DV?$string_output_adapter@D@__crt_stdio_output@@V?$standard_base@DV?$string_output_adapter@D@__crt_stdio_output@@@2@@__crt_stdio_output@@AAE_NXZ 10058887 f i libucrt:output.obj
 0001:0005789d       ?type_case_p@?$output_processor@_WV?$stream_output_adapter@_W@__crt_stdio_output@@V?$format_validation_base@_WV?$stream_output_adapter@_W@__crt_stdio_output@@@2@@__crt_stdio_output@@AAE_NXZ 1005889d f i libucrt:output.obj
 0001:000578b3       ?type_case_p@?$output_processor@_WV?$stream_output_adapter@_W@__crt_stdio_output@@V?$positional_parameter_base@_WV?$stream_output_adapter@_W@__crt_stdio_output@@@2@@__crt_stdio_output@@AAE_NXZ 100588b3 f i libucrt:output.obj
 0001:000578c9       ?type_case_p@?$output_processor@_WV?$stream_output_adapter@_W@__crt_stdio_output@@V?$standard_base@_WV?$stream_output_adapter@_W@__crt_stdio_output@@@2@@__crt_stdio_output@@AAE_NXZ 100588c9 f i libucrt:output.obj
 0001:000578df       ?type_case_p@?$output_processor@_WV?$string_output_adapter@_W@__crt_stdio_output@@V?$format_validation_base@_WV?$string_output_adapter@_W@__crt_stdio_output@@@2@@__crt_stdio_output@@AAE_NXZ 100588df f i libucrt:output.obj
 0001:000578f5       ?type_case_p@?$output_processor@_WV?$string_output_adapter@_W@__crt_stdio_output@@V?$positional_parameter_base@_WV?$string_output_adapter@_W@__crt_stdio_output@@@2@@__crt_stdio_output@@AAE_NXZ 100588f5 f i libucrt:output.obj
 0001:0005790b       ?type_case_p@?$output_processor@_WV?$string_output_adapter@_W@__crt_stdio_output@@V?$standard_base@_WV?$string_output_adapter@_W@__crt_stdio_output@@@2@@__crt_stdio_output@@AAE_NXZ 1005890b f i libucrt:output.obj
 0001:00057921       ?type_case_s@?$output_processor@DV?$stream_output_adapter@D@__crt_stdio_output@@V?$format_validation_base@DV?$stream_output_adapter@D@__crt_stdio_output@@@2@@__crt_stdio_output@@AAE_NXZ 10058921 f i libucrt:output.obj
 0001:00057993       ?type_case_s@?$output_processor@DV?$stream_output_adapter@D@__crt_stdio_output@@V?$positional_parameter_base@DV?$stream_output_adapter@D@__crt_stdio_output@@@2@@__crt_stdio_output@@AAE_NXZ 10058993 f i libucrt:output.obj
 0001:00057a11       ?type_case_s@?$output_processor@DV?$stream_output_adapter@D@__crt_stdio_output@@V?$standard_base@DV?$stream_output_adapter@D@__crt_stdio_output@@@2@@__crt_stdio_output@@AAE_NXZ 10058a11 f i libucrt:output.obj
 0001:00057a83       ?type_case_s@?$output_processor@DV?$string_output_adapter@D@__crt_stdio_output@@V?$format_validation_base@DV?$string_output_adapter@D@__crt_stdio_output@@@2@@__crt_stdio_output@@AAE_NXZ 10058a83 f i libucrt:output.obj
 0001:00057af5       ?type_case_s@?$output_processor@DV?$string_output_adapter@D@__crt_stdio_output@@V?$positional_parameter_base@DV?$string_output_adapter@D@__crt_stdio_output@@@2@@__crt_stdio_output@@AAE_NXZ 10058af5 f i libucrt:output.obj
 0001:00057b73       ?type_case_s@?$output_processor@DV?$string_output_adapter@D@__crt_stdio_output@@V?$standard_base@DV?$string_output_adapter@D@__crt_stdio_output@@@2@@__crt_stdio_output@@AAE_NXZ 10058b73 f i libucrt:output.obj
 0001:00057be5       ?type_case_s@?$output_processor@_WV?$stream_output_adapter@_W@__crt_stdio_output@@V?$format_validation_base@_WV?$stream_output_adapter@_W@__crt_stdio_output@@@2@@__crt_stdio_output@@AAE_NXZ 10058be5 f i libucrt:output.obj
 0001:00057c59       ?type_case_s@?$output_processor@_WV?$stream_output_adapter@_W@__crt_stdio_output@@V?$positional_parameter_base@_WV?$stream_output_adapter@_W@__crt_stdio_output@@@2@@__crt_stdio_output@@AAE_NXZ 10058c59 f i libucrt:output.obj
 0001:00057cd9       ?type_case_s@?$output_processor@_WV?$stream_output_adapter@_W@__crt_stdio_output@@V?$standard_base@_WV?$stream_output_adapter@_W@__crt_stdio_output@@@2@@__crt_stdio_output@@AAE_NXZ 10058cd9 f i libucrt:output.obj
 0001:00057d4d       ?type_case_s@?$output_processor@_WV?$string_output_adapter@_W@__crt_stdio_output@@V?$format_validation_base@_WV?$string_output_adapter@_W@__crt_stdio_output@@@2@@__crt_stdio_output@@AAE_NXZ 10058d4d f i libucrt:output.obj
 0001:00057dc1       ?type_case_s@?$output_processor@_WV?$string_output_adapter@_W@__crt_stdio_output@@V?$positional_parameter_base@_WV?$string_output_adapter@_W@__crt_stdio_output@@@2@@__crt_stdio_output@@AAE_NXZ 10058dc1 f i libucrt:output.obj
 0001:00057e41       ?type_case_s@?$output_processor@_WV?$string_output_adapter@_W@__crt_stdio_output@@V?$standard_base@_WV?$string_output_adapter@_W@__crt_stdio_output@@@2@@__crt_stdio_output@@AAE_NXZ 10058e41 f i libucrt:output.obj
 0001:00057eb5       ?type_case_s_compute_narrow_string_length@?$output_processor@DV?$stream_output_adapter@D@__crt_stdio_output@@V?$format_validation_base@DV?$stream_output_adapter@D@__crt_stdio_output@@@2@@__crt_stdio_output@@AAEHHD@Z 10058eb5 f i libucrt:output.obj
 0001:00057ecb       ?type_case_s_compute_narrow_string_length@?$output_processor@DV?$stream_output_adapter@D@__crt_stdio_output@@V?$positional_parameter_base@DV?$stream_output_adapter@D@__crt_stdio_output@@@2@@__crt_stdio_output@@AAEHHD@Z 10058ecb f i libucrt:output.obj
 0001:00057ee1       ?type_case_s_compute_narrow_string_length@?$output_processor@DV?$stream_output_adapter@D@__crt_stdio_output@@V?$standard_base@DV?$stream_output_adapter@D@__crt_stdio_output@@@2@@__crt_stdio_output@@AAEHHD@Z 10058ee1 f i libucrt:output.obj
 0001:00057ef7       ?type_case_s_compute_narrow_string_length@?$output_processor@DV?$string_output_adapter@D@__crt_stdio_output@@V?$format_validation_base@DV?$string_output_adapter@D@__crt_stdio_output@@@2@@__crt_stdio_output@@AAEHHD@Z 10058ef7 f i libucrt:output.obj
 0001:00057f0d       ?type_case_s_compute_narrow_string_length@?$output_processor@DV?$string_output_adapter@D@__crt_stdio_output@@V?$positional_parameter_base@DV?$string_output_adapter@D@__crt_stdio_output@@@2@@__crt_stdio_output@@AAEHHD@Z 10058f0d f i libucrt:output.obj
 0001:00057f23       ?type_case_s_compute_narrow_string_length@?$output_processor@DV?$string_output_adapter@D@__crt_stdio_output@@V?$standard_base@DV?$string_output_adapter@D@__crt_stdio_output@@@2@@__crt_stdio_output@@AAEHHD@Z 10058f23 f i libucrt:output.obj
 0001:00057f39       ?type_case_s_compute_narrow_string_length@?$output_processor@_WV?$stream_output_adapter@_W@__crt_stdio_output@@V?$format_validation_base@_WV?$stream_output_adapter@_W@__crt_stdio_output@@@2@@__crt_stdio_output@@AAEHH_W@Z 10058f39 f i libucrt:output.obj
 0001:00057f8e       ?type_case_s_compute_narrow_string_length@?$output_processor@_WV?$stream_output_adapter@_W@__crt_stdio_output@@V?$positional_parameter_base@_WV?$stream_output_adapter@_W@__crt_stdio_output@@@2@@__crt_stdio_output@@AAEHH_W@Z 10058f8e f i libucrt:output.obj
 0001:00057fe3       ?type_case_s_compute_narrow_string_length@?$output_processor@_WV?$stream_output_adapter@_W@__crt_stdio_output@@V?$standard_base@_WV?$stream_output_adapter@_W@__crt_stdio_output@@@2@@__crt_stdio_output@@AAEHH_W@Z 10058fe3 f i libucrt:output.obj
 0001:00058038       ?type_case_s_compute_narrow_string_length@?$output_processor@_WV?$string_output_adapter@_W@__crt_stdio_output@@V?$format_validation_base@_WV?$string_output_adapter@_W@__crt_stdio_output@@@2@@__crt_stdio_output@@AAEHH_W@Z 10059038 f i libucrt:output.obj
 0001:0005808d       ?type_case_s_compute_narrow_string_length@?$output_processor@_WV?$string_output_adapter@_W@__crt_stdio_output@@V?$positional_parameter_base@_WV?$string_output_adapter@_W@__crt_stdio_output@@@2@@__crt_stdio_output@@AAEHH_W@Z 1005908d f i libucrt:output.obj
 0001:000580e2       ?type_case_s_compute_narrow_string_length@?$output_processor@_WV?$string_output_adapter@_W@__crt_stdio_output@@V?$standard_base@_WV?$string_output_adapter@_W@__crt_stdio_output@@@2@@__crt_stdio_output@@AAEHH_W@Z 100590e2 f i libucrt:output.obj
 0001:00058137       ?type_case_u@?$output_processor@DV?$stream_output_adapter@D@__crt_stdio_output@@V?$format_validation_base@DV?$stream_output_adapter@D@__crt_stdio_output@@@2@@__crt_stdio_output@@AAE_NXZ 10059137 f i libucrt:output.obj
 0001:0005813f       ?type_case_u@?$output_processor@DV?$stream_output_adapter@D@__crt_stdio_output@@V?$positional_parameter_base@DV?$stream_output_adapter@D@__crt_stdio_output@@@2@@__crt_stdio_output@@AAE_NXZ 1005913f f i libucrt:output.obj
 0001:00058147       ?type_case_u@?$output_processor@DV?$stream_output_adapter@D@__crt_stdio_output@@V?$standard_base@DV?$stream_output_adapter@D@__crt_stdio_output@@@2@@__crt_stdio_output@@AAE_NXZ 10059147 f i libucrt:output.obj
 0001:0005814f       ?type_case_u@?$output_processor@DV?$string_output_adapter@D@__crt_stdio_output@@V?$format_validation_base@DV?$string_output_adapter@D@__crt_stdio_output@@@2@@__crt_stdio_output@@AAE_NXZ 1005914f f i libucrt:output.obj
 0001:00058157       ?type_case_u@?$output_processor@DV?$string_output_adapter@D@__crt_stdio_output@@V?$positional_parameter_base@DV?$string_output_adapter@D@__crt_stdio_output@@@2@@__crt_stdio_output@@AAE_NXZ 10059157 f i libucrt:output.obj
 0001:0005815f       ?type_case_u@?$output_processor@DV?$string_output_adapter@D@__crt_stdio_output@@V?$standard_base@DV?$string_output_adapter@D@__crt_stdio_output@@@2@@__crt_stdio_output@@AAE_NXZ 1005915f f i libucrt:output.obj
 0001:00058167       ?type_case_u@?$output_processor@_WV?$stream_output_adapter@_W@__crt_stdio_output@@V?$format_validation_base@_WV?$stream_output_adapter@_W@__crt_stdio_output@@@2@@__crt_stdio_output@@AAE_NXZ 10059167 f i libucrt:output.obj
 0001:0005816f       ?type_case_u@?$output_processor@_WV?$stream_output_adapter@_W@__crt_stdio_output@@V?$positional_parameter_base@_WV?$stream_output_adapter@_W@__crt_stdio_output@@@2@@__crt_stdio_output@@AAE_NXZ 1005916f f i libucrt:output.obj
 0001:00058177       ?type_case_u@?$output_processor@_WV?$stream_output_adapter@_W@__crt_stdio_output@@V?$standard_base@_WV?$stream_output_adapter@_W@__crt_stdio_output@@@2@@__crt_stdio_output@@AAE_NXZ 10059177 f i libucrt:output.obj
 0001:0005817f       ?type_case_u@?$output_processor@_WV?$string_output_adapter@_W@__crt_stdio_output@@V?$format_validation_base@_WV?$string_output_adapter@_W@__crt_stdio_output@@@2@@__crt_stdio_output@@AAE_NXZ 1005917f f i libucrt:output.obj
 0001:00058187       ?type_case_u@?$output_processor@_WV?$string_output_adapter@_W@__crt_stdio_output@@V?$positional_parameter_base@_WV?$string_output_adapter@_W@__crt_stdio_output@@@2@@__crt_stdio_output@@AAE_NXZ 10059187 f i libucrt:output.obj
 0001:0005818f       ?type_case_u@?$output_processor@_WV?$string_output_adapter@_W@__crt_stdio_output@@V?$standard_base@_WV?$string_output_adapter@_W@__crt_stdio_output@@@2@@__crt_stdio_output@@AAE_NXZ 1005918f f i libucrt:output.obj
 0001:00058197       ?type_case_x@?$output_processor@DV?$stream_output_adapter@D@__crt_stdio_output@@V?$format_validation_base@DV?$stream_output_adapter@D@__crt_stdio_output@@@2@@__crt_stdio_output@@AAE_NXZ 10059197 f i libucrt:output.obj
 0001:0005819f       ?type_case_x@?$output_processor@DV?$stream_output_adapter@D@__crt_stdio_output@@V?$positional_parameter_base@DV?$stream_output_adapter@D@__crt_stdio_output@@@2@@__crt_stdio_output@@AAE_NXZ 1005919f f i libucrt:output.obj
 0001:000581a7       ?type_case_x@?$output_processor@DV?$stream_output_adapter@D@__crt_stdio_output@@V?$standard_base@DV?$stream_output_adapter@D@__crt_stdio_output@@@2@@__crt_stdio_output@@AAE_NXZ 100591a7 f i libucrt:output.obj
 0001:000581af       ?type_case_x@?$output_processor@DV?$string_output_adapter@D@__crt_stdio_output@@V?$format_validation_base@DV?$string_output_adapter@D@__crt_stdio_output@@@2@@__crt_stdio_output@@AAE_NXZ 100591af f i libucrt:output.obj
 0001:000581b7       ?type_case_x@?$output_processor@DV?$string_output_adapter@D@__crt_stdio_output@@V?$positional_parameter_base@DV?$string_output_adapter@D@__crt_stdio_output@@@2@@__crt_stdio_output@@AAE_NXZ 100591b7 f i libucrt:output.obj
 0001:000581bf       ?type_case_x@?$output_processor@DV?$string_output_adapter@D@__crt_stdio_output@@V?$standard_base@DV?$string_output_adapter@D@__crt_stdio_output@@@2@@__crt_stdio_output@@AAE_NXZ 100591bf f i libucrt:output.obj
 0001:000581c7       ?type_case_x@?$output_processor@_WV?$stream_output_adapter@_W@__crt_stdio_output@@V?$format_validation_base@_WV?$stream_output_adapter@_W@__crt_stdio_output@@@2@@__crt_stdio_output@@AAE_NXZ 100591c7 f i libucrt:output.obj
 0001:000581cf       ?type_case_x@?$output_processor@_WV?$stream_output_adapter@_W@__crt_stdio_output@@V?$positional_parameter_base@_WV?$stream_output_adapter@_W@__crt_stdio_output@@@2@@__crt_stdio_output@@AAE_NXZ 100591cf f i libucrt:output.obj
 0001:000581d7       ?type_case_x@?$output_processor@_WV?$stream_output_adapter@_W@__crt_stdio_output@@V?$standard_base@_WV?$stream_output_adapter@_W@__crt_stdio_output@@@2@@__crt_stdio_output@@AAE_NXZ 100591d7 f i libucrt:output.obj
 0001:000581df       ?type_case_x@?$output_processor@_WV?$string_output_adapter@_W@__crt_stdio_output@@V?$format_validation_base@_WV?$string_output_adapter@_W@__crt_stdio_output@@@2@@__crt_stdio_output@@AAE_NXZ 100591df f i libucrt:output.obj
 0001:000581e7       ?type_case_x@?$output_processor@_WV?$string_output_adapter@_W@__crt_stdio_output@@V?$positional_parameter_base@_WV?$string_output_adapter@_W@__crt_stdio_output@@@2@@__crt_stdio_output@@AAE_NXZ 100591e7 f i libucrt:output.obj
 0001:000581ef       ?type_case_x@?$output_processor@_WV?$string_output_adapter@_W@__crt_stdio_output@@V?$standard_base@_WV?$string_output_adapter@_W@__crt_stdio_output@@@2@@__crt_stdio_output@@AAE_NXZ 100591ef f i libucrt:output.obj
 0001:000581f7       ?unset_flag@?$output_processor@DV?$stream_output_adapter@D@__crt_stdio_output@@V?$format_validation_base@DV?$stream_output_adapter@D@__crt_stdio_output@@@2@@__crt_stdio_output@@AAEXI@Z 100591f7 f i libucrt:output.obj
 0001:00058208       ?unset_flag@?$output_processor@DV?$stream_output_adapter@D@__crt_stdio_output@@V?$positional_parameter_base@DV?$stream_output_adapter@D@__crt_stdio_output@@@2@@__crt_stdio_output@@AAEXI@Z 10059208 f i libucrt:output.obj
 0001:00058219       ?unset_flag@?$output_processor@DV?$stream_output_adapter@D@__crt_stdio_output@@V?$standard_base@DV?$stream_output_adapter@D@__crt_stdio_output@@@2@@__crt_stdio_output@@AAEXI@Z 10059219 f i libucrt:output.obj
 0001:0005822a       ?unset_flag@?$output_processor@DV?$string_output_adapter@D@__crt_stdio_output@@V?$format_validation_base@DV?$string_output_adapter@D@__crt_stdio_output@@@2@@__crt_stdio_output@@AAEXI@Z 1005922a f i libucrt:output.obj
 0001:0005823b       ?unset_flag@?$output_processor@DV?$string_output_adapter@D@__crt_stdio_output@@V?$positional_parameter_base@DV?$string_output_adapter@D@__crt_stdio_output@@@2@@__crt_stdio_output@@AAEXI@Z 1005923b f i libucrt:output.obj
 0001:0005824c       ?unset_flag@?$output_processor@DV?$string_output_adapter@D@__crt_stdio_output@@V?$standard_base@DV?$string_output_adapter@D@__crt_stdio_output@@@2@@__crt_stdio_output@@AAEXI@Z 1005924c f i libucrt:output.obj
 0001:0005825d       ?unset_flag@?$output_processor@_WV?$stream_output_adapter@_W@__crt_stdio_output@@V?$format_validation_base@_WV?$stream_output_adapter@_W@__crt_stdio_output@@@2@@__crt_stdio_output@@AAEXI@Z 1005925d f i libucrt:output.obj
 0001:0005826e       ?unset_flag@?$output_processor@_WV?$stream_output_adapter@_W@__crt_stdio_output@@V?$positional_parameter_base@_WV?$stream_output_adapter@_W@__crt_stdio_output@@@2@@__crt_stdio_output@@AAEXI@Z 1005926e f i libucrt:output.obj
 0001:0005827f       ?unset_flag@?$output_processor@_WV?$stream_output_adapter@_W@__crt_stdio_output@@V?$standard_base@_WV?$stream_output_adapter@_W@__crt_stdio_output@@@2@@__crt_stdio_output@@AAEXI@Z 1005927f f i libucrt:output.obj
 0001:00058290       ?unset_flag@?$output_processor@_WV?$string_output_adapter@_W@__crt_stdio_output@@V?$format_validation_base@_WV?$string_output_adapter@_W@__crt_stdio_output@@@2@@__crt_stdio_output@@AAEXI@Z 10059290 f i libucrt:output.obj
 0001:000582a1       ?unset_flag@?$output_processor@_WV?$string_output_adapter@_W@__crt_stdio_output@@V?$positional_parameter_base@_WV?$string_output_adapter@_W@__crt_stdio_output@@@2@@__crt_stdio_output@@AAEXI@Z 100592a1 f i libucrt:output.obj
 0001:000582b2       ?unset_flag@?$output_processor@_WV?$string_output_adapter@_W@__crt_stdio_output@@V?$standard_base@_WV?$string_output_adapter@_W@__crt_stdio_output@@@2@@__crt_stdio_output@@AAEXI@Z 100592b2 f i libucrt:output.obj
 0001:000582c3       ?update_field_width@?$positional_parameter_base@DV?$stream_output_adapter@D@__crt_stdio_output@@@__crt_stdio_output@@IAE_NXZ 100592c3 f i libucrt:output.obj
 0001:00058398       ?update_field_width@?$positional_parameter_base@DV?$string_output_adapter@D@__crt_stdio_output@@@__crt_stdio_output@@IAE_NXZ 10059398 f i libucrt:output.obj
 0001:0005846d       ?update_field_width@?$positional_parameter_base@_WV?$stream_output_adapter@_W@__crt_stdio_output@@@__crt_stdio_output@@IAE_NXZ 1005946d f i libucrt:output.obj
 0001:00058543       ?update_field_width@?$positional_parameter_base@_WV?$string_output_adapter@_W@__crt_stdio_output@@@__crt_stdio_output@@IAE_NXZ 10059543 f i libucrt:output.obj
 0001:00058619       ?update_field_width@?$standard_base@DV?$stream_output_adapter@D@__crt_stdio_output@@@__crt_stdio_output@@IAE_NXZ 10059619 f i libucrt:output.obj
 0001:0005862a       ?update_field_width@?$standard_base@DV?$string_output_adapter@D@__crt_stdio_output@@@__crt_stdio_output@@IAE_NXZ 1005962a f i libucrt:output.obj
 0001:0005863b       ?update_field_width@?$standard_base@_WV?$stream_output_adapter@_W@__crt_stdio_output@@@__crt_stdio_output@@IAE_NXZ 1005963b f i libucrt:output.obj
 0001:0005864c       ?update_field_width@?$standard_base@_WV?$string_output_adapter@_W@__crt_stdio_output@@@__crt_stdio_output@@IAE_NXZ 1005964c f i libucrt:output.obj
 0001:0005865d       ?update_precision@?$positional_parameter_base@DV?$stream_output_adapter@D@__crt_stdio_output@@@__crt_stdio_output@@IAE_NXZ 1005965d f i libucrt:output.obj
 0001:00058732       ?update_precision@?$positional_parameter_base@DV?$string_output_adapter@D@__crt_stdio_output@@@__crt_stdio_output@@IAE_NXZ 10059732 f i libucrt:output.obj
 0001:00058807       ?update_precision@?$positional_parameter_base@_WV?$stream_output_adapter@_W@__crt_stdio_output@@@__crt_stdio_output@@IAE_NXZ 10059807 f i libucrt:output.obj
 0001:000588dd       ?update_precision@?$positional_parameter_base@_WV?$string_output_adapter@_W@__crt_stdio_output@@@__crt_stdio_output@@IAE_NXZ 100598dd f i libucrt:output.obj
 0001:000589b3       ?update_precision@?$standard_base@DV?$stream_output_adapter@D@__crt_stdio_output@@@__crt_stdio_output@@IAE_NXZ 100599b3 f i libucrt:output.obj
 0001:000589c4       ?update_precision@?$standard_base@DV?$string_output_adapter@D@__crt_stdio_output@@@__crt_stdio_output@@IAE_NXZ 100599c4 f i libucrt:output.obj
 0001:000589d5       ?update_precision@?$standard_base@_WV?$stream_output_adapter@_W@__crt_stdio_output@@@__crt_stdio_output@@IAE_NXZ 100599d5 f i libucrt:output.obj
 0001:000589e6       ?update_precision@?$standard_base@_WV?$string_output_adapter@_W@__crt_stdio_output@@@__crt_stdio_output@@IAE_NXZ 100599e6 f i libucrt:output.obj
 0001:000589f7       ?validate@?$stream_output_adapter@D@__crt_stdio_output@@QBE_NAAV__crt_cached_ptd_host@@@Z 100599f7 f i libucrt:output.obj
 0001:00058a2f       ?validate@?$stream_output_adapter@_W@__crt_stdio_output@@QBE_NAAV__crt_cached_ptd_host@@@Z 10059a2f f i libucrt:output.obj
 0001:00058a60       ?validate@?$string_output_adapter@D@__crt_stdio_output@@QBE_NAAV__crt_cached_ptd_host@@@Z 10059a60 f i libucrt:output.obj
 0001:00058a91       ?validate@?$string_output_adapter@_W@__crt_stdio_output@@QBE_NAAV__crt_cached_ptd_host@@@Z 10059a91 f i libucrt:output.obj
 0001:00058ac2       ?validate_and_store_parameter_data@?$positional_parameter_base@DV?$stream_output_adapter@D@__crt_stdio_output@@@__crt_stdio_output@@AAE_NAAUparameter_data@12@W4parameter_type@12@DW4length_modifier@2@@Z 10059ac2 f i libucrt:output.obj
 0001:00058b24       ?validate_and_store_parameter_data@?$positional_parameter_base@DV?$string_output_adapter@D@__crt_stdio_output@@@__crt_stdio_output@@AAE_NAAUparameter_data@12@W4parameter_type@12@DW4length_modifier@2@@Z 10059b24 f i libucrt:output.obj
 0001:00058b86       ?validate_and_store_parameter_data@?$positional_parameter_base@_WV?$stream_output_adapter@_W@__crt_stdio_output@@@__crt_stdio_output@@AAE_NAAUparameter_data@12@W4parameter_type@12@_WW4length_modifier@2@@Z 10059b86 f i libucrt:output.obj
 0001:00058bea       ?validate_and_store_parameter_data@?$positional_parameter_base@_WV?$string_output_adapter@_W@__crt_stdio_output@@@__crt_stdio_output@@AAE_NAAUparameter_data@12@W4parameter_type@12@_WW4length_modifier@2@@Z 10059bea f i libucrt:output.obj
 0001:00058c4e       ?validate_and_update_state_at_beginning_of_format_character@?$positional_parameter_base@DV?$stream_output_adapter@D@__crt_stdio_output@@@__crt_stdio_output@@IAE_NXZ 10059c4e f i libucrt:output.obj
 0001:00058d65       ?validate_and_update_state_at_beginning_of_format_character@?$positional_parameter_base@DV?$string_output_adapter@D@__crt_stdio_output@@@__crt_stdio_output@@IAE_NXZ 10059d65 f i libucrt:output.obj
 0001:00058e7c       ?validate_and_update_state_at_beginning_of_format_character@?$positional_parameter_base@_WV?$stream_output_adapter@_W@__crt_stdio_output@@@__crt_stdio_output@@IAE_NXZ 10059e7c f i libucrt:output.obj
 0001:00058fa0       ?validate_and_update_state_at_beginning_of_format_character@?$positional_parameter_base@_WV?$string_output_adapter@_W@__crt_stdio_output@@@__crt_stdio_output@@IAE_NXZ 10059fa0 f i libucrt:output.obj
 0001:000590c4       ?validate_and_update_state_at_beginning_of_format_character@?$standard_base@DV?$stream_output_adapter@D@__crt_stdio_output@@@__crt_stdio_output@@IAE_NXZ 1005a0c4 f i libucrt:output.obj
 0001:000590c7       ?validate_and_update_state_at_beginning_of_format_character@?$standard_base@DV?$string_output_adapter@D@__crt_stdio_output@@@__crt_stdio_output@@IAE_NXZ 1005a0c7 f i libucrt:output.obj
 0001:000590ca       ?validate_and_update_state_at_beginning_of_format_character@?$standard_base@_WV?$stream_output_adapter@_W@__crt_stdio_output@@@__crt_stdio_output@@IAE_NXZ 1005a0ca f i libucrt:output.obj
 0001:000590cd       ?validate_and_update_state_at_beginning_of_format_character@?$standard_base@_WV?$string_output_adapter@_W@__crt_stdio_output@@@__crt_stdio_output@@IAE_NXZ 1005a0cd f i libucrt:output.obj
 0001:000590d0       ?validate_and_update_state_at_end_of_format_string@?$format_validation_base@DV?$stream_output_adapter@D@__crt_stdio_output@@@__crt_stdio_output@@IAE_NXZ 1005a0d0 f i libucrt:output.obj
 0001:00059101       ?validate_and_update_state_at_end_of_format_string@?$format_validation_base@DV?$string_output_adapter@D@__crt_stdio_output@@@__crt_stdio_output@@IAE_NXZ 1005a101 f i libucrt:output.obj
 0001:00059132       ?validate_and_update_state_at_end_of_format_string@?$format_validation_base@_WV?$stream_output_adapter@_W@__crt_stdio_output@@@__crt_stdio_output@@IAE_NXZ 1005a132 f i libucrt:output.obj
 0001:00059163       ?validate_and_update_state_at_end_of_format_string@?$format_validation_base@_WV?$string_output_adapter@_W@__crt_stdio_output@@@__crt_stdio_output@@IAE_NXZ 1005a163 f i libucrt:output.obj
 0001:00059194       ?validate_and_update_state_at_end_of_format_string@?$positional_parameter_base@DV?$stream_output_adapter@D@__crt_stdio_output@@@__crt_stdio_output@@IAE_NXZ 1005a194 f i libucrt:output.obj
 0001:0005924e       ?validate_and_update_state_at_end_of_format_string@?$positional_parameter_base@DV?$string_output_adapter@D@__crt_stdio_output@@@__crt_stdio_output@@IAE_NXZ 1005a24e f i libucrt:output.obj
 0001:00059308       ?validate_and_update_state_at_end_of_format_string@?$positional_parameter_base@_WV?$stream_output_adapter@_W@__crt_stdio_output@@@__crt_stdio_output@@IAE_NXZ 1005a308 f i libucrt:output.obj
 0001:000593c2       ?validate_and_update_state_at_end_of_format_string@?$positional_parameter_base@_WV?$string_output_adapter@_W@__crt_stdio_output@@@__crt_stdio_output@@IAE_NXZ 1005a3c2 f i libucrt:output.obj
 0001:0005947c       ?validate_and_update_state_at_end_of_format_string@?$standard_base@DV?$stream_output_adapter@D@__crt_stdio_output@@@__crt_stdio_output@@IBE_NXZ 1005a47c f i libucrt:output.obj
 0001:0005947f       ?validate_and_update_state_at_end_of_format_string@?$standard_base@DV?$string_output_adapter@D@__crt_stdio_output@@@__crt_stdio_output@@IBE_NXZ 1005a47f f i libucrt:output.obj
 0001:00059482       ?validate_and_update_state_at_end_of_format_string@?$standard_base@_WV?$stream_output_adapter@_W@__crt_stdio_output@@@__crt_stdio_output@@IBE_NXZ 1005a482 f i libucrt:output.obj
 0001:00059485       ?validate_and_update_state_at_end_of_format_string@?$standard_base@_WV?$string_output_adapter@_W@__crt_stdio_output@@@__crt_stdio_output@@IBE_NXZ 1005a485 f i libucrt:output.obj
 0001:00059488       ?validate_state_for_type_case_a@?$positional_parameter_base@DV?$stream_output_adapter@D@__crt_stdio_output@@@__crt_stdio_output@@IAE_NXZ 1005a488 f i libucrt:output.obj
 0001:000594e7       ?validate_state_for_type_case_a@?$positional_parameter_base@DV?$string_output_adapter@D@__crt_stdio_output@@@__crt_stdio_output@@IAE_NXZ 1005a4e7 f i libucrt:output.obj
 0001:00059546       ?validate_state_for_type_case_a@?$positional_parameter_base@_WV?$stream_output_adapter@_W@__crt_stdio_output@@@__crt_stdio_output@@IAE_NXZ 1005a546 f i libucrt:output.obj
 0001:000595a5       ?validate_state_for_type_case_a@?$positional_parameter_base@_WV?$string_output_adapter@_W@__crt_stdio_output@@@__crt_stdio_output@@IAE_NXZ 1005a5a5 f i libucrt:output.obj
 0001:00059604       ?validate_state_for_type_case_a@?$standard_base@DV?$stream_output_adapter@D@__crt_stdio_output@@@__crt_stdio_output@@IBE_NXZ 1005a604 f i libucrt:output.obj
 0001:00059607       ?validate_state_for_type_case_a@?$standard_base@DV?$string_output_adapter@D@__crt_stdio_output@@@__crt_stdio_output@@IBE_NXZ 1005a607 f i libucrt:output.obj
 0001:0005960a       ?validate_state_for_type_case_a@?$standard_base@_WV?$stream_output_adapter@_W@__crt_stdio_output@@@__crt_stdio_output@@IBE_NXZ 1005a60a f i libucrt:output.obj
 0001:0005960d       ?validate_state_for_type_case_a@?$standard_base@_WV?$string_output_adapter@_W@__crt_stdio_output@@@__crt_stdio_output@@IBE_NXZ 1005a60d f i libucrt:output.obj
 0001:00059610       ?validate_stream_is_ansi_if_required@?$__acrt_stdio_char_traits@D@@SA_NQAU_iobuf@@@Z 1005a610 f i libucrt:output.obj
 0001:00059697       ?validate_stream_is_ansi_if_required@?$__acrt_stdio_char_traits@_W@@SA_NQAU_iobuf@@@Z 1005a697 f i libucrt:output.obj
 0001:0005969a       ?wide_null_string@?$output_processor@DV?$stream_output_adapter@D@__crt_stdio_output@@V?$format_validation_base@DV?$stream_output_adapter@D@__crt_stdio_output@@@2@@__crt_stdio_output@@CAPA_WXZ 1005a69a f i libucrt:output.obj
 0001:000596a0       ?wide_null_string@?$output_processor@DV?$stream_output_adapter@D@__crt_stdio_output@@V?$positional_parameter_base@DV?$stream_output_adapter@D@__crt_stdio_output@@@2@@__crt_stdio_output@@CAPA_WXZ 1005a6a0 f i libucrt:output.obj
 0001:000596a6       ?wide_null_string@?$output_processor@DV?$stream_output_adapter@D@__crt_stdio_output@@V?$standard_base@DV?$stream_output_adapter@D@__crt_stdio_output@@@2@@__crt_stdio_output@@CAPA_WXZ 1005a6a6 f i libucrt:output.obj
 0001:000596ac       ?wide_null_string@?$output_processor@DV?$string_output_adapter@D@__crt_stdio_output@@V?$format_validation_base@DV?$string_output_adapter@D@__crt_stdio_output@@@2@@__crt_stdio_output@@CAPA_WXZ 1005a6ac f i libucrt:output.obj
 0001:000596b2       ?wide_null_string@?$output_processor@DV?$string_output_adapter@D@__crt_stdio_output@@V?$positional_parameter_base@DV?$string_output_adapter@D@__crt_stdio_output@@@2@@__crt_stdio_output@@CAPA_WXZ 1005a6b2 f i libucrt:output.obj
 0001:000596b8       ?wide_null_string@?$output_processor@DV?$string_output_adapter@D@__crt_stdio_output@@V?$standard_base@DV?$string_output_adapter@D@__crt_stdio_output@@@2@@__crt_stdio_output@@CAPA_WXZ 1005a6b8 f i libucrt:output.obj
 0001:000596be       ?wide_null_string@?$output_processor@_WV?$stream_output_adapter@_W@__crt_stdio_output@@V?$format_validation_base@_WV?$stream_output_adapter@_W@__crt_stdio_output@@@2@@__crt_stdio_output@@CAPA_WXZ 1005a6be f i libucrt:output.obj
 0001:000596c4       ?wide_null_string@?$output_processor@_WV?$stream_output_adapter@_W@__crt_stdio_output@@V?$positional_parameter_base@_WV?$stream_output_adapter@_W@__crt_stdio_output@@@2@@__crt_stdio_output@@CAPA_WXZ 1005a6c4 f i libucrt:output.obj
 0001:000596ca       ?wide_null_string@?$output_processor@_WV?$stream_output_adapter@_W@__crt_stdio_output@@V?$standard_base@_WV?$stream_output_adapter@_W@__crt_stdio_output@@@2@@__crt_stdio_output@@CAPA_WXZ 1005a6ca f i libucrt:output.obj
 0001:000596d0       ?wide_null_string@?$output_processor@_WV?$string_output_adapter@_W@__crt_stdio_output@@V?$format_validation_base@_WV?$string_output_adapter@_W@__crt_stdio_output@@@2@@__crt_stdio_output@@CAPA_WXZ 1005a6d0 f i libucrt:output.obj
 0001:000596d6       ?wide_null_string@?$output_processor@_WV?$string_output_adapter@_W@__crt_stdio_output@@V?$positional_parameter_base@_WV?$string_output_adapter@_W@__crt_stdio_output@@@2@@__crt_stdio_output@@CAPA_WXZ 1005a6d6 f i libucrt:output.obj
 0001:000596dc       ?wide_null_string@?$output_processor@_WV?$string_output_adapter@_W@__crt_stdio_output@@V?$standard_base@_WV?$string_output_adapter@_W@__crt_stdio_output@@@2@@__crt_stdio_output@@CAPA_WXZ 1005a6dc f i libucrt:output.obj
 0001:000596e2       ?write_character@?$output_adapter_common@DV?$stream_output_adapter@D@__crt_stdio_output@@@__crt_stdio_output@@QBEXDQAHAAV__crt_cached_ptd_host@@@Z 1005a6e2 f i libucrt:output.obj
 0001:00059704       ?write_character@?$output_adapter_common@_WV?$stream_output_adapter@_W@__crt_stdio_output@@@__crt_stdio_output@@QBEX_WQAHAAV__crt_cached_ptd_host@@@Z 1005a704 f i libucrt:output.obj
 0001:00059726       ?write_character@?$string_output_adapter@D@__crt_stdio_output@@QBE_NDQAHAAV__crt_cached_ptd_host@@@Z 1005a726 f i libucrt:output.obj
 0001:00059768       ?write_character@?$string_output_adapter@_W@__crt_stdio_output@@QBE_N_WQAHAAV__crt_cached_ptd_host@@@Z 1005a768 f i libucrt:output.obj
 0001:000597ad       ?write_character_without_count_update@?$stream_output_adapter@D@__crt_stdio_output@@QBE_NDAAV__crt_cached_ptd_host@@@Z 1005a7ad f i libucrt:output.obj
 0001:000597e7       ?write_character_without_count_update@?$stream_output_adapter@_W@__crt_stdio_output@@QBE_N_WAAV__crt_cached_ptd_host@@@Z 1005a7e7 f i libucrt:output.obj
 0001:00059824       ?write_stored_string_tchar@?$output_processor@DV?$stream_output_adapter@D@__crt_stdio_output@@V?$format_validation_base@DV?$stream_output_adapter@D@__crt_stdio_output@@@2@@__crt_stdio_output@@AAE_ND@Z 1005a824 f i libucrt:output.obj
 0001:000598cf       ?write_stored_string_tchar@?$output_processor@DV?$stream_output_adapter@D@__crt_stdio_output@@V?$positional_parameter_base@DV?$stream_output_adapter@D@__crt_stdio_output@@@2@@__crt_stdio_output@@AAE_ND@Z 1005a8cf f i libucrt:output.obj
 0001:0005997a       ?write_stored_string_tchar@?$output_processor@DV?$stream_output_adapter@D@__crt_stdio_output@@V?$standard_base@DV?$stream_output_adapter@D@__crt_stdio_output@@@2@@__crt_stdio_output@@AAE_ND@Z 1005a97a f i libucrt:output.obj
 0001:00059a25       ?write_stored_string_tchar@?$output_processor@DV?$string_output_adapter@D@__crt_stdio_output@@V?$format_validation_base@DV?$string_output_adapter@D@__crt_stdio_output@@@2@@__crt_stdio_output@@AAE_ND@Z 1005aa25 f i libucrt:output.obj
 0001:00059ad0       ?write_stored_string_tchar@?$output_processor@DV?$string_output_adapter@D@__crt_stdio_output@@V?$positional_parameter_base@DV?$string_output_adapter@D@__crt_stdio_output@@@2@@__crt_stdio_output@@AAE_ND@Z 1005aad0 f i libucrt:output.obj
 0001:00059b7b       ?write_stored_string_tchar@?$output_processor@DV?$string_output_adapter@D@__crt_stdio_output@@V?$standard_base@DV?$string_output_adapter@D@__crt_stdio_output@@@2@@__crt_stdio_output@@AAE_ND@Z 1005ab7b f i libucrt:output.obj
 0001:00059c26       ?write_stored_string_tchar@?$output_processor@_WV?$stream_output_adapter@_W@__crt_stdio_output@@V?$format_validation_base@_WV?$stream_output_adapter@_W@__crt_stdio_output@@@2@@__crt_stdio_output@@AAE_N_W@Z 1005ac26 f i libucrt:output.obj
 0001:00059cd3       ?write_stored_string_tchar@?$output_processor@_WV?$stream_output_adapter@_W@__crt_stdio_output@@V?$positional_parameter_base@_WV?$stream_output_adapter@_W@__crt_stdio_output@@@2@@__crt_stdio_output@@AAE_N_W@Z 1005acd3 f i libucrt:output.obj
 0001:00059d80       ?write_stored_string_tchar@?$output_processor@_WV?$stream_output_adapter@_W@__crt_stdio_output@@V?$standard_base@_WV?$stream_output_adapter@_W@__crt_stdio_output@@@2@@__crt_stdio_output@@AAE_N_W@Z 1005ad80 f i libucrt:output.obj
 0001:00059e2d       ?write_stored_string_tchar@?$output_processor@_WV?$string_output_adapter@_W@__crt_stdio_output@@V?$format_validation_base@_WV?$string_output_adapter@_W@__crt_stdio_output@@@2@@__crt_stdio_output@@AAE_N_W@Z 1005ae2d f i libucrt:output.obj
 0001:00059f0a       ?write_stored_string_tchar@?$output_processor@_WV?$string_output_adapter@_W@__crt_stdio_output@@V?$positional_parameter_base@_WV?$string_output_adapter@_W@__crt_stdio_output@@@2@@__crt_stdio_output@@AAE_N_W@Z 1005af0a f i libucrt:output.obj
 0001:00059fe7       ?write_stored_string_tchar@?$output_processor@_WV?$string_output_adapter@_W@__crt_stdio_output@@V?$standard_base@_WV?$string_output_adapter@_W@__crt_stdio_output@@@2@@__crt_stdio_output@@AAE_N_W@Z 1005afe7 f i libucrt:output.obj
 0001:0005a0c4       ?write_string@?$stream_output_adapter@D@__crt_stdio_output@@QBEXQBDHQAHAAV__crt_cached_ptd_host@@@Z 1005b0c4 f i libucrt:output.obj
 0001:0005a0f0       ?write_string@?$stream_output_adapter@_W@__crt_stdio_output@@QBEXQB_WHQAHAAV__crt_cached_ptd_host@@@Z 1005b0f0 f i libucrt:output.obj
 0001:0005a11c       ?write_string@?$string_output_adapter@D@__crt_stdio_output@@QBEXQBDHQAHAAV__crt_cached_ptd_host@@@Z 1005b11c f i libucrt:output.obj
 0001:0005a183       ?write_string@?$string_output_adapter@_W@__crt_stdio_output@@QBEXQB_WHQAHAAV__crt_cached_ptd_host@@@Z 1005b183 f i libucrt:output.obj
 0001:0005a1f4       ?write_string_impl@?$output_adapter_common@DV?$stream_output_adapter@D@__crt_stdio_output@@@__crt_stdio_output@@IBEXQBDHQAHAAV__crt_cached_ptd_host@@@Z 1005b1f4 f i libucrt:output.obj
 0001:0005a273       ?write_string_impl@?$output_adapter_common@_WV?$stream_output_adapter@_W@__crt_stdio_output@@@__crt_stdio_output@@IBEXQB_WHQAHAAV__crt_cached_ptd_host@@@Z 1005b273 f i libucrt:output.obj
 0001:0005a2f5       ___acrt_isleadbyte_l_noupdate 1005b2f5 f i libucrt:output.obj
 0001:0005a313       ___stdio_common_vfprintf   1005b313 f   libucrt:output.obj
 0001:0005a3b7       ___stdio_common_vfprintf_p 1005b3b7 f   libucrt:output.obj
 0001:0005a45b       ___stdio_common_vfprintf_s 1005b45b f   libucrt:output.obj
 0001:0005a4ff       ___stdio_common_vfwprintf  1005b4ff f   libucrt:output.obj
 0001:0005a5a3       ___stdio_common_vfwprintf_p 1005b5a3 f   libucrt:output.obj
 0001:0005a647       ___stdio_common_vfwprintf_s 1005b647 f   libucrt:output.obj
 0001:0005a6eb       ___stdio_common_vsnprintf_s 1005b6eb f   libucrt:output.obj
 0001:0005a72f       ___stdio_common_vsnwprintf_s 1005b72f f   libucrt:output.obj
 0001:0005a773       ___stdio_common_vsprintf   1005b773 f   libucrt:output.obj
 0001:0005a7b4       ___stdio_common_vsprintf_p 1005b7b4 f   libucrt:output.obj
 0001:0005a7f5       ___stdio_common_vsprintf_s 1005b7f5 f   libucrt:output.obj
 0001:0005a836       ___stdio_common_vswprintf  1005b836 f   libucrt:output.obj
 0001:0005a877       ___stdio_common_vswprintf_p 1005b877 f   libucrt:output.obj
 0001:0005a8b8       ___stdio_common_vswprintf_s 1005b8b8 f   libucrt:output.obj
 0001:0005a8f9       __ctype_fast_check_internal 1005b8f9 f i libucrt:output.obj
 0001:0005a913       __isdigit_fast_internal    1005b913 f i libucrt:output.obj
 0001:0005a92d       __tolower_fast_internal    1005b92d f i libucrt:output.obj
 0001:0005a946       ??$?RE@__crt_internal_free_policy@@QBEXQBE@Z 1005b946 f i libucrt:input.obj
 0001:0005aa5a       ??$assemble_floating_point_ind@M@__crt_strtox@@YAXAAM@Z 1005ba5a f i libucrt:input.obj
 0001:0005aa6a       ??$assemble_floating_point_ind@N@__crt_strtox@@YAXAAN@Z 1005ba6a f i libucrt:input.obj
 0001:0005aa7e       ??$assemble_floating_point_infinity@M@__crt_strtox@@YAX_NAAM@Z 1005ba7e f i libucrt:input.obj
 0001:0005aa97       ??$assemble_floating_point_infinity@N@__crt_strtox@@YAX_NAAN@Z 1005ba97 f i libucrt:input.obj
 0001:0005aab4       ??$assemble_floating_point_qnan@M@__crt_strtox@@YAX_NAAM@Z 1005bab4 f i libucrt:input.obj
 0001:0005aacd       ??$assemble_floating_point_qnan@N@__crt_strtox@@YAX_NAAN@Z 1005bacd f i libucrt:input.obj
 0001:0005aaea       ??$assemble_floating_point_snan@M@__crt_strtox@@YAX_NAAM@Z 1005baea f i libucrt:input.obj
 0001:0005ab03       ??$assemble_floating_point_snan@N@__crt_strtox@@YAX_NAAN@Z 1005bb03 f i libucrt:input.obj
 0001:0005ab24       ??$assemble_floating_point_value_t@M@__crt_strtox@@YA?AW4SLD_STATUS@@_NH_KAAM@Z 1005bb24 f i libucrt:input.obj
 0001:0005ab54       ??$assemble_floating_point_value_t@N@__crt_strtox@@YA?AW4SLD_STATUS@@_NH_KAAN@Z 1005bb54 f i libucrt:input.obj
 0001:0005ab96       ??$assemble_floating_point_zero@M@__crt_strtox@@YAX_NAAM@Z 1005bb96 f i libucrt:input.obj
 0001:0005aba9       ??$assemble_floating_point_zero@N@__crt_strtox@@YAX_NAAN@Z 1005bba9 f i libucrt:input.obj
 0001:0005add6       ??$convert_decimal_string_to_floating_type@M@__crt_strtox@@YA?AW4SLD_STATUS@@ABUfloating_point_string@0@AAM@Z 1005bdd6 f i libucrt:input.obj
 0001:0005adf7       ??$convert_decimal_string_to_floating_type@N@__crt_strtox@@YA?AW4SLD_STATUS@@ABUfloating_point_string@0@AAN@Z 1005bdf7 f i libucrt:input.obj
 0001:0005ae18       ??$convert_hexadecimal_string_to_floating_type@M@__crt_strtox@@YA?AW4SLD_STATUS@@ABUfloating_point_string@0@AAM@Z 1005be18 f i libucrt:input.obj
 0001:0005ae39       ??$convert_hexadecimal_string_to_floating_type@N@__crt_strtox@@YA?AW4SLD_STATUS@@ABUfloating_point_string@0@AAN@Z 1005be39 f i libucrt:input.obj
 0001:0005ae5a       ??$fill_buffer@D@?$input_processor@DV?$stream_input_adapter@D@__crt_stdio_input@@@__crt_stdio_input@@CAXQADII@Z 1005be5a f i libucrt:input.obj
 0001:0005ae5d       ??$fill_buffer@D@?$input_processor@DV?$string_input_adapter@D@__crt_stdio_input@@@__crt_stdio_input@@CAXQADII@Z 1005be5d f i libucrt:input.obj
 0001:0005ae60       ??$fill_buffer@D@?$input_processor@_WV?$stream_input_adapter@_W@__crt_stdio_input@@@__crt_stdio_input@@CAXQADII@Z 1005be60 f i libucrt:input.obj
 0001:0005ae63       ??$fill_buffer@D@?$input_processor@_WV?$string_input_adapter@_W@__crt_stdio_input@@@__crt_stdio_input@@CAXQADII@Z 1005be63 f i libucrt:input.obj
 0001:0005ae66       ??$fill_buffer@_W@?$input_processor@DV?$stream_input_adapter@D@__crt_stdio_input@@@__crt_stdio_input@@CAXQA_WII@Z 1005be66 f i libucrt:input.obj
 0001:0005ae69       ??$fill_buffer@_W@?$input_processor@DV?$string_input_adapter@D@__crt_stdio_input@@@__crt_stdio_input@@CAXQA_WII@Z 1005be69 f i libucrt:input.obj
 0001:0005ae6c       ??$fill_buffer@_W@?$input_processor@_WV?$stream_input_adapter@_W@__crt_stdio_input@@@__crt_stdio_input@@CAXQA_WII@Z 1005be6c f i libucrt:input.obj
 0001:0005ae6f       ??$fill_buffer@_W@?$input_processor@_WV?$string_input_adapter@_W@__crt_stdio_input@@@__crt_stdio_input@@CAXQA_WII@Z 1005be6f f i libucrt:input.obj
 0001:0005ae72       ??$getc_nolock@PAU_iobuf@@@?$__crt_char_traits@D@@SAH$$QAPAU_iobuf@@@Z 1005be72 f i libucrt:input.obj
 0001:0005ae84       ??$getc_nolock@PAU_iobuf@@@?$__crt_char_traits@_W@@SAG$$QAPAU_iobuf@@@Z 1005be84 f i libucrt:input.obj
 0001:0005ae96       ??$istspace@ABE@?$__crt_char_traits@D@@SAHABE@Z 1005be96 f i libucrt:input.obj
 0001:0005aeaa       ??$istspace@AB_W@?$__crt_char_traits@_W@@SAHAB_W@Z 1005beaa f i libucrt:input.obj
 0001:0005aec1       ??$make_input_adapter_character_source@V?$stream_input_adapter@D@__crt_stdio_input@@@__crt_strtox@@YA?AV?$input_adapter_character_source@V?$stream_input_adapter@D@__crt_stdio_input@@@0@QAV?$stream_input_adapter@D@__crt_stdio_input@@_KQA_N@Z 1005bec1 f i libucrt:input.obj
 0001:0005aedf       ??$make_input_adapter_character_source@V?$stream_input_adapter@_W@__crt_stdio_input@@@__crt_strtox@@YA?AV?$input_adapter_character_source@V?$stream_input_adapter@_W@__crt_stdio_input@@@0@QAV?$stream_input_adapter@_W@__crt_stdio_input@@_KQA_N@Z 1005bedf f i libucrt:input.obj
 0001:0005aefd       ??$make_input_adapter_character_source@V?$string_input_adapter@D@__crt_stdio_input@@@__crt_strtox@@YA?AV?$input_adapter_character_source@V?$string_input_adapter@D@__crt_stdio_input@@@0@QAV?$string_input_adapter@D@__crt_stdio_input@@_KQA_N@Z 1005befd f i libucrt:input.obj
 0001:0005af1b       ??$make_input_adapter_character_source@V?$string_input_adapter@_W@__crt_stdio_input@@@__crt_strtox@@YA?AV?$input_adapter_character_source@V?$string_input_adapter@_W@__crt_stdio_input@@@0@QAV?$string_input_adapter@_W@__crt_stdio_input@@_KQA_N@Z 1005bf1b f i libucrt:input.obj
 0001:0005af39       ??$parse_floating_point@V?$input_adapter_character_source@V?$stream_input_adapter@D@__crt_stdio_input@@@__crt_strtox@@M@__crt_strtox@@YA?AW4SLD_STATUS@@QAU__crt_locale_pointers@@V?$input_adapter_character_source@V?$stream_input_adapter@D@__crt_stdio_input@@@0@QAM@Z 1005bf39 f i libucrt:input.obj
 0001:0005afc3       ??$parse_floating_point@V?$input_adapter_character_source@V?$stream_input_adapter@D@__crt_stdio_input@@@__crt_strtox@@N@__crt_strtox@@YA?AW4SLD_STATUS@@QAU__crt_locale_pointers@@V?$input_adapter_character_source@V?$stream_input_adapter@D@__crt_stdio_input@@@0@QAN@Z 1005bfc3 f i libucrt:input.obj
 0001:0005b04d       ??$parse_floating_point@V?$input_adapter_character_source@V?$stream_input_adapter@_W@__crt_stdio_input@@@__crt_strtox@@M@__crt_strtox@@YA?AW4SLD_STATUS@@QAU__crt_locale_pointers@@V?$input_adapter_character_source@V?$stream_input_adapter@_W@__crt_stdio_input@@@0@QAM@Z 1005c04d f i libucrt:input.obj
 0001:0005b0d7       ??$parse_floating_point@V?$input_adapter_character_source@V?$stream_input_adapter@_W@__crt_stdio_input@@@__crt_strtox@@N@__crt_strtox@@YA?AW4SLD_STATUS@@QAU__crt_locale_pointers@@V?$input_adapter_character_source@V?$stream_input_adapter@_W@__crt_stdio_input@@@0@QAN@Z 1005c0d7 f i libucrt:input.obj
 0001:0005b161       ??$parse_floating_point@V?$input_adapter_character_source@V?$string_input_adapter@D@__crt_stdio_input@@@__crt_strtox@@M@__crt_strtox@@YA?AW4SLD_STATUS@@QAU__crt_locale_pointers@@V?$input_adapter_character_source@V?$string_input_adapter@D@__crt_stdio_input@@@0@QAM@Z 1005c161 f i libucrt:input.obj
 0001:0005b1eb       ??$parse_floating_point@V?$input_adapter_character_source@V?$string_input_adapter@D@__crt_stdio_input@@@__crt_strtox@@N@__crt_strtox@@YA?AW4SLD_STATUS@@QAU__crt_locale_pointers@@V?$input_adapter_character_source@V?$string_input_adapter@D@__crt_stdio_input@@@0@QAN@Z 1005c1eb f i libucrt:input.obj
 0001:0005b275       ??$parse_floating_point@V?$input_adapter_character_source@V?$string_input_adapter@_W@__crt_stdio_input@@@__crt_strtox@@M@__crt_strtox@@YA?AW4SLD_STATUS@@QAU__crt_locale_pointers@@V?$input_adapter_character_source@V?$string_input_adapter@_W@__crt_stdio_input@@@0@QAM@Z 1005c275 f i libucrt:input.obj
 0001:0005b2ff       ??$parse_floating_point@V?$input_adapter_character_source@V?$string_input_adapter@_W@__crt_stdio_input@@@__crt_strtox@@N@__crt_strtox@@YA?AW4SLD_STATUS@@QAU__crt_locale_pointers@@V?$input_adapter_character_source@V?$string_input_adapter@_W@__crt_stdio_input@@@0@QAN@Z 1005c2ff f i libucrt:input.obj
 0001:0005b389       ??$parse_floating_point_from_source@V?$input_adapter_character_source@V?$stream_input_adapter@D@__crt_stdio_input@@@__crt_strtox@@@__crt_strtox@@YA?AW4floating_point_parse_result@0@QAU__crt_locale_pointers@@AAV?$input_adapter_character_source@V?$stream_input_adapter@D@__crt_stdio_input@@@0@AAUfloating_point_string@0@@Z 1005c389 f i libucrt:input.obj
 0001:0005b7eb       ??$parse_floating_point_from_source@V?$input_adapter_character_source@V?$stream_input_adapter@_W@__crt_stdio_input@@@__crt_strtox@@@__crt_strtox@@YA?AW4floating_point_parse_result@0@QAU__crt_locale_pointers@@AAV?$input_adapter_character_source@V?$stream_input_adapter@_W@__crt_stdio_input@@@0@AAUfloating_point_string@0@@Z 1005c7eb f i libucrt:input.obj
 0001:0005c38c       ??$parse_floating_point_from_source@V?$input_adapter_character_source@V?$string_input_adapter@D@__crt_stdio_input@@@__crt_strtox@@@__crt_strtox@@YA?AW4floating_point_parse_result@0@QAU__crt_locale_pointers@@AAV?$input_adapter_character_source@V?$string_input_adapter@D@__crt_stdio_input@@@0@AAUfloating_point_string@0@@Z 1005d38c f i libucrt:input.obj
 0001:0005c7ee       ??$parse_floating_point_from_source@V?$input_adapter_character_source@V?$string_input_adapter@_W@__crt_stdio_input@@@__crt_strtox@@@__crt_strtox@@YA?AW4floating_point_parse_result@0@QAU__crt_locale_pointers@@AAV?$input_adapter_character_source@V?$string_input_adapter@_W@__crt_stdio_input@@@0@AAUfloating_point_string@0@@Z 1005d7ee f i libucrt:input.obj
 0001:0005d38f       ??$parse_floating_point_possible_infinity@DV?$input_adapter_character_source@V?$stream_input_adapter@D@__crt_stdio_input@@@__crt_strtox@@_K@__crt_strtox@@YA?AW4floating_point_parse_result@0@AADAAV?$input_adapter_character_source@V?$stream_input_adapter@D@__crt_stdio_input@@@0@_K@Z 1005e38f f i libucrt:input.obj
 0001:0005d44e       ??$parse_floating_point_possible_infinity@DV?$input_adapter_character_source@V?$string_input_adapter@D@__crt_stdio_input@@@__crt_strtox@@_K@__crt_strtox@@YA?AW4floating_point_parse_result@0@AADAAV?$input_adapter_character_source@V?$string_input_adapter@D@__crt_stdio_input@@@0@_K@Z 1005e44e f i libucrt:input.obj
 0001:0005d50d       ??$parse_floating_point_possible_infinity@_WV?$input_adapter_character_source@V?$stream_input_adapter@_W@__crt_stdio_input@@@__crt_strtox@@_K@__crt_strtox@@YA?AW4floating_point_parse_result@0@AA_WAAV?$input_adapter_character_source@V?$stream_input_adapter@_W@__crt_stdio_input@@@0@_K@Z 1005e50d f i libucrt:input.obj
 0001:0005d5da       ??$parse_floating_point_possible_infinity@_WV?$input_adapter_character_source@V?$string_input_adapter@_W@__crt_stdio_input@@@__crt_strtox@@_K@__crt_strtox@@YA?AW4floating_point_parse_result@0@AA_WAAV?$input_adapter_character_source@V?$string_input_adapter@_W@__crt_stdio_input@@@0@_K@Z 1005e5da f i libucrt:input.obj
 0001:0005d6a7       ??$parse_floating_point_possible_nan@DV?$input_adapter_character_source@V?$stream_input_adapter@D@__crt_stdio_input@@@__crt_strtox@@_K@__crt_strtox@@YA?AW4floating_point_parse_result@0@AADAAV?$input_adapter_character_source@V?$stream_input_adapter@D@__crt_stdio_input@@@0@_K@Z 1005e6a7 f i libucrt:input.obj
 0001:0005d7af       ??$parse_floating_point_possible_nan@DV?$input_adapter_character_source@V?$string_input_adapter@D@__crt_stdio_input@@@__crt_strtox@@_K@__crt_strtox@@YA?AW4floating_point_parse_result@0@AADAAV?$input_adapter_character_source@V?$string_input_adapter@D@__crt_stdio_input@@@0@_K@Z 1005e7af f i libucrt:input.obj
 0001:0005d8b7       ??$parse_floating_point_possible_nan@_WV?$input_adapter_character_source@V?$stream_input_adapter@_W@__crt_stdio_input@@@__crt_strtox@@_K@__crt_strtox@@YA?AW4floating_point_parse_result@0@AA_WAAV?$input_adapter_character_source@V?$stream_input_adapter@_W@__crt_stdio_input@@@0@_K@Z 1005e8b7 f i libucrt:input.obj
 0001:0005d9d8       ??$parse_floating_point_possible_nan@_WV?$input_adapter_character_source@V?$string_input_adapter@_W@__crt_stdio_input@@@__crt_strtox@@_K@__crt_strtox@@YA?AW4floating_point_parse_result@0@AA_WAAV?$input_adapter_character_source@V?$string_input_adapter@_W@__crt_stdio_input@@@0@_K@Z 1005e9d8 f i libucrt:input.obj
 0001:0005daf9       ??$parse_floating_point_possible_nan_is_ind@DV?$input_adapter_character_source@V?$stream_input_adapter@D@__crt_stdio_input@@@__crt_strtox@@@__crt_strtox@@YA_NAADAAV?$input_adapter_character_source@V?$stream_input_adapter@D@__crt_stdio_input@@@0@@Z 1005eaf9 f i libucrt:input.obj
 0001:0005db33       ??$parse_floating_point_possible_nan_is_ind@DV?$input_adapter_character_source@V?$string_input_adapter@D@__crt_stdio_input@@@__crt_strtox@@@__crt_strtox@@YA_NAADAAV?$input_adapter_character_source@V?$string_input_adapter@D@__crt_stdio_input@@@0@@Z 1005eb33 f i libucrt:input.obj
 0001:0005db6d       ??$parse_floating_point_possible_nan_is_ind@_WV?$input_adapter_character_source@V?$stream_input_adapter@_W@__crt_stdio_input@@@__crt_strtox@@@__crt_strtox@@YA_NAA_WAAV?$input_adapter_character_source@V?$stream_input_adapter@_W@__crt_stdio_input@@@0@@Z 1005eb6d f i libucrt:input.obj
 0001:0005dbad       ??$parse_floating_point_possible_nan_is_ind@_WV?$input_adapter_character_source@V?$string_input_adapter@_W@__crt_stdio_input@@@__crt_strtox@@@__crt_strtox@@YA_NAA_WAAV?$input_adapter_character_source@V?$string_input_adapter@_W@__crt_stdio_input@@@0@@Z 1005ebad f i libucrt:input.obj
 0001:0005dbed       ??$parse_floating_point_possible_nan_is_snan@DV?$input_adapter_character_source@V?$stream_input_adapter@D@__crt_stdio_input@@@__crt_strtox@@@__crt_strtox@@YA_NAADAAV?$input_adapter_character_source@V?$stream_input_adapter@D@__crt_stdio_input@@@0@@Z 1005ebed f i libucrt:input.obj
 0001:0005dc27       ??$parse_floating_point_possible_nan_is_snan@DV?$input_adapter_character_source@V?$string_input_adapter@D@__crt_stdio_input@@@__crt_strtox@@@__crt_strtox@@YA_NAADAAV?$input_adapter_character_source@V?$string_input_adapter@D@__crt_stdio_input@@@0@@Z 1005ec27 f i libucrt:input.obj
 0001:0005dc61       ??$parse_floating_point_possible_nan_is_snan@_WV?$input_adapter_character_source@V?$stream_input_adapter@_W@__crt_stdio_input@@@__crt_strtox@@@__crt_strtox@@YA_NAA_WAAV?$input_adapter_character_source@V?$stream_input_adapter@_W@__crt_stdio_input@@@0@@Z 1005ec61 f i libucrt:input.obj
 0001:0005dca1       ??$parse_floating_point_possible_nan_is_snan@_WV?$input_adapter_character_source@V?$string_input_adapter@_W@__crt_stdio_input@@@__crt_strtox@@@__crt_strtox@@YA_NAA_WAAV?$input_adapter_character_source@V?$string_input_adapter@_W@__crt_stdio_input@@@0@@Z 1005eca1 f i libucrt:input.obj
 0001:0005dce1       ??$parse_floating_point_write_result@M@__crt_strtox@@YA?AW4SLD_STATUS@@W4floating_point_parse_result@0@ABUfloating_point_string@0@QAM@Z 1005ece1 f i libucrt:input.obj
 0001:0005de4d       ??$parse_floating_point_write_result@N@__crt_strtox@@YA?AW4SLD_STATUS@@W4floating_point_parse_result@0@ABUfloating_point_string@0@QAN@Z 1005ee4d f i libucrt:input.obj
 0001:0005df71       ??$parse_integer@_KV?$input_adapter_character_source@V?$stream_input_adapter@D@__crt_stdio_input@@@__crt_strtox@@$00@__crt_strtox@@YA_KAAV__crt_cached_ptd_host@@V?$input_adapter_character_source@V?$stream_input_adapter@D@__crt_stdio_input@@@0@H_N@Z 1005ef71 f i libucrt:input.obj
 0001:0005e275       ??$parse_integer@_KV?$input_adapter_character_source@V?$stream_input_adapter@D@__crt_stdio_input@@@__crt_strtox@@@__crt_strtox@@YA_KQAU__crt_locale_pointers@@V?$input_adapter_character_source@V?$stream_input_adapter@D@__crt_stdio_input@@@0@H_N@Z 1005f275 f i libucrt:input.obj
 0001:0005e2d1       ??$parse_integer@_KV?$input_adapter_character_source@V?$stream_input_adapter@_W@__crt_stdio_input@@@__crt_strtox@@$00@__crt_strtox@@YA_KAAV__crt_cached_ptd_host@@V?$input_adapter_character_source@V?$stream_input_adapter@_W@__crt_stdio_input@@@0@H_N@Z 1005f2d1 f i libucrt:input.obj
 0001:0005e9a1       ??$parse_integer@_KV?$input_adapter_character_source@V?$stream_input_adapter@_W@__crt_stdio_input@@@__crt_strtox@@@__crt_strtox@@YA_KQAU__crt_locale_pointers@@V?$input_adapter_character_source@V?$stream_input_adapter@_W@__crt_stdio_input@@@0@H_N@Z 1005f9a1 f i libucrt:input.obj
 0001:0005e9fd       ??$parse_integer@_KV?$input_adapter_character_source@V?$string_input_adapter@D@__crt_stdio_input@@@__crt_strtox@@$00@__crt_strtox@@YA_KAAV__crt_cached_ptd_host@@V?$input_adapter_character_source@V?$string_input_adapter@D@__crt_stdio_input@@@0@H_N@Z 1005f9fd f i libucrt:input.obj
 0001:0005ed01       ??$parse_integer@_KV?$input_adapter_character_source@V?$string_input_adapter@D@__crt_stdio_input@@@__crt_strtox@@@__crt_strtox@@YA_KQAU__crt_locale_pointers@@V?$input_adapter_character_source@V?$string_input_adapter@D@__crt_stdio_input@@@0@H_N@Z 1005fd01 f i libucrt:input.obj
 0001:0005ed5d       ??$parse_integer@_KV?$input_adapter_character_source@V?$string_input_adapter@_W@__crt_stdio_input@@@__crt_strtox@@$00@__crt_strtox@@YA_KAAV__crt_cached_ptd_host@@V?$input_adapter_character_source@V?$string_input_adapter@_W@__crt_stdio_input@@@0@H_N@Z 1005fd5d f i libucrt:input.obj
 0001:0005f42d       ??$parse_integer@_KV?$input_adapter_character_source@V?$string_input_adapter@_W@__crt_stdio_input@@@__crt_strtox@@@__crt_strtox@@YA_KQAU__crt_locale_pointers@@V?$input_adapter_character_source@V?$string_input_adapter@_W@__crt_stdio_input@@@0@H_N@Z 1006042d f i libucrt:input.obj
 0001:0005f489       ??$parse_next_characters_from_source@DV?$input_adapter_character_source@V?$stream_input_adapter@D@__crt_stdio_input@@@__crt_strtox@@@__crt_strtox@@YA_NQBD0IAADAAV?$input_adapter_character_source@V?$stream_input_adapter@D@__crt_stdio_input@@@0@@Z 10060489 f i libucrt:input.obj
 0001:0005f4cd       ??$parse_next_characters_from_source@DV?$input_adapter_character_source@V?$string_input_adapter@D@__crt_stdio_input@@@__crt_strtox@@@__crt_strtox@@YA_NQBD0IAADAAV?$input_adapter_character_source@V?$string_input_adapter@D@__crt_stdio_input@@@0@@Z 100604cd f i libucrt:input.obj
 0001:0005f511       ??$parse_next_characters_from_source@_WV?$input_adapter_character_source@V?$stream_input_adapter@_W@__crt_stdio_input@@@__crt_strtox@@@__crt_strtox@@YA_NQB_W0IAA_WAAV?$input_adapter_character_source@V?$stream_input_adapter@_W@__crt_stdio_input@@@0@@Z 10060511 f i libucrt:input.obj
 0001:0005f55b       ??$parse_next_characters_from_source@_WV?$input_adapter_character_source@V?$string_input_adapter@_W@__crt_stdio_input@@@__crt_strtox@@@__crt_strtox@@YA_NQB_W0IAA_WAAV?$input_adapter_character_source@V?$string_input_adapter@_W@__crt_stdio_input@@@0@@Z 1006055b f i libucrt:input.obj
 0001:0005f5a5       ??$process_floating_point_specifier_t@M@?$input_processor@DV?$stream_input_adapter@D@__crt_stdio_input@@@__crt_stdio_input@@AAE_NXZ 100605a5 f i libucrt:input.obj
 0001:0005f60e       ??$process_floating_point_specifier_t@M@?$input_processor@DV?$string_input_adapter@D@__crt_stdio_input@@@__crt_stdio_input@@AAE_NXZ 1006060e f i libucrt:input.obj
 0001:0005f677       ??$process_floating_point_specifier_t@M@?$input_processor@_WV?$stream_input_adapter@_W@__crt_stdio_input@@@__crt_stdio_input@@AAE_NXZ 10060677 f i libucrt:input.obj
 0001:0005f6e0       ??$process_floating_point_specifier_t@M@?$input_processor@_WV?$string_input_adapter@_W@__crt_stdio_input@@@__crt_stdio_input@@AAE_NXZ 100606e0 f i libucrt:input.obj
 0001:0005f749       ??$process_floating_point_specifier_t@N@?$input_processor@DV?$stream_input_adapter@D@__crt_stdio_input@@@__crt_stdio_input@@AAE_NXZ 10060749 f i libucrt:input.obj
 0001:0005f7b2       ??$process_floating_point_specifier_t@N@?$input_processor@DV?$string_input_adapter@D@__crt_stdio_input@@@__crt_stdio_input@@AAE_NXZ 100607b2 f i libucrt:input.obj
 0001:0005f81b       ??$process_floating_point_specifier_t@N@?$input_processor@_WV?$stream_input_adapter@_W@__crt_stdio_input@@@__crt_stdio_input@@AAE_NXZ 1006081b f i libucrt:input.obj
 0001:0005f884       ??$process_floating_point_specifier_t@N@?$input_processor@_WV?$string_input_adapter@_W@__crt_stdio_input@@@__crt_stdio_input@@AAE_NXZ 10060884 f i libucrt:input.obj
 0001:0005f8ed       ??$process_string_specifier_tchar@D@?$input_processor@DV?$stream_input_adapter@D@__crt_stdio_input@@@__crt_stdio_input@@AAE_NW4conversion_mode@1@D@Z 100608ed f i libucrt:input.obj
 0001:0005fa63       ??$process_string_specifier_tchar@D@?$input_processor@DV?$string_input_adapter@D@__crt_stdio_input@@@__crt_stdio_input@@AAE_NW4conversion_mode@1@D@Z 10060a63 f i libucrt:input.obj
 0001:0005fbc5       ??$process_string_specifier_tchar@D@?$input_processor@_WV?$stream_input_adapter@_W@__crt_stdio_input@@@__crt_stdio_input@@AAE_NW4conversion_mode@1@D@Z 10060bc5 f i libucrt:input.obj
 0001:0005fd30       ??$process_string_specifier_tchar@D@?$input_processor@_WV?$string_input_adapter@_W@__crt_stdio_input@@@__crt_stdio_input@@AAE_NW4conversion_mode@1@D@Z 10060d30 f i libucrt:input.obj
 0001:0005fe9b       ??$process_string_specifier_tchar@_W@?$input_processor@DV?$stream_input_adapter@D@__crt_stdio_input@@@__crt_stdio_input@@AAE_NW4conversion_mode@1@_W@Z 10060e9b f i libucrt:input.obj
 0001:0006001d       ??$process_string_specifier_tchar@_W@?$input_processor@DV?$string_input_adapter@D@__crt_stdio_input@@@__crt_stdio_input@@AAE_NW4conversion_mode@1@_W@Z 1006101d f i libucrt:input.obj
 0001:0006018b       ??$process_string_specifier_tchar@_W@?$input_processor@_WV?$stream_input_adapter@_W@__crt_stdio_input@@@__crt_stdio_input@@AAE_NW4conversion_mode@1@_W@Z 1006118b f i libucrt:input.obj
 0001:000602f9       ??$process_string_specifier_tchar@_W@?$input_processor@_WV?$string_input_adapter@_W@__crt_stdio_input@@@__crt_stdio_input@@AAE_NW4conversion_mode@1@_W@Z 100612f9 f i libucrt:input.obj
 0001:00060467       ??$reset_buffer@D@?$input_processor@DV?$stream_input_adapter@D@__crt_stdio_input@@@__crt_stdio_input@@CAXQADI@Z 10061467 f i libucrt:input.obj
 0001:0006047a       ??$reset_buffer@D@?$input_processor@DV?$string_input_adapter@D@__crt_stdio_input@@@__crt_stdio_input@@CAXQADI@Z 1006147a f i libucrt:input.obj
 0001:0006048d       ??$reset_buffer@D@?$input_processor@_WV?$stream_input_adapter@_W@__crt_stdio_input@@@__crt_stdio_input@@CAXQADI@Z 1006148d f i libucrt:input.obj
 0001:000604a0       ??$reset_buffer@D@?$input_processor@_WV?$string_input_adapter@_W@__crt_stdio_input@@@__crt_stdio_input@@CAXQADI@Z 100614a0 f i libucrt:input.obj
 0001:000604b3       ??$reset_buffer@_W@?$input_processor@DV?$stream_input_adapter@D@__crt_stdio_input@@@__crt_stdio_input@@CAXQA_WI@Z 100614b3 f i libucrt:input.obj
 0001:000604c8       ??$reset_buffer@_W@?$input_processor@DV?$string_input_adapter@D@__crt_stdio_input@@@__crt_stdio_input@@CAXQA_WI@Z 100614c8 f i libucrt:input.obj
 0001:000604dd       ??$reset_buffer@_W@?$input_processor@_WV?$stream_input_adapter@_W@__crt_stdio_input@@@__crt_stdio_input@@CAXQA_WI@Z 100614dd f i libucrt:input.obj
 0001:000604f2       ??$reset_buffer@_W@?$input_processor@_WV?$string_input_adapter@_W@__crt_stdio_input@@@__crt_stdio_input@@CAXQA_WI@Z 100614f2 f i libucrt:input.obj
 0001:00060507       ??$skip_whitespace@Vstream_input_adapter@__crt_stdio_input@@D@__crt_stdio_input@@YAHAAV?$stream_input_adapter@D@0@QAU__crt_locale_pointers@@@Z 10061507 f i libucrt:input.obj
 0001:0006053e       ??$skip_whitespace@Vstream_input_adapter@__crt_stdio_input@@_W@__crt_stdio_input@@YAGAAV?$stream_input_adapter@_W@0@QAU__crt_locale_pointers@@@Z 1006153e f i libucrt:input.obj
 0001:0006056d       ??$skip_whitespace@Vstring_input_adapter@__crt_stdio_input@@D@__crt_stdio_input@@YAHAAV?$string_input_adapter@D@0@QAU__crt_locale_pointers@@@Z 1006156d f i libucrt:input.obj
 0001:0006059c       ??$skip_whitespace@Vstring_input_adapter@__crt_stdio_input@@_W@__crt_stdio_input@@YAGAAV?$string_input_adapter@_W@0@QAU__crt_locale_pointers@@@Z 1006159c f i libucrt:input.obj
 0001:000605cb       ??$tcsnlen@ABQBDABI@?$__crt_char_traits@D@@SAIABQBDABI@Z 100615cb f i libucrt:input.obj
 0001:000605e3       ??$tcsnlen@ABQB_WABI@?$__crt_char_traits@_W@@SAIABQB_WABI@Z 100615e3 f i libucrt:input.obj
 0001:000605fb       ??$tcstoull@PBDPAPADH@?$__crt_char_traits@D@@SA_K$$QAPBD$$QAPAPAD$$QAH@Z 100615fb f i libucrt:input.obj
 0001:00060619       ??$tcstoull@PB_WPAPA_WH@?$__crt_char_traits@_W@@SA_K$$QAPB_W$$QAPAPA_W$$QAH@Z 10061619 f i libucrt:input.obj
 0001:00060637       ??$ungettc_nolock@ABGPAU_iobuf@@@?$__crt_char_traits@_W@@SAGABG$$QAPAU_iobuf@@@Z 10061637 f i libucrt:input.obj
 0001:00060651       ??$ungettc_nolock@ABHPAU_iobuf@@@?$__crt_char_traits@D@@SAHABH$$QAPAU_iobuf@@@Z 10061651 f i libucrt:input.obj
 0001:00060669       ??$write_floating_point@M@?$input_processor@DV?$stream_input_adapter@D@__crt_stdio_input@@@__crt_stdio_input@@AAE_NABM@Z 10061669 f i libucrt:input.obj
 0001:0006069e       ??$write_floating_point@M@?$input_processor@DV?$string_input_adapter@D@__crt_stdio_input@@@__crt_stdio_input@@AAE_NABM@Z 1006169e f i libucrt:input.obj
 0001:000606d3       ??$write_floating_point@M@?$input_processor@_WV?$stream_input_adapter@_W@__crt_stdio_input@@@__crt_stdio_input@@AAE_NABM@Z 100616d3 f i libucrt:input.obj
 0001:00060708       ??$write_floating_point@M@?$input_processor@_WV?$string_input_adapter@_W@__crt_stdio_input@@@__crt_stdio_input@@AAE_NABM@Z 10061708 f i libucrt:input.obj
 0001:0006073d       ??$write_floating_point@N@?$input_processor@DV?$stream_input_adapter@D@__crt_stdio_input@@@__crt_stdio_input@@AAE_NABN@Z 1006173d f i libucrt:input.obj
 0001:00060778       ??$write_floating_point@N@?$input_processor@DV?$string_input_adapter@D@__crt_stdio_input@@@__crt_stdio_input@@AAE_NABN@Z 10061778 f i libucrt:input.obj
 0001:000607b3       ??$write_floating_point@N@?$input_processor@_WV?$stream_input_adapter@_W@__crt_stdio_input@@@__crt_stdio_input@@AAE_NABN@Z 100617b3 f i libucrt:input.obj
 0001:000607ee       ??$write_floating_point@N@?$input_processor@_WV?$string_input_adapter@_W@__crt_stdio_input@@@__crt_stdio_input@@AAE_NABN@Z 100617ee f i libucrt:input.obj
 0001:00060829       ??0<lambda_0b87716a0b73cdfba1cd37fcaaa20711>@@QAE@AAV?$input_adapter_character_source@V?$stream_input_adapter@D@__crt_stdio_input@@@__crt_strtox@@AADAA_K@Z 10061829 f i libucrt:input.obj
 0001:000608b9       ??0<lambda_448605b25275ab87d3c5d4aa7a38a0aa>@@QAE@AAV?$input_adapter_character_source@V?$string_input_adapter@_W@__crt_stdio_input@@@__crt_strtox@@AA_WAA_K@Z 100618b9 f i libucrt:input.obj
 0001:000608d5       ??0<lambda_46698efe93618fff5274d84d009d2be1>@@QAE@AAV?$input_adapter_character_source@V?$stream_input_adapter@_W@__crt_stdio_input@@@__crt_strtox@@AA_WAA_K@Z 100618d5 f i libucrt:input.obj
 0001:000608f1       ??0<lambda_5f3f4d49f9676d963a9a63518de6904a>@@QAE@AAV?$input_adapter_character_source@V?$stream_input_adapter@_W@__crt_stdio_input@@@__crt_strtox@@AA_WAA_K@Z 100618f1 f i libucrt:input.obj
 0001:0006090d       ??0<lambda_644f8ab42ed3fd1d660977a2364b3a7d>@@QAE@AAV?$input_adapter_character_source@V?$string_input_adapter@D@__crt_stdio_input@@@__crt_strtox@@AADAA_K@Z 1006190d f i libucrt:input.obj
 0001:0006093b       ??0<lambda_c7c3f778895f47e7f4eff38a8fef279a>@@QAE@AAV?$input_adapter_character_source@V?$stream_input_adapter@D@__crt_stdio_input@@@__crt_strtox@@AADAA_K@Z 1006193b f i libucrt:input.obj
 0001:00060957       ??0<lambda_cbb29514201643ebc3996c8b1c7ae90c>@@QAE@AAV?$input_adapter_character_source@V?$stream_input_adapter@_W@__crt_stdio_input@@@__crt_strtox@@AA_WAA_K@Z 10061957 f i libucrt:input.obj
 0001:00060985       ??0<lambda_e41f1170c8800e4a6fed1afad60fab6f>@@QAE@AAV?$input_adapter_character_source@V?$stream_input_adapter@D@__crt_stdio_input@@@__crt_strtox@@AADAA_K@Z 10061985 f i libucrt:input.obj
 0001:000609a1       ??0<lambda_e5165159ec566db3a71156c9b71536ca>@@QAE@AAV?$input_adapter_character_source@V?$string_input_adapter@_W@__crt_stdio_input@@@__crt_strtox@@AA_WAA_K@Z 100619a1 f i libucrt:input.obj
 0001:000609bd       ??0<lambda_f1fa4c266c18b246f3ed9c36247dab4f>@@QAE@AAV?$input_adapter_character_source@V?$string_input_adapter@D@__crt_stdio_input@@@__crt_strtox@@AADAA_K@Z 100619bd f i libucrt:input.obj
 0001:000609d9       ??0<lambda_f765c90ab33e8386abf09c0f079d37e9>@@QAE@AAV?$input_adapter_character_source@V?$string_input_adapter@D@__crt_stdio_input@@@__crt_strtox@@AADAA_K@Z 100619d9 f i libucrt:input.obj
 0001:000609f5       ??0<lambda_fd76cae15b6f790020ebaa7b78a868c2>@@QAE@AAV?$input_adapter_character_source@V?$string_input_adapter@_W@__crt_stdio_input@@@__crt_strtox@@AA_WAA_K@Z 100619f5 f i libucrt:input.obj
 0001:00060a11       ??0?$__crt_unique_heap_ptr@EU__crt_internal_free_policy@@@@QAE@QAE@Z 10061a11 f i libucrt:input.obj
 0001:00060a21       ??0?$format_string_parser@D@__crt_stdio_input@@QAE@_KQBE@Z 10061a21 f i libucrt:input.obj
 0001:00060a6b       ??0?$format_string_parser@_W@__crt_stdio_input@@QAE@_KQB_W@Z 10061a6b f i libucrt:input.obj
 0001:00060aa9       ??0?$input_adapter_character_source@V?$stream_input_adapter@D@__crt_stdio_input@@@__crt_strtox@@QAE@$$QAV01@@Z 10061aa9 f i libucrt:input.obj
 0001:00060ae6       ??0?$input_adapter_character_source@V?$stream_input_adapter@D@__crt_stdio_input@@@__crt_strtox@@QAE@QAV?$stream_input_adapter@D@__crt_stdio_input@@_KQA_N@Z 10061ae6 f i libucrt:input.obj
 0001:00060b17       ??0?$input_adapter_character_source@V?$stream_input_adapter@_W@__crt_stdio_input@@@__crt_strtox@@QAE@$$QAV01@@Z 10061b17 f i libucrt:input.obj
 0001:00060b54       ??0?$input_adapter_character_source@V?$stream_input_adapter@_W@__crt_stdio_input@@@__crt_strtox@@QAE@QAV?$stream_input_adapter@_W@__crt_stdio_input@@_KQA_N@Z 10061b54 f i libucrt:input.obj
 0001:00060b85       ??0?$input_adapter_character_source@V?$string_input_adapter@D@__crt_stdio_input@@@__crt_strtox@@QAE@$$QAV01@@Z 10061b85 f i libucrt:input.obj
 0001:00060bc2       ??0?$input_adapter_character_source@V?$string_input_adapter@D@__crt_stdio_input@@@__crt_strtox@@QAE@QAV?$string_input_adapter@D@__crt_stdio_input@@_KQA_N@Z 10061bc2 f i libucrt:input.obj
 0001:00060bf3       ??0?$input_adapter_character_source@V?$string_input_adapter@_W@__crt_stdio_input@@@__crt_strtox@@QAE@$$QAV01@@Z 10061bf3 f i libucrt:input.obj
 0001:00060c30       ??0?$input_adapter_character_source@V?$string_input_adapter@_W@__crt_stdio_input@@@__crt_strtox@@QAE@QAV?$string_input_adapter@_W@__crt_stdio_input@@_KQA_N@Z 10061c30 f i libucrt:input.obj
 0001:00060c61       ??0?$input_processor@DV?$stream_input_adapter@D@__crt_stdio_input@@@__crt_stdio_input@@QAE@ABV?$stream_input_adapter@D@1@_KQBDQAU__crt_locale_pointers@@QAD@Z 10061c61 f i libucrt:input.obj
 0001:00060caa       ??0?$input_processor@DV?$string_input_adapter@D@__crt_stdio_input@@@__crt_stdio_input@@QAE@ABV?$string_input_adapter@D@1@_KQBDQAU__crt_locale_pointers@@QAD@Z 10061caa f i libucrt:input.obj
 0001:00060cee       ??0?$input_processor@_WV?$stream_input_adapter@_W@__crt_stdio_input@@@__crt_stdio_input@@QAE@ABV?$stream_input_adapter@_W@1@_KQB_WQAU__crt_locale_pointers@@QAD@Z 10061cee f i libucrt:input.obj
 0001:00060d37       ??0?$input_processor@_WV?$string_input_adapter@_W@__crt_stdio_input@@@__crt_stdio_input@@QAE@ABV?$string_input_adapter@_W@1@_KQB_WQAU__crt_locale_pointers@@QAD@Z 10061d37 f i libucrt:input.obj
 0001:00060d7b       ??0?$scanset_buffer@E@__crt_stdio_input@@QAE@XZ 10061d7b f i libucrt:input.obj
 0001:00060d8d       ??0?$scanset_buffer@_W@__crt_stdio_input@@QAE@XZ 10061d8d f i libucrt:input.obj
 0001:00060d93       ??0?$scanset_storage@$00@__crt_stdio_input@@QAE@XZ 10061d93 f i libucrt:input.obj
 0001:00060da5       ??0?$scanset_storage@$01@__crt_stdio_input@@QAE@XZ 10061da5 f i libucrt:input.obj
 0001:00060dab       ??0?$stream_input_adapter@D@__crt_stdio_input@@QAE@QAU_iobuf@@@Z 10061dab f i libucrt:input.obj
 0001:00060dbf       ??0?$stream_input_adapter@_W@__crt_stdio_input@@QAE@QAU_iobuf@@@Z 10061dbf f i libucrt:input.obj
 0001:00060dd3       ??0?$string_input_adapter@D@__crt_stdio_input@@QAE@QBDI@Z 10061dd3 f i libucrt:input.obj
 0001:00060dee       ??0?$string_input_adapter@_W@__crt_stdio_input@@QAE@QB_WI@Z 10061dee f i libucrt:input.obj
 0001:00060e0a       ??0_LocaleUpdate@@QAE@QAU__crt_locale_pointers@@@Z 10061e0a f i libucrt:input.obj
 0001:00060e90       ??0big_integer@__crt_strtox@@QAE@ABU01@@Z 10061e90 f i libucrt:input.obj
 0001:00060ed0       ??0big_integer@__crt_strtox@@QAE@XZ 10061ed0 f i libucrt:input.obj
 0001:00060ed9       ??0floating_point_value@__crt_strtox@@QAE@QAM@Z 10061ed9 f i libucrt:input.obj
 0001:00060eed       ??0floating_point_value@__crt_strtox@@QAE@QAN@Z 10061eed f i libucrt:input.obj
 0001:00060f01       ??1?$__crt_unique_heap_ptr@EU__crt_internal_free_policy@@@@QAE@XZ 10061f01 f i libucrt:input.obj
 0001:00060f13       ??1?$format_string_parser@_W@__crt_stdio_input@@QAE@XZ 10061f13 f i libucrt:input.obj
 0001:00060f27       ??1?$input_adapter_character_source@V?$stream_input_adapter@D@__crt_stdio_input@@@__crt_strtox@@QAE@XZ 10061f27 f i libucrt:input.obj
 0001:00060f39       ??1?$input_adapter_character_source@V?$stream_input_adapter@_W@__crt_stdio_input@@@__crt_strtox@@QAE@XZ 10061f39 f i libucrt:input.obj
 0001:00060f4b       ??1?$input_adapter_character_source@V?$string_input_adapter@D@__crt_stdio_input@@@__crt_strtox@@QAE@XZ 10061f4b f i libucrt:input.obj
 0001:00060f5d       ??1?$input_adapter_character_source@V?$string_input_adapter@_W@__crt_stdio_input@@@__crt_strtox@@QAE@XZ 10061f5d f i libucrt:input.obj
 0001:00060f6f       ??1?$input_processor@_WV?$stream_input_adapter@_W@__crt_stdio_input@@@__crt_stdio_input@@QAE@XZ 10061f6f f i libucrt:input.obj
 0001:00060f83       ??1?$input_processor@_WV?$string_input_adapter@_W@__crt_stdio_input@@@__crt_stdio_input@@QAE@XZ 10061f83 f i libucrt:input.obj
 0001:00060f97       ??1?$scanset_buffer@_W@__crt_stdio_input@@QAE@XZ 10061f97 f i libucrt:input.obj
 0001:00060fa9       ??1?$scanset_storage@$01@__crt_stdio_input@@QAE@XZ 10061fa9 f i libucrt:input.obj
 0001:00060fbb       ??1_LocaleUpdate@@QAE@XZ   10061fbb f i libucrt:input.obj
 0001:00060fcb       ??4?$__crt_unique_heap_ptr@EU__crt_internal_free_policy@@@@QAEAAV0@$$QAV0@@Z 10061fcb f i libucrt:input.obj
 0001:00060ff0       ??4big_integer@__crt_strtox@@QAEAAU01@ABU01@@Z 10061ff0 f i libucrt:input.obj
 0001:00061021       ??B?$__crt_unique_heap_ptr@EU__crt_internal_free_policy@@@@QBE_NXZ 10062021 f i libucrt:input.obj
 0001:00061030       ??M__crt_strtox@@YA_NABUbig_integer@0@0@Z 10062030 f i libucrt:input.obj
 0001:00061086       ??R<lambda_0b87716a0b73cdfba1cd37fcaaa20711>@@QBE@XZ 10062086 f i libucrt:input.obj
 0001:000611b3       ??R<lambda_448605b25275ab87d3c5d4aa7a38a0aa>@@QBE@XZ 100621b3 f i libucrt:input.obj
 0001:000611df       ??R<lambda_46698efe93618fff5274d84d009d2be1>@@QBE@XZ 100621df f i libucrt:input.obj
 0001:0006120b       ??R<lambda_5f3f4d49f9676d963a9a63518de6904a>@@QBE@XZ 1006220b f i libucrt:input.obj
 0001:00061237       ??R<lambda_644f8ab42ed3fd1d660977a2364b3a7d>@@QBE@XZ 10062237 f i libucrt:input.obj
 0001:0006126a       ??R<lambda_c7c3f778895f47e7f4eff38a8fef279a>@@QBE@XZ 1006226a f i libucrt:input.obj
 0001:00061294       ??R<lambda_cbb29514201643ebc3996c8b1c7ae90c>@@QBE@XZ 10062294 f i libucrt:input.obj
 0001:000612c9       ??R<lambda_e41f1170c8800e4a6fed1afad60fab6f>@@QBE@XZ 100622c9 f i libucrt:input.obj
 0001:000612f3       ??R<lambda_e5165159ec566db3a71156c9b71536ca>@@QBE@XZ 100622f3 f i libucrt:input.obj
 0001:0006131f       ??R<lambda_f1fa4c266c18b246f3ed9c36247dab4f>@@QBE@XZ 1006231f f i libucrt:input.obj
 0001:00061349       ??R<lambda_f765c90ab33e8386abf09c0f079d37e9>@@QBE@XZ 10062349 f i libucrt:input.obj
 0001:00061373       ??R<lambda_fd76cae15b6f790020ebaa7b78a868c2>@@QBE@XZ 10062373 f i libucrt:input.obj
 0001:0006139f       ?GetLocaleT@_LocaleUpdate@@QAEPAU__crt_locale_pointers@@XZ 1006239f f i libucrt:input.obj
 0001:000613a3       ?accumulate_decimal_digits_into_big_integer@__crt_strtox@@YAXQBE0AAUbig_integer@1@@Z 100623a3 f i libucrt:input.obj
 0001:00061a90       ?add@__crt_strtox@@YA_NAAUbig_integer@1@I@Z 10062a90 f i libucrt:input.obj
 0001:00061b10       ?add_carry@__crt_strtox@@YAIAAIII@Z 10062b10 f i libucrt:input.obj
 0001:00061b30       ?add_multiply_carry@__crt_strtox@@YAIAAIIII@Z 10062b30 f i libucrt:input.obj
 0001:00061b54       ?advance@?$format_string_parser@D@__crt_stdio_input@@QAE_NXZ 10062b54 f i libucrt:input.obj
 0001:00061c6c       ?advance@?$format_string_parser@_W@__crt_stdio_input@@QAE_NXZ 10062c6c f i libucrt:input.obj
 0001:00061d70       ?as_double@floating_point_value@__crt_strtox@@QBEAANXZ 10062d70 f i libucrt:input.obj
 0001:00061d95       ?as_float@floating_point_value@__crt_strtox@@QBEAAMXZ 10062d95 f i libucrt:input.obj
 0001:00061dba       ?assemble_floating_point_infinity@__crt_strtox@@YAX_NABVfloating_point_value@1@@Z 10062dba f i libucrt:input.obj
 0001:00061dfa       ?assemble_floating_point_value@__crt_strtox@@YA?AW4SLD_STATUS@@_KH_N1ABVfloating_point_value@1@@Z 10062dfa f i libucrt:input.obj
 0001:00062153       ?assemble_floating_point_value_from_big_integer@__crt_strtox@@YA?AW4SLD_STATUS@@ABUbig_integer@1@I_N1ABVfloating_point_value@1@@Z 10063153 f i libucrt:input.obj
 0001:000622e5       ?assemble_floating_point_zero@__crt_strtox@@YAX_NABVfloating_point_value@1@@Z 100632e5 f i libucrt:input.obj
 0001:00062320       ?bit_scan_reverse@__crt_strtox@@YAIABUbig_integer@1@@Z 10063320 f i libucrt:input.obj
 0001:00062360       ?bit_scan_reverse@__crt_strtox@@YAII@Z 10063360 f i libucrt:input.obj
 0001:00062380       ?bit_scan_reverse@__crt_strtox@@YAI_K@Z 10063380 f i libucrt:input.obj
 0001:000623c7       ?characters_read@?$stream_input_adapter@D@__crt_stdio_input@@QBEIXZ 100633c7 f i libucrt:input.obj
 0001:000623cb       ?characters_read@?$stream_input_adapter@_W@__crt_stdio_input@@QBEIXZ 100633cb f i libucrt:input.obj
 0001:000623cf       ?characters_read@?$string_input_adapter@D@__crt_stdio_input@@QBEIXZ 100633cf f i libucrt:input.obj
 0001:000623d5       ?characters_read@?$string_input_adapter@_W@__crt_stdio_input@@QBEIXZ 100633d5 f i libucrt:input.obj
 0001:000623dd       ?convert_decimal_string_to_floating_type_common@__crt_strtox@@YA?AW4SLD_STATUS@@ABUfloating_point_string@1@ABVfloating_point_value@1@@Z 100633dd f i libucrt:input.obj
 0001:00064183       ?convert_hexadecimal_string_to_floating_type_common@__crt_strtox@@YA?AW4SLD_STATUS@@ABUfloating_point_string@1@ABVfloating_point_value@1@@Z 10065183 f i libucrt:input.obj
 0001:00064230       ?count_sequential_high_zeroes@__crt_strtox@@YAII@Z 10065230 f i libucrt:input.obj
 0001:0006424b       ?data@?$scanset_storage@$00@__crt_stdio_input@@QBEPAEXZ 1006524b f i libucrt:input.obj
 0001:0006424e       ?data@?$scanset_storage@$01@__crt_stdio_input@@QBEPAEXZ 1006524e f i libucrt:input.obj
 0001:00064286       ?denormal_mantissa_mask@floating_point_value@__crt_strtox@@QBE_KXZ 10065286 f i libucrt:input.obj
 0001:000642a0       ?divide@__crt_strtox@@YA_KAAUbig_integer@1@ABU21@@Z 100652a0 f i libucrt:input.obj
 0001:0006474b       ?error_code@?$format_string_parser@D@__crt_stdio_input@@QBEHXZ 1006574b f i libucrt:input.obj
 0001:0006474f       ?error_code@?$format_string_parser@_W@__crt_stdio_input@@QBEHXZ 1006574f f i libucrt:input.obj
 0001:00064753       ?exponent_bias@floating_point_value@__crt_strtox@@QBEHXZ 10065753 f i libucrt:input.obj
 0001:00064765       ?get@?$__crt_unique_heap_ptr@EU__crt_internal_free_policy@@@@QBEPAEXZ 10065765 f i libucrt:input.obj
 0001:00064768       ?get@?$input_adapter_character_source@V?$stream_input_adapter@D@__crt_stdio_input@@@__crt_strtox@@QAEDXZ 10065768 f i libucrt:input.obj
 0001:000647a7       ?get@?$input_adapter_character_source@V?$stream_input_adapter@_W@__crt_stdio_input@@@__crt_strtox@@QAE_WXZ 100657a7 f i libucrt:input.obj
 0001:000647e6       ?get@?$input_adapter_character_source@V?$string_input_adapter@D@__crt_stdio_input@@@__crt_strtox@@QAEDXZ 100657e6 f i libucrt:input.obj
 0001:0006481d       ?get@?$input_adapter_character_source@V?$string_input_adapter@_W@__crt_stdio_input@@@__crt_strtox@@QAE_WXZ 1006581d f i libucrt:input.obj
 0001:0006485c       ?get@?$stream_input_adapter@D@__crt_stdio_input@@QAEHXZ 1006585c f i libucrt:input.obj
 0001:00064873       ?get@?$stream_input_adapter@_W@__crt_stdio_input@@QAEGXZ 10065873 f i libucrt:input.obj
 0001:00064892       ?get@?$string_input_adapter@D@__crt_stdio_input@@QAEHXZ 10065892 f i libucrt:input.obj
 0001:000648a8       ?get@?$string_input_adapter@_W@__crt_stdio_input@@QAEGXZ 100658a8 f i libucrt:input.obj
 0001:000648c2       ?invert@?$scanset_buffer@E@__crt_stdio_input@@QAEXXZ 100658c2 f i libucrt:input.obj
 0001:000648cf       ?invert@?$scanset_buffer@_W@__crt_stdio_input@@QAEXXZ 100658cf f i libucrt:input.obj
 0001:000648e4       ?is_character_allowed_in_string@?$input_processor@DV?$stream_input_adapter@D@__crt_stdio_input@@@__crt_stdio_input@@ABE_NW4conversion_mode@2@H@Z 100658e4 f i libucrt:input.obj
 0001:00064934       ?is_character_allowed_in_string@?$input_processor@DV?$string_input_adapter@D@__crt_stdio_input@@@__crt_stdio_input@@ABE_NW4conversion_mode@2@H@Z 10065934 f i libucrt:input.obj
 0001:00064984       ?is_character_allowed_in_string@?$input_processor@_WV?$stream_input_adapter@_W@__crt_stdio_input@@@__crt_stdio_input@@ABE_NW4conversion_mode@2@G@Z 10065984 f i libucrt:input.obj
 0001:000649ce       ?is_character_allowed_in_string@?$input_processor@_WV?$string_input_adapter@_W@__crt_stdio_input@@@__crt_stdio_input@@ABE_NW4conversion_mode@2@G@Z 100659ce f i libucrt:input.obj
 0001:00064a18       ?is_digit_or_nondigit@__crt_strtox@@YA_NH@Z 10065a18 f i libucrt:input.obj
 0001:00064a44       ?is_double@floating_point_value@__crt_strtox@@QBE_NXZ 10065a44 f i libucrt:input.obj
 0001:00064a48       ?is_length_valid@__crt_stdio_input@@YA_NW4conversion_mode@1@W4length_modifier@1@@Z 10065a48 f i libucrt:input.obj
 0001:00064a61       ?is_usable@?$scanset_buffer@E@__crt_stdio_input@@QAE_NXZ 10065a61 f i libucrt:input.obj
 0001:00064a67       ?is_usable@?$scanset_buffer@_W@__crt_stdio_input@@QAE_NXZ 10065a67 f i libucrt:input.obj
 0001:00064a72       ?is_valid@?$__crt_unique_heap_ptr@EU__crt_internal_free_policy@@@@QBE_NXZ 10065a72 f i libucrt:input.obj
 0001:00064a79       ?kind@?$format_string_parser@D@__crt_stdio_input@@QBE?AW4format_directive_kind@2@XZ 10065a79 f i libucrt:input.obj
 0001:00064a7d       ?kind@?$format_string_parser@_W@__crt_stdio_input@@QBE?AW4format_directive_kind@2@XZ 10065a7d f i libucrt:input.obj
 0001:00064a81       ?length@?$format_string_parser@D@__crt_stdio_input@@QBEIXZ 10065a81 f i libucrt:input.obj
 0001:00064acf       ?length@?$format_string_parser@_W@__crt_stdio_input@@QBEIXZ 10065acf f i libucrt:input.obj
 0001:00064b1d       ?literal_character_lead@?$format_string_parser@D@__crt_stdio_input@@QBEEXZ 10065b1d f i libucrt:input.obj
 0001:00064b21       ?literal_character_lead@?$format_string_parser@_W@__crt_stdio_input@@QBE_WXZ 10065b21 f i libucrt:input.obj
 0001:00064b26       ?literal_character_trail@?$format_string_parser@D@__crt_stdio_input@@QBEEXZ 10065b26 f i libucrt:input.obj
 0001:00064b30       ?make_big_integer@__crt_strtox@@YA?AUbig_integer@1@_K@Z 10065b30 f i libucrt:input.obj
 0001:00064b50       ?mantissa_bits@floating_point_value@__crt_strtox@@QBEHXZ 10065b50 f i libucrt:input.obj
 0001:00064b60       ?maximum_binary_exponent@floating_point_value@__crt_strtox@@QBEHXZ 10065b60 f i libucrt:input.obj
 0001:00064b72       ?minimum_binary_exponent@floating_point_value@__crt_strtox@@QBEHXZ 10065b72 f i libucrt:input.obj
 0001:00064b84       ?mode@?$format_string_parser@D@__crt_stdio_input@@QBE?AW4conversion_mode@2@XZ 10065b84 f i libucrt:input.obj
 0001:00064b88       ?mode@?$format_string_parser@_W@__crt_stdio_input@@QBE?AW4conversion_mode@2@XZ 10065b88 f i libucrt:input.obj
 0001:00064b90       ?multiply@__crt_strtox@@YA_NAAUbig_integer@1@ABU21@@Z 10065b90 f i libucrt:input.obj
 0001:00064ef0       ?multiply@__crt_strtox@@YA_NAAUbig_integer@1@I@Z 10065ef0 f i libucrt:input.obj
 0001:00064fc0       ?multiply_64_32@__crt_strtox@@YA_K_KI@Z 10065fc0 f i libucrt:input.obj
 0001:00064fe0       ?multiply_by_power_of_ten@__crt_strtox@@YA_NAAUbig_integer@1@I@Z 10065fe0 f i libucrt:input.obj
 0001:00065570       ?multiply_core@__crt_strtox@@YAIQAIII@Z 10066570 f i libucrt:input.obj
 0001:000655ae       ?normal_mantissa_mask@floating_point_value@__crt_strtox@@QBE_KXZ 100665ae f i libucrt:input.obj
 0001:000655c5       ?process@?$input_processor@DV?$stream_input_adapter@D@__crt_stdio_input@@@__crt_stdio_input@@QAEHXZ 100665c5 f i libucrt:input.obj
 0001:00065650       ?process@?$input_processor@DV?$string_input_adapter@D@__crt_stdio_input@@@__crt_stdio_input@@QAEHXZ 10066650 f i libucrt:input.obj
 0001:000656d4       ?process@?$input_processor@_WV?$stream_input_adapter@_W@__crt_stdio_input@@@__crt_stdio_input@@QAEHXZ 100666d4 f i libucrt:input.obj
 0001:00065761       ?process@?$input_processor@_WV?$string_input_adapter@_W@__crt_stdio_input@@@__crt_stdio_input@@QAEHXZ 10066761 f i libucrt:input.obj
 0001:000657ee       ?process_character_count_specifier@?$input_processor@DV?$stream_input_adapter@D@__crt_stdio_input@@@__crt_stdio_input@@AAE_NXZ 100667ee f i libucrt:input.obj
 0001:00065802       ?process_character_count_specifier@?$input_processor@DV?$string_input_adapter@D@__crt_stdio_input@@@__crt_stdio_input@@AAE_NXZ 10066802 f i libucrt:input.obj
 0001:0006581a       ?process_character_count_specifier@?$input_processor@_WV?$stream_input_adapter@_W@__crt_stdio_input@@@__crt_stdio_input@@AAE_NXZ 1006681a f i libucrt:input.obj
 0001:0006582e       ?process_character_count_specifier@?$input_processor@_WV?$string_input_adapter@_W@__crt_stdio_input@@@__crt_stdio_input@@AAE_NXZ 1006682e f i libucrt:input.obj
 0001:00065848       ?process_conversion_specifier@?$input_processor@DV?$stream_input_adapter@D@__crt_stdio_input@@@__crt_stdio_input@@AAE_NXZ 10066848 f i libucrt:input.obj
 0001:000658bc       ?process_conversion_specifier@?$input_processor@DV?$string_input_adapter@D@__crt_stdio_input@@@__crt_stdio_input@@AAE_NXZ 100668bc f i libucrt:input.obj
 0001:00065930       ?process_conversion_specifier@?$input_processor@_WV?$stream_input_adapter@_W@__crt_stdio_input@@@__crt_stdio_input@@AAE_NXZ 10066930 f i libucrt:input.obj
 0001:000659a4       ?process_conversion_specifier@?$input_processor@_WV?$string_input_adapter@_W@__crt_stdio_input@@@__crt_stdio_input@@AAE_NXZ 100669a4 f i libucrt:input.obj
 0001:00065a18       ?process_floating_point_specifier@?$input_processor@DV?$stream_input_adapter@D@__crt_stdio_input@@@__crt_stdio_input@@AAE_NXZ 10066a18 f i libucrt:input.obj
 0001:00065a48       ?process_floating_point_specifier@?$input_processor@DV?$string_input_adapter@D@__crt_stdio_input@@@__crt_stdio_input@@AAE_NXZ 10066a48 f i libucrt:input.obj
 0001:00065a78       ?process_floating_point_specifier@?$input_processor@_WV?$stream_input_adapter@_W@__crt_stdio_input@@@__crt_stdio_input@@AAE_NXZ 10066a78 f i libucrt:input.obj
 0001:00065aa8       ?process_floating_point_specifier@?$input_processor@_WV?$string_input_adapter@_W@__crt_stdio_input@@@__crt_stdio_input@@AAE_NXZ 10066aa8 f i libucrt:input.obj
 0001:00065ad8       ?process_integer_specifier@?$input_processor@DV?$stream_input_adapter@D@__crt_stdio_input@@@__crt_stdio_input@@AAE_NI_N@Z 10066ad8 f i libucrt:input.obj
 0001:00065b3d       ?process_integer_specifier@?$input_processor@DV?$string_input_adapter@D@__crt_stdio_input@@@__crt_stdio_input@@AAE_NI_N@Z 10066b3d f i libucrt:input.obj
 0001:00065ba2       ?process_integer_specifier@?$input_processor@_WV?$stream_input_adapter@_W@__crt_stdio_input@@@__crt_stdio_input@@AAE_NI_N@Z 10066ba2 f i libucrt:input.obj
 0001:00065c07       ?process_integer_specifier@?$input_processor@_WV?$string_input_adapter@_W@__crt_stdio_input@@@__crt_stdio_input@@AAE_NI_N@Z 10066c07 f i libucrt:input.obj
 0001:00065c6c       ?process_literal_character@?$input_processor@DV?$stream_input_adapter@D@__crt_stdio_input@@@__crt_stdio_input@@AAE_NXZ 10066c6c f i libucrt:input.obj
 0001:00065ca2       ?process_literal_character@?$input_processor@DV?$string_input_adapter@D@__crt_stdio_input@@@__crt_stdio_input@@AAE_NXZ 10066ca2 f i libucrt:input.obj
 0001:00065cd8       ?process_literal_character@?$input_processor@_WV?$stream_input_adapter@_W@__crt_stdio_input@@@__crt_stdio_input@@AAE_NXZ 10066cd8 f i libucrt:input.obj
 0001:00065d0d       ?process_literal_character@?$input_processor@_WV?$string_input_adapter@_W@__crt_stdio_input@@@__crt_stdio_input@@AAE_NXZ 10066d0d f i libucrt:input.obj
 0001:00065d42       ?process_literal_character_tchar@?$input_processor@DV?$stream_input_adapter@D@__crt_stdio_input@@@__crt_stdio_input@@AAE_ND@Z 10066d42 f i libucrt:input.obj
 0001:00065d99       ?process_literal_character_tchar@?$input_processor@DV?$string_input_adapter@D@__crt_stdio_input@@@__crt_stdio_input@@AAE_ND@Z 10066d99 f i libucrt:input.obj
 0001:00065de7       ?process_literal_character_tchar@?$input_processor@_WV?$stream_input_adapter@_W@__crt_stdio_input@@@__crt_stdio_input@@AAE_N_W@Z 10066de7 f i libucrt:input.obj
 0001:00065dec       ?process_literal_character_tchar@?$input_processor@_WV?$string_input_adapter@_W@__crt_stdio_input@@@__crt_stdio_input@@AAE_N_W@Z 10066dec f i libucrt:input.obj
 0001:00065df1       ?process_state@?$input_processor@DV?$stream_input_adapter@D@__crt_stdio_input@@@__crt_stdio_input@@AAE_NXZ 10066df1 f i libucrt:input.obj
 0001:00065e33       ?process_state@?$input_processor@DV?$string_input_adapter@D@__crt_stdio_input@@@__crt_stdio_input@@AAE_NXZ 10066e33 f i libucrt:input.obj
 0001:00065e75       ?process_state@?$input_processor@_WV?$stream_input_adapter@_W@__crt_stdio_input@@@__crt_stdio_input@@AAE_NXZ 10066e75 f i libucrt:input.obj
 0001:00065eb7       ?process_state@?$input_processor@_WV?$string_input_adapter@_W@__crt_stdio_input@@@__crt_stdio_input@@AAE_NXZ 10066eb7 f i libucrt:input.obj
 0001:00065ef9       ?process_string_specifier@?$input_processor@DV?$stream_input_adapter@D@__crt_stdio_input@@@__crt_stdio_input@@AAE_NW4conversion_mode@2@@Z 10066ef9 f i libucrt:input.obj
 0001:00065f41       ?process_string_specifier@?$input_processor@DV?$string_input_adapter@D@__crt_stdio_input@@@__crt_stdio_input@@AAE_NW4conversion_mode@2@@Z 10066f41 f i libucrt:input.obj
 0001:00065f89       ?process_string_specifier@?$input_processor@_WV?$stream_input_adapter@_W@__crt_stdio_input@@@__crt_stdio_input@@AAE_NW4conversion_mode@2@@Z 10066f89 f i libucrt:input.obj
 0001:00065fd1       ?process_string_specifier@?$input_processor@_WV?$string_input_adapter@_W@__crt_stdio_input@@@__crt_stdio_input@@AAE_NW4conversion_mode@2@@Z 10066fd1 f i libucrt:input.obj
 0001:00066019       ?process_whitespace@?$input_processor@DV?$stream_input_adapter@D@__crt_stdio_input@@@__crt_stdio_input@@AAE_NXZ 10067019 f i libucrt:input.obj
 0001:00066036       ?process_whitespace@?$input_processor@DV?$string_input_adapter@D@__crt_stdio_input@@@__crt_stdio_input@@AAE_NXZ 10067036 f i libucrt:input.obj
 0001:00066053       ?process_whitespace@?$input_processor@_WV?$stream_input_adapter@_W@__crt_stdio_input@@@__crt_stdio_input@@AAE_NXZ 10067053 f i libucrt:input.obj
 0001:00066073       ?process_whitespace@?$input_processor@_WV?$string_input_adapter@_W@__crt_stdio_input@@@__crt_stdio_input@@AAE_NXZ 10067073 f i libucrt:input.obj
 0001:00066093       ?release@?$__crt_unique_heap_ptr@EU__crt_internal_free_policy@@@@QAEXXZ 10067093 f i libucrt:input.obj
 0001:000660a5       ?reset@?$scanset_buffer@E@__crt_stdio_input@@QAEXXZ 100670a5 f i libucrt:input.obj
 0001:000660b7       ?reset@?$scanset_buffer@_W@__crt_stdio_input@@QAEXXZ 100670b7 f i libucrt:input.obj
 0001:000660d1       ?reset_token_state@?$format_string_parser@D@__crt_stdio_input@@AAEXXZ 100670d1 f i libucrt:input.obj
 0001:000660ed       ?reset_token_state@?$format_string_parser@_W@__crt_stdio_input@@AAEXXZ 100670ed f i libucrt:input.obj
 0001:0006610a       ?reset_token_state_for_error@?$format_string_parser@D@__crt_stdio_input@@AAEXH@Z 1006710a f i libucrt:input.obj
 0001:00066134       ?reset_token_state_for_error@?$format_string_parser@_W@__crt_stdio_input@@AAEXH@Z 10067134 f i libucrt:input.obj
 0001:0006615f       ?restore_state@?$input_adapter_character_source@V?$stream_input_adapter@D@__crt_stdio_input@@@__crt_strtox@@QAE_N_K@Z 1006715f f i libucrt:input.obj
 0001:00066184       ?restore_state@?$input_adapter_character_source@V?$stream_input_adapter@_W@__crt_stdio_input@@@__crt_strtox@@QAE_N_K@Z 10067184 f i libucrt:input.obj
 0001:000661a9       ?restore_state@?$input_adapter_character_source@V?$string_input_adapter@D@__crt_stdio_input@@@__crt_strtox@@QAE_N_K@Z 100671a9 f i libucrt:input.obj
 0001:000661ce       ?restore_state@?$input_adapter_character_source@V?$string_input_adapter@_W@__crt_stdio_input@@@__crt_strtox@@QAE_N_K@Z 100671ce f i libucrt:input.obj
 0001:000661f3       ?right_shift_with_rounding@__crt_strtox@@YA_K_N_KI0@Z 100671f3 f i libucrt:input.obj
 0001:000662de       ?save_state@?$input_adapter_character_source@V?$stream_input_adapter@D@__crt_stdio_input@@@__crt_strtox@@QBE_KXZ 100672de f i libucrt:input.obj
 0001:000662e5       ?save_state@?$input_adapter_character_source@V?$stream_input_adapter@_W@__crt_stdio_input@@@__crt_strtox@@QBE_KXZ 100672e5 f i libucrt:input.obj
 0001:000662ec       ?save_state@?$input_adapter_character_source@V?$string_input_adapter@D@__crt_stdio_input@@@__crt_strtox@@QBE_KXZ 100672ec f i libucrt:input.obj
 0001:000662f3       ?save_state@?$input_adapter_character_source@V?$string_input_adapter@_W@__crt_stdio_input@@@__crt_strtox@@QBE_KXZ 100672f3 f i libucrt:input.obj
 0001:000662fa       ?scan_conversion_specifier@?$format_string_parser@D@__crt_stdio_input@@AAE_NXZ 100672fa f i libucrt:input.obj
 0001:00066476       ?scan_conversion_specifier@?$format_string_parser@_W@__crt_stdio_input@@AAE_NXZ 10067476 f i libucrt:input.obj
 0001:000665d6       ?scan_optional_assignment_suppressor@?$format_string_parser@D@__crt_stdio_input@@AAEXXZ 100675d6 f i libucrt:input.obj
 0001:000665e7       ?scan_optional_assignment_suppressor@?$format_string_parser@_W@__crt_stdio_input@@AAEXXZ 100675e7 f i libucrt:input.obj
 0001:000665fb       ?scan_optional_field_width@?$format_string_parser@D@__crt_stdio_input@@AAE_NXZ 100675fb f i libucrt:input.obj
 0001:0006668f       ?scan_optional_field_width@?$format_string_parser@_W@__crt_stdio_input@@AAE_NXZ 1006768f f i libucrt:input.obj
 0001:0006688a       ?scan_optional_length_modifier@?$format_string_parser@D@__crt_stdio_input@@AAEXXZ 1006788a f i libucrt:input.obj
 0001:000669aa       ?scan_optional_length_modifier@?$format_string_parser@_W@__crt_stdio_input@@AAEXXZ 100679aa f i libucrt:input.obj
 0001:00066ae3       ?scan_optional_literal_character_trail_bytes_tchar@?$format_string_parser@D@__crt_stdio_input@@AAE_ND@Z 10067ae3 f i libucrt:input.obj
 0001:00066b35       ?scan_optional_literal_character_trail_bytes_tchar@?$format_string_parser@_W@__crt_stdio_input@@AAE_N_W@Z 10067b35 f i libucrt:input.obj
 0001:00066b3a       ?scan_optional_wide_modifier@?$format_string_parser@D@__crt_stdio_input@@AAEXXZ 10067b3a f i libucrt:input.obj
 0001:00066b58       ?scan_optional_wide_modifier@?$format_string_parser@_W@__crt_stdio_input@@AAEXXZ 10067b58 f i libucrt:input.obj
 0001:00066b82       ?scan_scanset_range@?$format_string_parser@D@__crt_stdio_input@@AAE_NXZ 10067b82 f i libucrt:input.obj
 0001:00066cbb       ?scan_scanset_range@?$format_string_parser@_W@__crt_stdio_input@@AAE_NXZ 10067cbb f i libucrt:input.obj
 0001:00066df3       ?scanset@?$format_string_parser@D@__crt_stdio_input@@QBEABV?$scanset_buffer@E@2@XZ 10067df3 f i libucrt:input.obj
 0001:00066df7       ?scanset@?$format_string_parser@_W@__crt_stdio_input@@QBEABV?$scanset_buffer@_W@2@XZ 10067df7 f i libucrt:input.obj
 0001:00066dfb       ?secure_buffers@?$input_processor@DV?$stream_input_adapter@D@__crt_stdio_input@@@__crt_stdio_input@@ABE_NXZ 10067dfb f i libucrt:input.obj
 0001:00066e0c       ?secure_buffers@?$input_processor@DV?$string_input_adapter@D@__crt_stdio_input@@@__crt_stdio_input@@ABE_NXZ 10067e0c f i libucrt:input.obj
 0001:00066e1d       ?secure_buffers@?$input_processor@_WV?$stream_input_adapter@_W@__crt_stdio_input@@@__crt_stdio_input@@ABE_NXZ 10067e1d f i libucrt:input.obj
 0001:00066e2e       ?secure_buffers@?$input_processor@_WV?$string_input_adapter@_W@__crt_stdio_input@@@__crt_stdio_input@@ABE_NXZ 10067e2e f i libucrt:input.obj
 0001:00066e3f       ?set@?$scanset_buffer@E@__crt_stdio_input@@QAEXE@Z 10067e3f f i libucrt:input.obj
 0001:00066e6a       ?set@?$scanset_buffer@_W@__crt_stdio_input@@QAEX_W@Z 10067e6a f i libucrt:input.obj
 0001:00066e9a       ?set_wide_for_c_s_or_scanset@?$format_string_parser@D@__crt_stdio_input@@AAEXXZ 10067e9a f i libucrt:input.obj
 0001:00066ebb       ?set_wide_for_c_s_or_scanset@?$format_string_parser@_W@__crt_stdio_input@@AAEXXZ 10067ebb f i libucrt:input.obj
 0001:00066ee0       ?shift_left@__crt_strtox@@YA_NAAUbig_integer@1@I@Z 10067ee0 f i libucrt:input.obj
 0001:0006700f       ?should_default_to_wide@?$format_string_parser@D@__crt_stdio_input@@AAE_NE@Z 1006800f f i libucrt:input.obj
 0001:00067029       ?should_default_to_wide@?$format_string_parser@_W@__crt_stdio_input@@AAE_N_W@Z 10068029 f i libucrt:input.obj
 0001:0006705d       ?should_round_up@__crt_strtox@@YA_N_N000@Z 1006805d f i libucrt:input.obj
 0001:000670aa       ?size@?$scanset_storage@$00@__crt_stdio_input@@QBEIXZ 100680aa f i libucrt:input.obj
 0001:000670ae       ?size@?$scanset_storage@$01@__crt_stdio_input@@QBEIXZ 100680ae f i libucrt:input.obj
 0001:000670b4       ?suppress_assignment@?$format_string_parser@D@__crt_stdio_input@@QBE_NXZ 100680b4 f i libucrt:input.obj
 0001:000670b8       ?suppress_assignment@?$format_string_parser@_W@__crt_stdio_input@@QBE_NXZ 100680b8 f i libucrt:input.obj
 0001:000670bc       ?test@?$scanset_buffer@E@__crt_stdio_input@@QBE_NE@Z 100680bc f i libucrt:input.obj
 0001:000670e0       ?test@?$scanset_buffer@_W@__crt_stdio_input@@QBE_N_W@Z 100680e0 f i libucrt:input.obj
 0001:00067115       ?to_floating_point_length@__crt_stdio_input@@YAIW4length_modifier@1@@Z 10068115 f i libucrt:input.obj
 0001:00067138       ?to_integer_length@__crt_stdio_input@@YAIW4length_modifier@1@@Z 10068138 f i libucrt:input.obj
 0001:0006718b       ?unget@?$input_adapter_character_source@V?$stream_input_adapter@D@__crt_stdio_input@@@__crt_strtox@@QAEXD@Z 1006818b f i libucrt:input.obj
 0001:000671d2       ?unget@?$input_adapter_character_source@V?$stream_input_adapter@_W@__crt_stdio_input@@@__crt_strtox@@QAEX_W@Z 100681d2 f i libucrt:input.obj
 0001:0006721d       ?unget@?$input_adapter_character_source@V?$string_input_adapter@D@__crt_stdio_input@@@__crt_strtox@@QAEXD@Z 1006821d f i libucrt:input.obj
 0001:00067264       ?unget@?$input_adapter_character_source@V?$string_input_adapter@_W@__crt_stdio_input@@@__crt_strtox@@QAEX_W@Z 10068264 f i libucrt:input.obj
 0001:000672af       ?unget@?$stream_input_adapter@D@__crt_stdio_input@@QAEXH@Z 100682af f i libucrt:input.obj
 0001:000672cd       ?unget@?$stream_input_adapter@_W@__crt_stdio_input@@QAEXG@Z 100682cd f i libucrt:input.obj
 0001:000672f0       ?unget@?$string_input_adapter@D@__crt_stdio_input@@QAEXH@Z 100682f0 f i libucrt:input.obj
 0001:0006730f       ?unget@?$string_input_adapter@_W@__crt_stdio_input@@QAEXG@Z 1006830f f i libucrt:input.obj
 0001:00067335       ?validate@?$format_string_parser@D@__crt_stdio_input@@QBE_NXZ 10068335 f i libucrt:input.obj
 0001:00067351       ?validate@?$format_string_parser@_W@__crt_stdio_input@@QBE_NXZ 10068351 f i libucrt:input.obj
 0001:0006736d       ?validate@?$input_adapter_character_source@V?$stream_input_adapter@D@__crt_stdio_input@@@__crt_strtox@@QBE_NXZ 1006836d f i libucrt:input.obj
 0001:0006738e       ?validate@?$input_adapter_character_source@V?$stream_input_adapter@_W@__crt_stdio_input@@@__crt_strtox@@QBE_NXZ 1006838e f i libucrt:input.obj
 0001:000673af       ?validate@?$input_adapter_character_source@V?$string_input_adapter@D@__crt_stdio_input@@@__crt_strtox@@QBE_NXZ 100683af f i libucrt:input.obj
 0001:000673d0       ?validate@?$input_adapter_character_source@V?$string_input_adapter@_W@__crt_stdio_input@@@__crt_strtox@@QBE_NXZ 100683d0 f i libucrt:input.obj
 0001:000673f1       ?validate@?$stream_input_adapter@D@__crt_stdio_input@@QBE_NXZ 100683f1 f i libucrt:input.obj
 0001:00067412       ?validate@?$stream_input_adapter@_W@__crt_stdio_input@@QBE_NXZ 10068412 f i libucrt:input.obj
 0001:0006742d       ?validate@?$string_input_adapter@D@__crt_stdio_input@@QAE_NXZ 1006842d f i libucrt:input.obj
 0001:0006744f       ?validate@?$string_input_adapter@_W@__crt_stdio_input@@QAE_NXZ 1006844f f i libucrt:input.obj
 0001:00067471       ?width@?$format_string_parser@D@__crt_stdio_input@@QBE_KXZ 10068471 f i libucrt:input.obj
 0001:00067478       ?width@?$format_string_parser@_W@__crt_stdio_input@@QBE_KXZ 10068478 f i libucrt:input.obj
 0001:0006747f       ?write_character@?$input_processor@DV?$stream_input_adapter@D@__crt_stdio_input@@@__crt_stdio_input@@AAE_NQADIAAPADAAID@Z 1006847f f i libucrt:input.obj
 0001:0006749b       ?write_character@?$input_processor@DV?$stream_input_adapter@D@__crt_stdio_input@@@__crt_stdio_input@@AAE_NQA_WIAAPA_WAAID@Z 1006849b f i libucrt:input.obj
 0001:00067511       ?write_character@?$input_processor@DV?$string_input_adapter@D@__crt_stdio_input@@@__crt_stdio_input@@AAE_NQADIAAPADAAID@Z 10068511 f i libucrt:input.obj
 0001:0006752d       ?write_character@?$input_processor@DV?$string_input_adapter@D@__crt_stdio_input@@@__crt_stdio_input@@AAE_NQA_WIAAPA_WAAID@Z 1006852d f i libucrt:input.obj
 0001:0006759a       ?write_character@?$input_processor@_WV?$stream_input_adapter@_W@__crt_stdio_input@@@__crt_stdio_input@@AAE_NQADIAAPADAAI_W@Z 1006859a f i libucrt:input.obj
 0001:00067620       ?write_character@?$input_processor@_WV?$stream_input_adapter@_W@__crt_stdio_input@@@__crt_stdio_input@@AAE_NQA_WIAAPA_WAAI_W@Z 10068620 f i libucrt:input.obj
 0001:0006763f       ?write_character@?$input_processor@_WV?$string_input_adapter@_W@__crt_stdio_input@@@__crt_stdio_input@@AAE_NQADIAAPADAAI_W@Z 1006863f f i libucrt:input.obj
 0001:000676c5       ?write_character@?$input_processor@_WV?$string_input_adapter@_W@__crt_stdio_input@@@__crt_stdio_input@@AAE_NQA_WIAAPA_WAAI_W@Z 100686c5 f i libucrt:input.obj
 0001:000676e4       ?write_integer@?$input_processor@DV?$stream_input_adapter@D@__crt_stdio_input@@@__crt_stdio_input@@AAE_N_K@Z 100686e4 f i libucrt:input.obj
 0001:00067753       ?write_integer@?$input_processor@DV?$string_input_adapter@D@__crt_stdio_input@@@__crt_stdio_input@@AAE_N_K@Z 10068753 f i libucrt:input.obj
 0001:000677c2       ?write_integer@?$input_processor@_WV?$stream_input_adapter@_W@__crt_stdio_input@@@__crt_stdio_input@@AAE_N_K@Z 100687c2 f i libucrt:input.obj
 0001:00067831       ?write_integer@?$input_processor@_WV?$string_input_adapter@_W@__crt_stdio_input@@@__crt_stdio_input@@AAE_N_K@Z 10068831 f i libucrt:input.obj
 0001:000678a0       ___stdio_common_vfscanf    100688a0 f   libucrt:input.obj
 0001:00067925       ___stdio_common_vfwscanf   10068925 f   libucrt:input.obj
 0001:000679aa       ___stdio_common_vsscanf    100689aa f   libucrt:input.obj
 0001:000679ce       ___stdio_common_vswscanf   100689ce f   libucrt:input.obj
 0001:000679f2       __invoke_watson_if_oneof   100689f2 f i libucrt:input.obj
 0001:00067c62       ??$?R_W@__crt_public_free_policy@@QBEXQB_W@Z 10068c62 f i libucrt:stat.obj
 0001:00067c74       ??$__acrt_convert_wcs_mbs_cp@D_WV<lambda_62f6974d9771e494a5ea317cc32e971c>@@U__crt_win32_buffer_internal_dynamic_resizing@@@@YAHQBDAAV?$__crt_win32_buffer@_WU__crt_win32_buffer_internal_dynamic_resizing@@@@ABV<lambda_62f6974d9771e494a5ea317cc32e971c>@@I@Z 10068c74 f i libucrt:stat.obj
 0001:00067dbe       ??$__acrt_mbs_to_wcs_cp@U__crt_win32_buffer_internal_dynamic_resizing@@@@YAHQBDAAV?$__crt_win32_buffer@_WU__crt_win32_buffer_internal_dynamic_resizing@@@@I@Z 10068dbe f i libucrt:stat.obj
 0001:00068fd0       ??$loctotime@AAGAAGAAGAAGAAGAAGH@?$__crt_integer_traits@J@@SAJAAG00000$$QAH@Z 10069fd0 f i libucrt:stat.obj
 0001:0006900e       ??$loctotime@AAGAAGAAGAAGAAGAAGH@?$__crt_integer_traits@_J@@SA_JAAG00000$$QAH@Z 1006a00e f i libucrt:stat.obj
 0001:0006904c       ??$loctotime@HHHHHHH@?$__crt_integer_traits@J@@SAJ$$QAH000000@Z 1006a04c f i libucrt:stat.obj
 0001:0006907e       ??$loctotime@HHHHHHH@?$__crt_integer_traits@_J@@SA_J$$QAH000000@Z 1006a07e f i libucrt:stat.obj
 0001:00069198       ??0?$__crt_unique_handle_t@U__crt_handle_traits@@@@QAE@QAX@Z 1006a198 f i libucrt:stat.obj
 0001:000691a8       ??0?$__crt_unique_heap_ptr@_WU__crt_public_free_policy@@@@QAE@QA_W@Z 1006a1a8 f i libucrt:stat.obj
 0001:000691b8       ??0?$__crt_win32_buffer@_WU__crt_win32_buffer_internal_dynamic_resizing@@@@QAE@XZ 1006a1b8 f i libucrt:stat.obj
 0001:000691ce       ??1?$__crt_unique_handle_t@U__crt_handle_traits@@@@QAE@XZ 1006a1ce f i libucrt:stat.obj
 0001:000691e5       ??1?$__crt_unique_heap_ptr@_WU__crt_public_free_policy@@@@QAE@XZ 1006a1e5 f i libucrt:stat.obj
 0001:000691f7       ??1?$__crt_win32_buffer@_WU__crt_win32_buffer_internal_dynamic_resizing@@@@QAE@XZ 1006a1f7 f i libucrt:stat.obj
 0001:000691fc       ??B?$__crt_unique_handle_t@U__crt_handle_traits@@@@QBE_NXZ 1006a1fc f i libucrt:stat.obj
 0001:00069392       ??R<lambda_62f6974d9771e494a5ea317cc32e971c>@@QBE@IQBDQA_WI@Z 1006a392 f i libucrt:stat.obj
 0001:00069446       ?__acrt_get_utf8_acp_compatibility_codepage@@YAIXZ 1006a446 f i libucrt:stat.obj
 0001:00069485       ?_deallocate@?$__crt_win32_buffer@_WU__crt_win32_buffer_internal_dynamic_resizing@@@@AAEXXZ 1006a485 f i libucrt:stat.obj
 0001:0006949f       ?allocate@?$__crt_win32_buffer@_WU__crt_win32_buffer_internal_dynamic_resizing@@@@QAEHI@Z 1006a49f f i libucrt:stat.obj
 0001:000694de       ?allocate@__crt_win32_buffer_internal_dynamic_resizing@@SAHQAPAXIABV__crt_win32_buffer_empty_debug_info@@@Z 1006a4de f i libucrt:stat.obj
 0001:0006955d       ?capacity@?$__crt_win32_buffer@_WU__crt_win32_buffer_internal_dynamic_resizing@@@@QBEIXZ 1006a55d f i libucrt:stat.obj
 0001:00069561       ?close@?$__crt_unique_handle_t@U__crt_handle_traits@@@@QAEXXZ 1006a561 f i libucrt:stat.obj
 0001:00069578       ?close@__crt_handle_traits@@SA_NPAX@Z 1006a578 f i libucrt:stat.obj
 0001:000696ad       ?data@?$__crt_win32_buffer@_WU__crt_win32_buffer_internal_dynamic_resizing@@@@QAEPA_WXZ 1006a6ad f i libucrt:stat.obj
 0001:000696b1       ?deallocate@__crt_win32_buffer_internal_dynamic_resizing@@SAXQAXABV__crt_win32_buffer_empty_debug_info@@@Z 1006a6b1 f i libucrt:stat.obj
 0001:000696c1       ?debug_info@?$__crt_win32_buffer@_WU__crt_win32_buffer_internal_dynamic_resizing@@@@QBEABV__crt_win32_buffer_empty_debug_info@@XZ 1006a6c1 f i libucrt:stat.obj
 0001:000696c4       ?get@?$__crt_unique_handle_t@U__crt_handle_traits@@@@QBEPAXXZ 1006a6c4 f i libucrt:stat.obj
 0001:000696c7       ?get_address_of@?$__crt_unique_heap_ptr@_WU__crt_public_free_policy@@@@QAEPAPA_WXZ 1006a6c7 f i libucrt:stat.obj
 0001:00069726       ?get_invalid_value@__crt_handle_traits@@SAPAXXZ 1006a726 f i libucrt:stat.obj
 0001:00069973       ?is_valid@?$__crt_unique_handle_t@U__crt_handle_traits@@@@QBE_NXZ 1006a973 f i libucrt:stat.obj
 0001:0006997a       ?release@?$__crt_unique_heap_ptr@_WU__crt_public_free_policy@@@@QAEXXZ 1006a97a f i libucrt:stat.obj
 0001:0006998c       ?set_to_nullptr@?$__crt_win32_buffer@_WU__crt_win32_buffer_internal_dynamic_resizing@@@@QAEXXZ 1006a98c f i libucrt:stat.obj
 0001:000699a3       ?size@?$__crt_win32_buffer@_WU__crt_win32_buffer_internal_dynamic_resizing@@@@QAEXI@Z 1006a9a3 f i libucrt:stat.obj
 0001:000699b2       ___ascii_tolower           1006a9b2 f i libucrt:stat.obj
 0001:000699c9       ___ascii_towlower          1006a9c9 f i libucrt:stat.obj
 0001:000699e0       __fstat32                  1006a9e0 f   libucrt:stat.obj
 0001:000699eb       __fstat32i64               1006a9eb f   libucrt:stat.obj
 0001:000699f6       __fstat64                  1006a9f6 f   libucrt:stat.obj
 0001:00069a01       __fstat64i32               1006aa01 f   libucrt:stat.obj
 0001:00069a0c       __stat32                   1006aa0c f   libucrt:stat.obj
 0001:00069a17       __stat32i64                1006aa17 f   libucrt:stat.obj
 0001:00069a22       __stat64                   1006aa22 f   libucrt:stat.obj
 0001:00069a2d       __stat64i32                1006aa2d f   libucrt:stat.obj
 0001:00069a38       __wstat32                  1006aa38 f   libucrt:stat.obj
 0001:00069a43       __wstat32i64               1006aa43 f   libucrt:stat.obj
 0001:00069a4e       __wstat64                  1006aa4e f   libucrt:stat.obj
 0001:00069a59       __wstat64i32               1006aa59 f   libucrt:stat.obj
 0001:00069a64       __abs64                    1006aa64 f   libucrt:abs.obj
 0001:00069a7e       _abs                       1006aa7e f   libucrt:abs.obj
 0001:00069a8d       __fgetc_nolock             1006aa8d f   libucrt:fgetc.obj
 0001:00069ac9       __fgetchar                 1006aac9 f   libucrt:fgetc.obj
 0001:00069ad9       __getc_nolock              1006aad9 f   libucrt:fgetc.obj
 0001:00069ae4       _fgetc                     1006aae4 f   libucrt:fgetc.obj
 0001:00069bfd       _getc                      1006abfd f   libucrt:fgetc.obj
 0001:00069c08       _getchar                   1006ac08 f   libucrt:fgetc.obj
 0001:00069c23       __get_terminate            1006ac23 f   libucrt:terminate.obj
 0001:00069c35       _set_terminate             1006ac35 f   libucrt:terminate.obj
 0001:00069c55       _terminate                 1006ac55 f   libucrt:terminate.obj
 0001:00069cb5       __seh_filter_dll           1006acb5 f   libucrt:exception_filter.obj
 0001:00069cd5       __seh_filter_exe           1006acd5 f   libucrt:exception_filter.obj
 0001:00069e1b       ??$?B$$A6GXPAXK0@Z@__crt_fast_encoded_nullptr_t@@QBEP6GXPAXK0@ZXZ 1006ae1b f i libucrt:exit.obj
 0001:00069ec3       ??$__crt_fast_decode_pointer@P6GXPAXK0@Z@@YAP6GXPAXK0@ZQ6GX0K0@Z@Z 1006aec3 f i libucrt:exit.obj
 0001:00069ede       ??$__crt_fast_encode_pointer@P6GXPAXK0@Z@@YAP6GXPAXK0@ZQ6GX0K0@Z@Z 1006aede f i libucrt:exit.obj
 0001:00069efd       ??$__crt_get_proc_address@P6GXI@Z@@YAP6GXI@ZQAUHINSTANCE__@@QBD@Z 1006aefd f i libucrt:exit.obj
 0001:00069f50       ??0?$__crt_unique_handle_t@U__crt_hmodule_traits@@@@QAE@QAUHINSTANCE__@@@Z 1006af50 f i libucrt:exit.obj
 0001:00069f60       ??1?$__crt_unique_handle_t@U__crt_hmodule_traits@@@@QAE@XZ 1006af60 f i libucrt:exit.obj
 0001:0006a071       ?__acrt_select_exit_lock@@YA?AW4__acrt_lock_id@@XZ 1006b071 f i libucrt:exit.obj
 0001:0006a075       ?__crt_fast_encode_pointer@@YA?AU__crt_fast_encoded_nullptr_t@@$$T@Z 1006b075 f i libucrt:exit.obj
 0001:0006a080       ?__crt_rotate_pointer_value@@YAIIH@Z 1006b080 f i libucrt:exit.obj
 0001:0006a0a2       ?close@?$__crt_unique_handle_t@U__crt_hmodule_traits@@@@QAEXXZ 1006b0a2 f i libucrt:exit.obj
 0001:0006a0b9       ?close@__crt_hmodule_traits@@SA_NPAUHINSTANCE__@@@Z 1006b0b9 f i libucrt:exit.obj
 0001:0006a196       ?get@?$__crt_unique_handle_t@U__crt_hmodule_traits@@@@QBEPAUHINSTANCE__@@XZ 1006b196 f i libucrt:exit.obj
 0001:0006a199       ?get_address_of@?$__crt_unique_handle_t@U__crt_hmodule_traits@@@@QAEPAPAUHINSTANCE__@@XZ 1006b199 f i libucrt:exit.obj
 0001:0006a19c       ?get_invalid_value@__crt_hmodule_traits@@SAPAUHINSTANCE__@@XZ 1006b19c f i libucrt:exit.obj
 0001:0006a27c       __Exit                     1006b27c f   libucrt:exit.obj
 0001:0006a292       ___acrt_initialize_thread_local_exit_callback 1006b292 f   libucrt:exit.obj
 0001:0006a2a1       __c_exit                   1006b2a1 f   libucrt:exit.obj
 0001:0006a2b0       __cexit                    1006b2b0 f   libucrt:exit.obj
 0001:0006a2bf       __exit                     1006b2bf f   libucrt:exit.obj
 0001:0006a2d5       __is_c_termination_complete 1006b2d5 f   libucrt:exit.obj
 0001:0006a2dc       __register_thread_local_exe_atexit_callback 1006b2dc f   libucrt:exit.obj
 0001:0006a302       _exit                      1006b302 f   libucrt:exit.obj
 0001:0006a318       _quick_exit                1006b318 f   libucrt:exit.obj
 0001:0006a32e       ??$?RPAD@__crt_internal_free_policy@@QBEXQBQAD@Z 1006b32e f i libucrt:argv_parsing.obj
 0001:0006a340       ??$?RPA_W@__crt_internal_free_policy@@QBEXQBQA_W@Z 1006b340 f i libucrt:argv_parsing.obj
 0001:0006a5c5       ??$get_module_file_name@$$TAAY0BAF@DH@?$__crt_char_traits@D@@SAK$$QA$$TAAY0BAF@D$$QAH@Z 1006b5c5 f i libucrt:argv_parsing.obj
 0001:0006a5e1       ??$get_module_file_name@$$TAAY0BAF@_WH@?$__crt_char_traits@_W@@SAK$$QA$$TAAY0BAF@_W$$QAH@Z 1006b5e1 f i libucrt:argv_parsing.obj
 0001:0006a910       ??$set_program_name@PAD@?$__crt_char_traits@D@@SAX$$QAPAD@Z 1006b910 f i libucrt:argv_parsing.obj
 0001:0006a921       ??$set_program_name@PA_W@?$__crt_char_traits@_W@@SAX$$QAPA_W@Z 1006b921 f i libucrt:argv_parsing.obj
 0001:0006a952       ??0?$__crt_unique_heap_ptr@PADU__crt_internal_free_policy@@@@QAE@QAPAD@Z 1006b952 f i libucrt:argv_parsing.obj
 0001:0006a962       ??0?$__crt_unique_heap_ptr@PA_WU__crt_internal_free_policy@@@@QAE@QAPA_W@Z 1006b962 f i libucrt:argv_parsing.obj
 0001:0006a972       ??1?$__crt_unique_heap_ptr@PADU__crt_internal_free_policy@@@@QAE@XZ 1006b972 f i libucrt:argv_parsing.obj
 0001:0006a984       ??1?$__crt_unique_heap_ptr@PA_WU__crt_internal_free_policy@@@@QAE@XZ 1006b984 f i libucrt:argv_parsing.obj
 0001:0006a9c2       ?detach@?$__crt_unique_heap_ptr@EU__crt_internal_free_policy@@@@QAEPAEXZ 1006b9c2 f i libucrt:argv_parsing.obj
 0001:0006a9c8       ?detach@?$__crt_unique_heap_ptr@PADU__crt_internal_free_policy@@@@QAEPAPADXZ 1006b9c8 f i libucrt:argv_parsing.obj
 0001:0006a9ce       ?detach@?$__crt_unique_heap_ptr@PA_WU__crt_internal_free_policy@@@@QAEPAPA_WXZ 1006b9ce f i libucrt:argv_parsing.obj
 0001:0006a9f2       ?get@?$__crt_unique_heap_ptr@PADU__crt_internal_free_policy@@@@QBEPAPADXZ 1006b9f2 f i libucrt:argv_parsing.obj
 0001:0006a9f5       ?get@?$__crt_unique_heap_ptr@PA_WU__crt_internal_free_policy@@@@QBEPAPA_WXZ 1006b9f5 f i libucrt:argv_parsing.obj
 0001:0006a9f8       ?get_address_of@?$__crt_unique_heap_ptr@PADU__crt_internal_free_policy@@@@QAEPAPAPADXZ 1006b9f8 f i libucrt:argv_parsing.obj
 0001:0006a9fb       ?get_address_of@?$__crt_unique_heap_ptr@PA_WU__crt_internal_free_policy@@@@QAEPAPAPA_WXZ 1006b9fb f i libucrt:argv_parsing.obj
 0001:0006aa16       ?release@?$__crt_unique_heap_ptr@PADU__crt_internal_free_policy@@@@QAEXXZ 1006ba16 f i libucrt:argv_parsing.obj
 0001:0006aa28       ?release@?$__crt_unique_heap_ptr@PA_WU__crt_internal_free_policy@@@@QAEXXZ 1006ba28 f i libucrt:argv_parsing.obj
 0001:0006aa54       ___acrt_allocate_buffer_for_argv 1006ba54 f   libucrt:argv_parsing.obj
 0001:0006aaa3       __configure_narrow_argv    1006baa3 f   libucrt:argv_parsing.obj
 0001:0006aaae       __configure_wide_argv      1006baae f   libucrt:argv_parsing.obj
 0001:0006aab9       __set_pgmptr               1006bab9 f i libucrt:argv_parsing.obj
 0001:0006aac8       __set_wpgmptr              1006bac8 f i libucrt:argv_parsing.obj
 0001:0006aad7       ??$?R_W@__crt_internal_free_policy@@QBEXQB_W@Z 1006bad7 f i libucrt:environment_initialization.obj
 0001:0006aef3       ??$get_environment_from_os@$$V@?$__crt_char_traits@D@@SAPADXZ 1006bef3 f i libucrt:environment_initialization.obj
 0001:0006aef8       ??$get_environment_from_os@$$V@?$__crt_char_traits@_W@@SAPA_WXZ 1006bef8 f i libucrt:environment_initialization.obj
 0001:0006b001       ??$set_variable_in_environment_nolock@PADH@?$__crt_char_traits@D@@SAH$$QAPAD$$QAH@Z 1006c001 f i libucrt:environment_initialization.obj
 0001:0006b019       ??$set_variable_in_environment_nolock@PA_WH@?$__crt_char_traits@_W@@SAH$$QAPA_W$$QAH@Z 1006c019 f i libucrt:environment_initialization.obj
 0001:0006b031       ??$tcscpy_s@PADABIAAPAD@?$__crt_char_traits@D@@SAH$$QAPADABIAAPAD@Z 1006c031 f i libucrt:environment_initialization.obj
 0001:0006b04f       ??$tcscpy_s@PA_WABIAAPA_W@?$__crt_char_traits@_W@@SAH$$QAPA_WABIAAPA_W@Z 1006c04f f i libucrt:environment_initialization.obj
 0001:0006b06d       ??$tcslen@AAPAD@?$__crt_char_traits@D@@SAIAAPAD@Z 1006c06d f i libucrt:environment_initialization.obj
 0001:0006b085       ??$tcslen@AAPA_W@?$__crt_char_traits@_W@@SAIAAPA_W@Z 1006c085 f i libucrt:environment_initialization.obj
 0001:0006b0a3       ??$uninitialize@A6AXAAPAPAD@_E@?$dual_state_global@PAPAD@__crt_state_management@@QAEXA6AXAAPAPAD@_E@Z 1006c0a3 f i libucrt:environment_initialization.obj
 0001:0006b0fb       ??$uninitialize@A6AXAAPAPA_W@_E@?$dual_state_global@PAPA_W@__crt_state_management@@QAEXA6AXAAPAPA_W@_E@Z 1006c0fb f i libucrt:environment_initialization.obj
 0001:0006b189       ??0?$__crt_unique_heap_ptr@_WU__crt_internal_free_policy@@@@QAE@QA_W@Z 1006c189 f i libucrt:environment_initialization.obj
 0001:0006b199       ??1?$__crt_unique_heap_ptr@_WU__crt_internal_free_policy@@@@QAE@XZ 1006c199 f i libucrt:environment_initialization.obj
 0001:0006b1ab       ??B?$__crt_unique_heap_ptr@PADU__crt_internal_free_policy@@@@QBE_NXZ 1006c1ab f i libucrt:environment_initialization.obj
 0001:0006b1b2       ??B?$__crt_unique_heap_ptr@PA_WU__crt_internal_free_policy@@@@QBE_NXZ 1006c1b2 f i libucrt:environment_initialization.obj
 0001:0006b1b9       ??B?$__crt_unique_heap_ptr@_WU__crt_internal_free_policy@@@@QBE_NXZ 1006c1b9 f i libucrt:environment_initialization.obj
 0001:0006b1c0       ?__crt_compute_required_transform_buffer_count@@YAIIQBD@Z 1006c1c0 f i libucrt:environment_initialization.obj
 0001:0006b1dc       ?__crt_compute_required_transform_buffer_count@@YAIIQB_W@Z 1006c1dc f i libucrt:environment_initialization.obj
 0001:0006b1fa       ?__crt_transform_string@@YAIIQBDQA_WI@Z 1006c1fa f i libucrt:environment_initialization.obj
 0001:0006b219       ?__crt_transform_string@@YAIIQB_WQADI@Z 1006c219 f i libucrt:environment_initialization.obj
 0001:0006b23b       ?detach@?$__crt_unique_heap_ptr@DU__crt_internal_free_policy@@@@QAEPADXZ 1006c23b f i libucrt:environment_initialization.obj
 0001:0006b241       ?detach@?$__crt_unique_heap_ptr@_WU__crt_internal_free_policy@@@@QAEPA_WXZ 1006c241 f i libucrt:environment_initialization.obj
 0001:0006b247       ?get@?$__crt_unique_heap_ptr@_WU__crt_internal_free_policy@@@@QBEPA_WXZ 1006c247 f i libucrt:environment_initialization.obj
 0001:0006b24a       ?get_current_state_index@__crt_state_management@@YAIXZ 1006c24a f i libucrt:environment_initialization.obj
 0001:0006b271       ?initialize@?$dual_state_global@PAPAD@__crt_state_management@@QAEXQAPAD@Z 1006c271 f i libucrt:environment_initialization.obj
 0001:0006b28d       ?initialize@?$dual_state_global@PAPA_W@__crt_state_management@@QAEXQAPA_W@Z 1006c28d f i libucrt:environment_initialization.obj
 0001:0006b2a9       ?is_valid@?$__crt_unique_heap_ptr@PADU__crt_internal_free_policy@@@@QBE_NXZ 1006c2a9 f i libucrt:environment_initialization.obj
 0001:0006b2b0       ?is_valid@?$__crt_unique_heap_ptr@PA_WU__crt_internal_free_policy@@@@QBE_NXZ 1006c2b0 f i libucrt:environment_initialization.obj
 0001:0006b2b7       ?is_valid@?$__crt_unique_heap_ptr@_WU__crt_internal_free_policy@@@@QBE_NXZ 1006c2b7 f i libucrt:environment_initialization.obj
 0001:0006b2c6       ?release@?$__crt_unique_heap_ptr@_WU__crt_internal_free_policy@@@@QAEXXZ 1006c2c6 f i libucrt:environment_initialization.obj
 0001:0006b2d8       ?value@?$dual_state_global@PAPAD@__crt_state_management@@QAEAAPAPADXZ 1006c2d8 f i libucrt:environment_initialization.obj
 0001:0006b2db       ?value@?$dual_state_global@PAPA_W@__crt_state_management@@QAEAAPAPA_WXZ 1006c2db f i libucrt:environment_initialization.obj
 0001:0006b2de       ___dcrt_get_or_create_narrow_environment_nolock 1006c2de f   libucrt:environment_initialization.obj
 0001:0006b2e3       ___dcrt_get_or_create_wide_environment_nolock 1006c2e3 f   libucrt:environment_initialization.obj
 0001:0006b2e8       ___dcrt_uninitialize_environments_nolock 1006c2e8 f   libucrt:environment_initialization.obj
 0001:0006b339       ___p__environ              1006c339 f   libucrt:environment_initialization.obj
 0001:0006b33f       ___p__wenviron             1006c33f f   libucrt:environment_initialization.obj
 0001:0006b345       __get_initial_narrow_environment 1006c345 f   libucrt:environment_initialization.obj
 0001:0006b359       __get_initial_wide_environment 1006c359 f   libucrt:environment_initialization.obj
 0001:0006b36d       __initialize_narrow_environment 1006c36d f   libucrt:environment_initialization.obj
 0001:0006b372       __initialize_wide_environment 1006c372 f   libucrt:environment_initialization.obj
 0001:0006b377       __invoke_watson_if_error   1006c377 f i libucrt:environment_initialization.obj
 0001:0006b399       ??$?B$$A6AXXZ@__crt_fast_encoded_nullptr_t@@QBEP6AXXZXZ 1006c399 f i libucrt:onexit.obj
 0001:0006b39f       ??$?BP6AXXZ@__crt_fast_encoded_nullptr_t@@QBEPAP6AXXZXZ 1006c39f f i libucrt:onexit.obj
 0001:0006b3a5       ??$?RP6AXXZ@__crt_internal_free_policy@@QBEXQBQ6AXXZ@Z 1006c3a5 f i libucrt:onexit.obj
 0001:0006b4e8       ??$__crt_fast_decode_pointer@P6AXXZ@@YAP6AXXZQ6AXXZ@Z 1006c4e8 f i libucrt:onexit.obj
 0001:0006b503       ??$__crt_fast_decode_pointer@PAP6AXXZ@@YAPAP6AXXZQAP6AXXZ@Z 1006c503 f i libucrt:onexit.obj
 0001:0006b51e       ??$__crt_fast_encode_pointer@P6AHXZ@@YAP6AHXZQ6AHXZ@Z 1006c51e f i libucrt:onexit.obj
 0001:0006b53d       ??$__crt_fast_encode_pointer@P6AXXZ@@YAP6AXXZQ6AXXZ@Z 1006c53d f i libucrt:onexit.obj
 0001:0006b55c       ??$__crt_fast_encode_pointer@PAP6AXXZ@@YAPAP6AXXZQAP6AXXZ@Z 1006c55c f i libucrt:onexit.obj
 0001:0006b5e9       ??0?$__crt_unique_heap_ptr@P6AXXZU__crt_internal_free_policy@@@@QAE@QAP6AXXZ@Z 1006c5e9 f i libucrt:onexit.obj
 0001:0006b5f9       ??1?$__crt_unique_heap_ptr@P6AXXZU__crt_internal_free_policy@@@@QAE@XZ 1006c5f9 f i libucrt:onexit.obj
 0001:0006b60b       ??1scoped_global_state_reset@__crt_state_management@@QAE@XZ 1006c60b f i libucrt:onexit.obj
 0001:0006b80e       ?detach@?$__crt_unique_heap_ptr@P6AXXZU__crt_internal_free_policy@@@@QAEPAP6AXXZXZ 1006c80e f i libucrt:onexit.obj
 0001:0006b814       ?release@?$__crt_unique_heap_ptr@P6AXXZU__crt_internal_free_policy@@@@QAEXXZ 1006c814 f i libucrt:onexit.obj
 0001:0006b826       __crt_at_quick_exit        1006c826 f   libucrt:onexit.obj
 0001:0006b83c       __crt_atexit               1006c83c f   libucrt:onexit.obj
 0001:0006b852       __execute_onexit_table     1006c852 f   libucrt:onexit.obj
 0001:0006b890       __initialize_onexit_table  1006c890 f   libucrt:onexit.obj
 0001:0006b8b9       __register_onexit_function 1006c8b9 f   libucrt:onexit.obj
 0001:0006b9c8       ??$?BX@__crt_fast_encoded_nullptr_t@@QBEPAXXZ 1006c9c8 f i libucrt:initialization.obj
 0001:0006b9ce       ??$__crt_fast_encode_pointer@PAX@@YAPAXQAX@Z 1006c9ce f i libucrt:initialization.obj
 0001:0006ba3f       ?__acrt_stdio_is_initialized@@YA_NXZ 1006ca3f f i libucrt:initialization.obj
 0001:0006ba4a       ?initialize@?$dual_state_global@PAU__crt_locale_data@@@__crt_state_management@@QAEXQAU__crt_locale_data@@@Z 1006ca4a f i libucrt:initialization.obj
 0001:0006ba66       ___acrt_initialize         1006ca66 f   libucrt:initialization.obj
 0001:0006ba78       ___acrt_thread_attach      1006ca78 f   libucrt:initialization.obj
 0001:0006ba83       ___acrt_thread_detach      1006ca83 f   libucrt:initialization.obj
 0001:0006ba8b       ___acrt_uninitialize       1006ca8b f   libucrt:initialization.obj
 0001:0006babb       ___acrt_uninitialize_critical 1006cabb f   libucrt:initialization.obj
 0001:0006bb27       _strcpy_s                  1006cb27 f   libucrt:strcpy_s.obj
 0001:0006bbe4       _strcat_s                  1006cbe4 f   libucrt:strcat_s.obj
 0001:0006bc47       __initterm                 1006cc47 f   libucrt:initterm.obj
 0001:0006bc72       __initterm_e               1006cc72 f   libucrt:initterm.obj
 0001:0006bca0       ___ascii_stricmp           1006cca0 f   libucrt:stricmp.obj
 0001:0006bcd9       __stricmp                  1006ccd9 f   libucrt:stricmp.obj
 0001:0006bcd9       _stricmp                   1006ccd9 f   libucrt:stricmp.obj
 0001:0006bd22       __stricmp_l                1006cd22 f   libucrt:stricmp.obj
 0001:0006bdb2       ??0?$__crt_scoped_stack_ptr@D@@QAE@U?$__crt_scoped_stack_ptr_tag@D@@@Z 1006cdb2 f i libucrt:strupr.obj
 0001:0006bdc2       ??0?$__crt_scoped_stack_ptr_tag@D@@QAE@QAD@Z 1006cdc2 f i libucrt:strupr.obj
 0001:0006bdd2       ??1?$__crt_scoped_stack_ptr@D@@QAE@XZ 1006cdd2 f i libucrt:strupr.obj
 0001:0006bddb       ??B?$__crt_scoped_stack_ptr@D@@QBE_NXZ 1006cddb f i libucrt:strupr.obj
 0001:0006bf58       ?get@?$__crt_scoped_stack_ptr@D@@QBEPADXZ 1006cf58 f i libucrt:strupr.obj
 0001:0006bf5b       __MallocaComputeSize       1006cf5b f i libucrt:strupr.obj
 0001:0006bf6e       __MarkAllocaS              1006cf6e f i libucrt:strupr.obj
 0001:0006bf84       __freea_crt                1006cf84 f i libucrt:strupr.obj
 0001:0006bfa4       __strupr                   1006cfa4 f   libucrt:strupr.obj
 0001:0006bfa4       _strupr                    1006cfa4 f   libucrt:strupr.obj
 0001:0006c000       __strupr_l                 1006d000 f   libucrt:strupr.obj
 0001:0006c01a       __strupr_s                 1006d01a f   libucrt:strupr.obj
 0001:0006c031       __strupr_s_l               1006d031 f   libucrt:strupr.obj
 0001:0006c56a       __i64toa                   1006d56a f   libucrt:xtoa.obj
 0001:0006c5ab       __i64toa_s                 1006d5ab f   libucrt:xtoa.obj
 0001:0006c5ea       __i64tow                   1006d5ea f   libucrt:xtoa.obj
 0001:0006c62b       __i64tow_s                 1006d62b f   libucrt:xtoa.obj
 0001:0006c66a       __itoa                     1006d66a f   libucrt:xtoa.obj
 0001:0006c66a       _itoa                      1006d66a f   libucrt:xtoa.obj
 0001:0006c69f       __itoa_s                   1006d69f f   libucrt:xtoa.obj
 0001:0006c6d2       __itow                     1006d6d2 f   libucrt:xtoa.obj
 0001:0006c707       __itow_s                   1006d707 f   libucrt:xtoa.obj
 0001:0006c73a       __ltoa                     1006d73a f   libucrt:xtoa.obj
 0001:0006c76f       __ltoa_s                   1006d76f f   libucrt:xtoa.obj
 0001:0006c7a2       __ltow                     1006d7a2 f   libucrt:xtoa.obj
 0001:0006c7d7       __ltow_s                   1006d7d7 f   libucrt:xtoa.obj
 0001:0006c80a       __ui64toa                  1006d80a f   libucrt:xtoa.obj
 0001:0006c82c       __ui64toa_s                1006d82c f   libucrt:xtoa.obj
 0001:0006c84c       __ui64tow                  1006d84c f   libucrt:xtoa.obj
 0001:0006c86e       __ui64tow_s                1006d86e f   libucrt:xtoa.obj
 0001:0006c88e       __ultoa                    1006d88e f   libucrt:xtoa.obj
 0001:0006c8ad       __ultoa_s                  1006d8ad f   libucrt:xtoa.obj
 0001:0006c8ca       __ultow                    1006d8ca f   libucrt:xtoa.obj
 0001:0006c8e9       __ultow_s                  1006d8e9 f   libucrt:xtoa.obj
 0001:0006c906       __set_abort_behavior       1006d906 f   libucrt:abort.obj
 0001:0006c927       _abort                     1006d927 f   libucrt:abort.obj
 0001:0006c96b       _free                      1006d96b f   libucrt:free.obj
 0001:0006c986       _malloc                    1006d986 f   libucrt:malloc.obj
 0001:0006c991       _calloc                    1006d991 f   libucrt:calloc.obj
 0001:0006c9a0       _strncmp                   1006d9a0 f   libucrt:strncmp.obj
 0001:0006ca18       _wcsncmp                   1006da18 f   libucrt:wcsncmp.obj
 0001:0006ca52       ??$__crt_fast_decode_pointer@P6AXPB_W00II@Z@@YAP6AXPB_W00II@ZQ6AX000II@Z@Z 1006da52 f i libucrt:invalid_parameter.obj
 0001:0006ca6d       ??$__crt_fast_encode_pointer@P6AXPB_W00II@Z@@YAP6AXPB_W00II@ZQ6AX000II@Z@Z 1006da6d f i libucrt:invalid_parameter.obj
 0001:0006ca8c       ??$initialize_from_array@$$BY00Q6AXPB_W00II@Z@?$dual_state_global@P6AXPB_W00II@Z@__crt_state_management@@QAAXAAY00Q6AXPB_W00II@Z@Z 1006da8c f i libucrt:invalid_parameter.obj
 0001:0006ca9d       ?check_synchronize_global_state_index@__crt_cached_ptd_host@@AAEIXZ 1006da9d f i libucrt:invalid_parameter.obj
 0001:0006cac6       ?dangerous_get_state_array@?$dual_state_global@P6AXPB_W00II@Z@__crt_state_management@@QAEPAP6AXPB_W00II@ZXZ 1006dac6 f i libucrt:invalid_parameter.obj
 0001:0006cac9       ?get_current_global_state_index@__crt_cached_ptd_host@@QAEIXZ 1006dac9 f i libucrt:invalid_parameter.obj
 0001:0006cace       ?get_raw_ptd_noexit@__crt_cached_ptd_host@@QAEPAU__acrt_ptd@@XZ 1006dace f i libucrt:invalid_parameter.obj
 0001:0006cad9       ?try_synchronize_per_thread_data@__crt_cached_ptd_host@@AAEPAU__acrt_ptd@@XZ 1006dad9 f i libucrt:invalid_parameter.obj
 0001:0006cae4       ?value@?$dual_state_global@P6AXPB_W00II@Z@__crt_state_management@@QAEAAP6AXPB_W00II@ZAAV__crt_cached_ptd_host@@@Z 1006dae4 f i libucrt:invalid_parameter.obj
 0001:0006cafc       ?value@?$dual_state_global@P6AXPB_W00II@Z@__crt_state_management@@QAEAAP6AXPB_W00II@ZXZ 1006dafc f i libucrt:invalid_parameter.obj
 0001:0006caff       ___acrt_call_reportfault   1006daff f   libucrt:invalid_parameter.obj
 0001:0006cc38       ___acrt_initialize_invalid_parameter_handler 1006dc38 f   libucrt:invalid_parameter.obj
 0001:0006cc47       __get_invalid_parameter_handler 1006dc47 f   libucrt:invalid_parameter.obj
 0001:0006cc5e       __get_thread_local_invalid_parameter_handler 1006dc5e f   libucrt:invalid_parameter.obj
 0001:0006cc6f       __invalid_parameter        1006dc6f f   libucrt:invalid_parameter.obj
 0001:0006cca6       __invalid_parameter_internal 1006dca6 f   libucrt:invalid_parameter.obj
 0001:0006cd23       __invalid_parameter_noinfo 1006dd23 f   libucrt:invalid_parameter.obj
 0001:0006cd33       __invalid_parameter_noinfo_noreturn 1006dd33 f   libucrt:invalid_parameter.obj
 0001:0006cd50       __invoke_watson            1006dd50 f   libucrt:invalid_parameter.obj
 0001:0006cd84       __set_invalid_parameter_handler 1006dd84 f   libucrt:invalid_parameter.obj
 0001:0006cdb4       __set_thread_local_invalid_parameter_handler 1006ddb4 f   libucrt:invalid_parameter.obj
 0001:0006d129       ??$tsopen_nolock@PAHABQAHABQBDABHABHABHABH@?$__crt_char_traits@D@@SAH$$QAPAHABQAHABQBDABH333@Z 1006e129 f i libucrt:open.obj
 0001:0006d15b       ??$tsopen_nolock@PAHABQAHABQB_WABHABHABHABH@?$__crt_char_traits@_W@@SAH$$QAPAHABQAHABQB_WABH333@Z 1006e15b f i libucrt:open.obj
 0001:0006d18d       ??$tsopen_nolock@PAHPAHABQBDABHHABHH@?$__crt_char_traits@D@@SAH$$QAPAH0ABQBDABH$$QAH23@Z 1006e18d f i libucrt:open.obj
 0001:0006d1bf       ??$tsopen_nolock@PAHPAHABQB_WABHHABHH@?$__crt_char_traits@_W@@SAH$$QAPAH0ABQB_WABH$$QAH23@Z 1006e1bf f i libucrt:open.obj
 0001:0006d7f9       __open                     1006e7f9 f   libucrt:open.obj
 0001:0006d811       __sopen                    1006e811 f   libucrt:open.obj
 0001:0006d844       __sopen_dispatch           1006e844 f   libucrt:open.obj
 0001:0006d84f       __sopen_nolock             1006e84f f   libucrt:open.obj
 0001:0006d8bd       __sopen_s                  1006e8bd f   libucrt:open.obj
 0001:0006d8dd       __wopen                    1006e8dd f   libucrt:open.obj
 0001:0006d8f5       __wsopen                   1006e8f5 f   libucrt:open.obj
 0001:0006d928       __wsopen_dispatch          1006e928 f   libucrt:open.obj
 0001:0006d933       __wsopen_nolock            1006e933 f   libucrt:open.obj
 0001:0006dc5d       __wsopen_s                 1006ec5d f   libucrt:open.obj
 0001:0006de2a       ?get_doserrno@__crt_cached_ptd_host@@QAE@XZ 1006ee2a f i libucrt:close.obj
 0001:0006de2e       ?set@?$cached@K@__crt_cached_ptd_host@@QAEKK@Z 1006ee2e f i libucrt:close.obj
 0001:0006de40       __close                    1006ee40 f   libucrt:close.obj
 0001:0006de70       __close_internal           1006ee70 f   libucrt:close.obj
 0001:0006df13       __close_nolock             1006ef13 f   libucrt:close.obj
 0001:0006df43       __close_nolock_internal    1006ef43 f   libucrt:close.obj
 0001:0006dfe3       ??$?RU__crt_lowio_handle_data@@@__crt_internal_free_policy@@QBEXQBU__crt_lowio_handle_data@@@Z 1006efe3 f i libucrt:osfinfo.obj
 0001:0006dff5       ??0?$__crt_unique_heap_ptr@U__crt_lowio_handle_data@@U__crt_internal_free_policy@@@@QAE@QAU__crt_lowio_handle_data@@@Z 1006eff5 f i libucrt:osfinfo.obj
 0001:0006e005       ??1?$__crt_unique_heap_ptr@U__crt_lowio_handle_data@@U__crt_internal_free_policy@@@@QAE@XZ 1006f005 f i libucrt:osfinfo.obj
 0001:0006e017       ??B?$__crt_unique_heap_ptr@U__crt_lowio_handle_data@@U__crt_internal_free_policy@@@@QBE_NXZ 1006f017 f i libucrt:osfinfo.obj
 0001:0006e01e       ?detach@?$__crt_unique_heap_ptr@U__crt_lowio_handle_data@@U__crt_internal_free_policy@@@@QAEPAU__crt_lowio_handle_data@@XZ 1006f01e f i libucrt:osfinfo.obj
 0001:0006e024       ?get@?$__crt_unique_heap_ptr@U__crt_lowio_handle_data@@U__crt_internal_free_policy@@@@QBEPAU__crt_lowio_handle_data@@XZ 1006f024 f i libucrt:osfinfo.obj
 0001:0006e027       ?is_valid@?$__crt_unique_heap_ptr@U__crt_lowio_handle_data@@U__crt_internal_free_policy@@@@QBE_NXZ 1006f027 f i libucrt:osfinfo.obj
 0001:0006e02e       ?release@?$__crt_unique_heap_ptr@U__crt_lowio_handle_data@@U__crt_internal_free_policy@@@@QAEXXZ 1006f02e f i libucrt:osfinfo.obj
 0001:0006e040       ___acrt_lowio_create_handle_array 1006f040 f   libucrt:osfinfo.obj
 0001:0006e0bb       ___acrt_lowio_destroy_handle_array 1006f0bb f   libucrt:osfinfo.obj
 0001:0006e0f0       ___acrt_lowio_ensure_fh_exists 1006f0f0 f   libucrt:osfinfo.obj
 0001:0006e18e       ___acrt_lowio_lock_fh      1006f18e f   libucrt:osfinfo.obj
 0001:0006e1b1       ___acrt_lowio_set_os_handle 1006f1b1 f   libucrt:osfinfo.obj
 0001:0006e243       ___acrt_lowio_unlock_fh    1006f243 f   libucrt:osfinfo.obj
 0001:0006e266       __alloc_osfhnd             1006f266 f   libucrt:osfinfo.obj
 0001:0006e379       __free_osfhnd              1006f379 f   libucrt:osfinfo.obj
 0001:0006e40a       __get_osfhandle            1006f40a f   libucrt:osfinfo.obj
 0001:0006e474       __open_osfhandle           1006f474 f   libucrt:osfinfo.obj
 0001:0006e5a4       ___acrt_errno_from_os_error 1006f5a4 f   libucrt:errno.obj
 0001:0006e5e7       ___acrt_errno_map_os_error 1006f5e7 f   libucrt:errno.obj
 0001:0006e60a       ___acrt_errno_map_os_error_ptd 1006f60a f   libucrt:errno.obj
 0001:0006e62e       ___doserrno                1006f62e f   libucrt:errno.obj
 0001:0006e641       __errno                    1006f641 f   libucrt:errno.obj
 0001:0006e654       __get_doserrno             1006f654 f   libucrt:errno.obj
 0001:0006e679       __get_errno                1006f679 f   libucrt:errno.obj
 0001:0006e69e       __set_doserrno             1006f69e f   libucrt:errno.obj
 0001:0006e6bf       __set_errno                1006f6bf f   libucrt:errno.obj
 0001:0006ebdc       ??$gmtime_s@ABQAUtm@@ABQBJ@?$__crt_integer_traits@J@@SAHABQAUtm@@ABQBJ@Z 1006fbdc f i libucrt:localtime.obj
 0001:0006ebf4       ??$gmtime_s@ABQAUtm@@ABQB_J@?$__crt_integer_traits@_J@@SAHABQAUtm@@ABQB_J@Z 1006fbf4 f i libucrt:localtime.obj
 0001:0006ec0c       ??$gmtime_s@ABQAUtm@@PAJ@?$__crt_integer_traits@J@@SAHABQAUtm@@$$QAPAJ@Z 1006fc0c f i libucrt:localtime.obj
 0001:0006ec24       ??$gmtime_s@ABQAUtm@@PA_J@?$__crt_integer_traits@_J@@SAHABQAUtm@@$$QAPA_J@Z 1006fc24 f i libucrt:localtime.obj
 0001:0006ec3c       ??$localtime_s@ABQAUtm@@ABQBJ@?$__crt_integer_traits@J@@SAHABQAUtm@@ABQBJ@Z 1006fc3c f i libucrt:localtime.obj
 0001:0006ec55       ??$localtime_s@ABQAUtm@@ABQB_J@?$__crt_integer_traits@_J@@SAHABQAUtm@@ABQB_J@Z 1006fc55 f i libucrt:localtime.obj
 0001:0006ec6e       __localtime32              1006fc6e f   libucrt:localtime.obj
 0001:0006ec95       __localtime32_s            1006fc95 f   libucrt:localtime.obj
 0001:0006eca0       __localtime64              1006fca0 f   libucrt:localtime.obj
 0001:0006ecc7       __localtime64_s            1006fcc7 f   libucrt:localtime.obj
 0001:0006efe1       __time32                   1006ffe1 f   libucrt:time.obj
 0001:0006f040       __time64                   10070040 f   libucrt:time.obj
 0001:0006f0a8       __timespec32_get           100700a8 f   libucrt:time.obj
 0001:0006f0b3       __timespec64_get           100700b3 f   libucrt:time.obj
 0001:0006f246       ___acrt_initialize_lowio   10070246 f   libucrt:ioinit.obj
 0001:0006f2a6       ___acrt_uninitialize_lowio 100702a6 f   libucrt:ioinit.obj
 0001:0006f2d2       ___pctype_func             100702d2 f   libucrt:ctype.obj
 0001:0006f2f6       ___pwctype_func            100702f6 f   libucrt:ctype.obj
 0001:0006f2fc       __iswctype_l               100702fc f   libucrt:iswctype.obj
 0001:0006f310       _iswctype                  10070310 f   libucrt:iswctype.obj
 0001:0006f379       __isctype                  10070379 f   libucrt:isctype.obj
 0001:0006f3ac       __isctype_l                100703ac f   libucrt:isctype.obj
 0001:0006f477       __isleadbyte_fast_internal 10070477 f i libucrt:isctype.obj
 0001:0006f495       ?value@?$dual_state_global@PAU__crt_locale_data@@@__crt_state_management@@QAEAAPAU__crt_locale_data@@XZ 10070495 f i libucrt:locale_update.obj
 0001:0006f498       ?value@?$dual_state_global@PAU__crt_multibyte_data@@@__crt_state_management@@QAEAAPAU__crt_multibyte_data@@XZ 10070498 f i libucrt:locale_update.obj
 0001:0006f49b       ?value_explicit@?$dual_state_global@PAU__crt_locale_data@@@__crt_state_management@@QAEAAPAU__crt_locale_data@@I@Z 1007049b f i libucrt:locale_update.obj
 0001:0006f4aa       ?value_explicit@?$dual_state_global@PAU__crt_multibyte_data@@@__crt_state_management@@QAEAAPAU__crt_multibyte_data@@I@Z 100704aa f i libucrt:locale_update.obj
 0001:0006f4b9       ___acrt_should_sync_with_global_locale 100704b9 f i libucrt:locale_update.obj
 0001:0006f4d5       ___acrt_update_locale_info 100704d5 f   libucrt:locale_update.obj
 0001:0006f502       ___acrt_update_locale_info_explicit 10070502 f   libucrt:locale_update.obj
 0001:0006f533       ___acrt_update_multibyte_info 10070533 f   libucrt:locale_update.obj
 0001:0006f560       ___acrt_update_multibyte_info_explicit 10070560 f   libucrt:locale_update.obj
 0001:0006f591       ??$?RU__acrt_ptd@@@__crt_internal_free_policy@@QBEXQBU__acrt_ptd@@@Z 10070591 f i libucrt:per_thread_data.obj
 0001:0006f87d       ??0?$__crt_unique_heap_ptr@U__acrt_ptd@@U__crt_internal_free_policy@@@@QAE@QAU__acrt_ptd@@@Z 1007087d f i libucrt:per_thread_data.obj
 0001:0006f88d       ??1?$__crt_unique_heap_ptr@U__acrt_ptd@@U__crt_internal_free_policy@@@@QAE@XZ 1007088d f i libucrt:per_thread_data.obj
 0001:0006f89f       ??B?$__crt_unique_heap_ptr@U__acrt_ptd@@U__crt_internal_free_policy@@@@QBE_NXZ 1007089f f i libucrt:per_thread_data.obj
 0001:0006f9ed       ?dangerous_get_state_array@?$dual_state_global@PAU__crt_locale_data@@@__crt_state_management@@QAEPAPAU__crt_locale_data@@XZ 100709ed f i libucrt:per_thread_data.obj
 0001:0006fae3       ?detach@?$__crt_unique_heap_ptr@U__acrt_ptd@@U__crt_internal_free_policy@@@@QAEPAU__acrt_ptd@@XZ 10070ae3 f i libucrt:per_thread_data.obj
 0001:0006fae9       ?get@?$__crt_unique_heap_ptr@U__acrt_ptd@@U__crt_internal_free_policy@@@@QBEPAU__acrt_ptd@@XZ 10070ae9 f i libucrt:per_thread_data.obj
 0001:0006fcce       ?is_valid@?$__crt_unique_heap_ptr@U__acrt_ptd@@U__crt_internal_free_policy@@@@QBE_NXZ 10070cce f i libucrt:per_thread_data.obj
 0001:0006fcd5       ?release@?$__crt_unique_heap_ptr@U__acrt_ptd@@U__crt_internal_free_policy@@@@QAEXXZ 10070cd5 f i libucrt:per_thread_data.obj
 0001:0006fd46       ___acrt_freeptd            10070d46 f   libucrt:per_thread_data.obj
 0001:0006fd72       ___acrt_getptd             10070d72 f   libucrt:per_thread_data.obj
 0001:0006fe2d       ___acrt_getptd_head        10070e2d f   libucrt:per_thread_data.obj
 0001:0006fec3       ___acrt_getptd_noexit      10070ec3 f   libucrt:per_thread_data.obj
 0001:0006ff74       ___acrt_getptd_noexit_explicit 10070f74 f   libucrt:per_thread_data.obj
 0001:00070017       ___acrt_initialize_ptd     10071017 f   libucrt:per_thread_data.obj
 0001:00070043       ___acrt_uninitialize_ptd   10071043 f   libucrt:per_thread_data.obj
 0001:0007005d       ___threadhandle            1007105d f   libucrt:per_thread_data.obj
 0001:00070063       ___threadid                10071063 f   libucrt:per_thread_data.obj
 0001:0007006c       ??$?RU__crt_locale_data@@@__crt_internal_free_policy@@QBEXQBU__crt_locale_data@@@Z 1007106c f i libucrt:wsetlocale.obj
 0001:0007007e       ??$?RU__crt_locale_pointers@@@__crt_internal_free_policy@@QBEXQBU__crt_locale_pointers@@@Z 1007107e f i libucrt:wsetlocale.obj
 0001:00070090       ??$?RU__crt_multibyte_data@@@__crt_internal_free_policy@@QBEXQBU__crt_multibyte_data@@@Z 10071090 f i libucrt:wsetlocale.obj
 0001:00070439       ??0?$__crt_unique_heap_ptr@U__crt_locale_data@@U__crt_internal_free_policy@@@@QAE@QAU__crt_locale_data@@@Z 10071439 f i libucrt:wsetlocale.obj
 0001:00070449       ??0?$__crt_unique_heap_ptr@U__crt_locale_pointers@@U__crt_internal_free_policy@@@@QAE@QAU__crt_locale_pointers@@@Z 10071449 f i libucrt:wsetlocale.obj
 0001:00070459       ??0?$__crt_unique_heap_ptr@U__crt_multibyte_data@@U__crt_internal_free_policy@@@@QAE@QAU__crt_multibyte_data@@@Z 10071459 f i libucrt:wsetlocale.obj
 0001:00070469       ??0_expandlocale_locale_name_cache@@QAE@QA_WIQAU__crt_qualified_locale_data@@@Z 10071469 f i libucrt:wsetlocale.obj
 0001:000704b3       ??1?$__crt_unique_heap_ptr@U__crt_locale_data@@U__crt_internal_free_policy@@@@QAE@XZ 100714b3 f i libucrt:wsetlocale.obj
 0001:000704c5       ??1?$__crt_unique_heap_ptr@U__crt_locale_pointers@@U__crt_internal_free_policy@@@@QAE@XZ 100714c5 f i libucrt:wsetlocale.obj
 0001:000704d7       ??1?$__crt_unique_heap_ptr@U__crt_multibyte_data@@U__crt_internal_free_policy@@@@QAE@XZ 100714d7 f i libucrt:wsetlocale.obj
 0001:000704e9       ??1_expandlocale_locale_name_cache@@QAE@XZ 100714e9 f i libucrt:wsetlocale.obj
 0001:00070519       ??B?$__crt_unique_heap_ptr@U__crt_locale_data@@U__crt_internal_free_policy@@@@QBE_NXZ 10071519 f i libucrt:wsetlocale.obj
 0001:00070520       ??B?$__crt_unique_heap_ptr@U__crt_locale_pointers@@U__crt_internal_free_policy@@@@QBE_NXZ 10071520 f i libucrt:wsetlocale.obj
 0001:00070527       ??B?$__crt_unique_heap_ptr@U__crt_multibyte_data@@U__crt_internal_free_policy@@@@QBE_NXZ 10071527 f i libucrt:wsetlocale.obj
 0001:00070747       ?commit_locale_name@_expandlocale_locale_name_cache@@QAEXQB_WI@Z 10071747 f i libucrt:wsetlocale.obj
 0001:0007078b       ?commit_locale_name_cache_already_updated@_expandlocale_locale_name_cache@@QAEXQB_WI@Z 1007178b f i libucrt:wsetlocale.obj
 0001:000707c0       ?detach@?$__crt_unique_heap_ptr@U__crt_locale_data@@U__crt_internal_free_policy@@@@QAEPAU__crt_locale_data@@XZ 100717c0 f i libucrt:wsetlocale.obj
 0001:000707c6       ?detach@?$__crt_unique_heap_ptr@U__crt_locale_pointers@@U__crt_internal_free_policy@@@@QAEPAU__crt_locale_pointers@@XZ 100717c6 f i libucrt:wsetlocale.obj
 0001:000707cc       ?detach@?$__crt_unique_heap_ptr@U__crt_multibyte_data@@U__crt_internal_free_policy@@@@QAEPAU__crt_multibyte_data@@XZ 100717cc f i libucrt:wsetlocale.obj
 0001:000707d2       ?get@?$__crt_unique_heap_ptr@U__crt_locale_data@@U__crt_internal_free_policy@@@@QBEPAU__crt_locale_data@@XZ 100717d2 f i libucrt:wsetlocale.obj
 0001:000707d5       ?get@?$__crt_unique_heap_ptr@U__crt_locale_pointers@@U__crt_internal_free_policy@@@@QBEPAU__crt_locale_pointers@@XZ 100717d5 f i libucrt:wsetlocale.obj
 0001:000707d8       ?get@?$__crt_unique_heap_ptr@U__crt_multibyte_data@@U__crt_internal_free_policy@@@@QBEPAU__crt_multibyte_data@@XZ 100717d8 f i libucrt:wsetlocale.obj
 0001:000707db       ?is_valid@?$__crt_unique_heap_ptr@U__crt_locale_data@@U__crt_internal_free_policy@@@@QBE_NXZ 100717db f i libucrt:wsetlocale.obj
 0001:000707e2       ?is_valid@?$__crt_unique_heap_ptr@U__crt_locale_pointers@@U__crt_internal_free_policy@@@@QBE_NXZ 100717e2 f i libucrt:wsetlocale.obj
 0001:000707e9       ?is_valid@?$__crt_unique_heap_ptr@U__crt_multibyte_data@@U__crt_internal_free_policy@@@@QBE_NXZ 100717e9 f i libucrt:wsetlocale.obj
 0001:000707f0       ?release@?$__crt_unique_heap_ptr@U__crt_locale_data@@U__crt_internal_free_policy@@@@QAEXXZ 100717f0 f i libucrt:wsetlocale.obj
 0001:00070802       ?release@?$__crt_unique_heap_ptr@U__crt_locale_pointers@@U__crt_internal_free_policy@@@@QAEXXZ 10071802 f i libucrt:wsetlocale.obj
 0001:00070814       ?release@?$__crt_unique_heap_ptr@U__crt_multibyte_data@@U__crt_internal_free_policy@@@@QAEXXZ 10071814 f i libucrt:wsetlocale.obj
 0001:00070826       ___acrt_copy_locale_name   10071826 f   libucrt:wsetlocale.obj
 0001:00070886       ___acrt_set_locale_changed 10071886 f   libucrt:wsetlocale.obj
 0001:00070891       ___acrt_uninitialize_locale 10071891 f   libucrt:wsetlocale.obj
 0001:000708b8       ___lc_lctowcs              100718b8 f   libucrt:wsetlocale.obj
 0001:00070928       ___lc_wcstolc              10071928 f   libucrt:wsetlocale.obj
 0001:00070a65       __configthreadlocale       10071a65 f   libucrt:wsetlocale.obj
 0001:00070af6       __create_locale            10071af6 f   libucrt:wsetlocale.obj
 0001:00070f20       __free_locale              10071f20 f   libucrt:wsetlocale.obj
 0001:00070fe2       __get_current_locale       10071fe2 f   libucrt:wsetlocale.obj
 0001:0007107d       __wcreate_locale           1007207d f   libucrt:wsetlocale.obj
 0001:00071184       __wcscats                  10072184 f   libucrt:wsetlocale.obj
 0001:000711c5       __wsetlocale               100721c5 f   libucrt:wsetlocale.obj
 0001:00071f43       ___p___mb_cur_max          10072f43 f   libucrt:nlsdata.obj
 0001:00071f6e       __free_base                10072f6e f   libucrt:free_base.obj
 0001:00071fa8       ?lowio_handle@__crt_stdio_stream@@QBEHXZ 10072fa8 f i libucrt:fileno.obj
 0001:00071faf       __fileno                   10072faf f   libucrt:fileno.obj
 0001:00071fd6       ??$?RPAU__crt_stdio_stream_data@@@__crt_internal_free_policy@@QBEXQBQAU__crt_stdio_stream_data@@@Z 10072fd6 f i libucrt:_file.obj
 0001:00071fe8       ??0?$__crt_unique_heap_ptr@PAU__crt_stdio_stream_data@@U__crt_internal_free_policy@@@@QAE@QAPAU__crt_stdio_stream_data@@@Z 10072fe8 f i libucrt:_file.obj
 0001:00071ff8       ??1?$__crt_unique_heap_ptr@PAU__crt_stdio_stream_data@@U__crt_internal_free_policy@@@@QAE@XZ 10072ff8 f i libucrt:_file.obj
 0001:0007200a       ?detach@?$__crt_unique_heap_ptr@PAU__crt_stdio_stream_data@@U__crt_internal_free_policy@@@@QAEPAPAU__crt_stdio_stream_data@@XZ 1007300a f i libucrt:_file.obj
 0001:00072010       ?release@?$__crt_unique_heap_ptr@PAU__crt_stdio_stream_data@@U__crt_internal_free_policy@@@@QAEXXZ 10073010 f i libucrt:_file.obj
 0001:00072022       ___acrt_initialize_stdio   10073022 f   libucrt:_file.obj
 0001:000720ea       ___acrt_iob_func           100730ea f   libucrt:_file.obj
 0001:000720fa       ___acrt_uninitialize_stdio 100730fa f   libucrt:_file.obj
 0001:00072146       __get_stream_buffer_pointers 10073146 f   libucrt:_file.obj
 0001:0007218c       __lock_file                1007318c f   libucrt:_file.obj
 0001:000721a0       __unlock_file              100731a0 f   libucrt:_file.obj
 0001:000721b4       ??$?RU__crt_stdio_stream_data@@@__crt_internal_free_policy@@QBEXQBU__crt_stdio_stream_data@@@Z 100731b4 f i libucrt:stream.obj
 0001:000721c6       ??0?$__crt_unique_heap_ptr@U__crt_stdio_stream_data@@U__crt_internal_free_policy@@@@QAE@QAU__crt_stdio_stream_data@@@Z 100731c6 f i libucrt:stream.obj
 0001:000721d6       ??0__crt_stdio_stream@@QAE@QAU__crt_stdio_stream_data@@@Z 100731d6 f i libucrt:stream.obj
 0001:000721e6       ??0__crt_stdio_stream@@QAE@XZ 100731e6 f i libucrt:stream.obj
 0001:000721ec       ??1?$__crt_unique_heap_ptr@U__crt_stdio_stream_data@@U__crt_internal_free_policy@@@@QAE@XZ 100731ec f i libucrt:stream.obj
 0001:000721fe       ?__acrt_stdio_allocate_stream@@YA?AV__crt_stdio_stream@@XZ 100731fe f   libucrt:stream.obj
 0001:00072267       ?__acrt_stdio_free_stream@@YAXV__crt_stdio_stream@@@Z 10073267 f   libucrt:stream.obj
 0001:000722a2       ?deallocate@__crt_stdio_stream@@QAEXXZ 100732a2 f i libucrt:stream.obj
 0001:000722ac       ?detach@?$__crt_unique_heap_ptr@U__crt_stdio_stream_data@@U__crt_internal_free_policy@@@@QAEPAU__crt_stdio_stream_data@@XZ 100732ac f i libucrt:stream.obj
 0001:00072374       ?lock@__crt_stdio_stream@@QBEXXZ 10073374 f i libucrt:stream.obj
 0001:0007237d       ?release@?$__crt_unique_heap_ptr@U__crt_stdio_stream_data@@U__crt_internal_free_policy@@@@QAEXXZ 1007337d f i libucrt:stream.obj
 0001:0007238f       ?try_allocate@__crt_stdio_stream@@QAE_NXZ 1007338f f i libucrt:stream.obj
 0001:000723af       ?has_crt_buffer@__crt_stdio_stream@@QBE_NXZ 100733af f i libucrt:_freebuf.obj
 0001:000723bb       ?unset_flags@__crt_stdio_stream@@QBE_NJ@Z 100733bb f i libucrt:_freebuf.obj
 0001:000723e4       ___acrt_stdio_free_buffer_nolock 100733e4 f   libucrt:_freebuf.obj
 0001:000727e4       ?__acrt_stdio_reset_buffer@@YAXV__crt_stdio_stream@@@Z 100737e4 f i libucrt:fflush.obj
 0001:000728c6       ?has_all_of@__crt_stdio_stream@@QBE_NJ@Z 100738c6 f i libucrt:fflush.obj
 0001:0007292b       ___acrt_stdio_flush_nolock 1007392b f   libucrt:fflush.obj
 0001:00072994       __fflush_nolock            10073994 f   libucrt:fflush.obj
 0001:000729f9       __flushall                 100739f9 f   libucrt:fflush.obj
 0001:00072a02       _fflush                    10073a02 f   libucrt:fflush.obj
 0001:00072a55       ??$__acrt_stdio_parse_mode@D@@YA?AU__acrt_stdio_stream_mode@@QBD@Z 10073a55 f i libucrt:openfile.obj
 0001:00072c7f       ??$__acrt_stdio_parse_mode@_W@@YA?AU__acrt_stdio_stream_mode@@QB_W@Z 10073c7f f i libucrt:openfile.obj
 0001:00072ff0       ??$tcsncmp@AAPBDAAY02$$CBDI@?$__crt_char_traits@D@@SAHAAPBDAAY02$$CBD$$QAI@Z 10073ff0 f i libucrt:openfile.obj
 0001:0007300c       ??$tcsncmp@AAPB_WAAY02$$CB_WI@?$__crt_char_traits@_W@@SAHAAPB_WAAY02$$CB_W$$QAI@Z 1007400c f i libucrt:openfile.obj
 0001:00073028       ??$tcsnicmp@AAPBDAAY04$$CBDI@?$__crt_char_traits@D@@SAHAAPBDAAY04$$CBD$$QAI@Z 10074028 f i libucrt:openfile.obj
 0001:00073044       ??$tcsnicmp@AAPBDAAY06$$CBDI@?$__crt_char_traits@D@@SAHAAPBDAAY06$$CBD$$QAI@Z 10074044 f i libucrt:openfile.obj
 0001:00073060       ??$tcsnicmp@AAPBDAAY07$$CBDI@?$__crt_char_traits@D@@SAHAAPBDAAY07$$CBD$$QAI@Z 10074060 f i libucrt:openfile.obj
 0001:0007307c       ??$tcsnicmp@AAPB_WAAY04$$CB_WI@?$__crt_char_traits@_W@@SAHAAPB_WAAY04$$CB_W$$QAI@Z 1007407c f i libucrt:openfile.obj
 0001:00073098       ??$tcsnicmp@AAPB_WAAY06$$CB_WI@?$__crt_char_traits@_W@@SAHAAPB_WAAY06$$CB_W$$QAI@Z 10074098 f i libucrt:openfile.obj
 0001:000730b4       ??$tcsnicmp@AAPB_WAAY07$$CB_WI@?$__crt_char_traits@_W@@SAHAAPB_WAAY07$$CB_W$$QAI@Z 100740b4 f i libucrt:openfile.obj
 0001:000730d0       ??$tsopen_s@PAHABQBDABHABHH@?$__crt_char_traits@D@@SAH$$QAPAHABQBDABH2$$QAH@Z 100740d0 f i libucrt:openfile.obj
 0001:000730f8       ??$tsopen_s@PAHABQB_WABHABHH@?$__crt_char_traits@_W@@SAH$$QAPAHABQB_WABH2$$QAH@Z 100740f8 f i libucrt:openfile.obj
 0001:00073120       ?__acrt_stdio_parse_mode_D@@YA_NAAU__acrt_stdio_stream_mode@@@Z 10074120 f i libucrt:openfile.obj
 0001:0007313b       ?__acrt_stdio_parse_mode_N@@YA_NAAU__acrt_stdio_stream_mode@@@Z 1007413b f i libucrt:openfile.obj
 0001:0007314d       ?__acrt_stdio_parse_mode_R@@YA_NAAU__acrt_stdio_stream_mode@@AA_N@Z 1007414d f i libucrt:openfile.obj
 0001:0007316b       ?__acrt_stdio_parse_mode_S@@YA_NAAU__acrt_stdio_stream_mode@@AA_N@Z 1007416b f i libucrt:openfile.obj
 0001:00073189       ?__acrt_stdio_parse_mode_T@@YA_NAAU__acrt_stdio_stream_mode@@@Z 10074189 f i libucrt:openfile.obj
 0001:000731a8       ?__acrt_stdio_parse_mode_b@@YA_NAAU__acrt_stdio_stream_mode@@@Z 100741a8 f i libucrt:openfile.obj
 0001:000731c8       ?__acrt_stdio_parse_mode_c@@YA_NAAU__acrt_stdio_stream_mode@@AA_N@Z 100741c8 f i libucrt:openfile.obj
 0001:000731ea       ?__acrt_stdio_parse_mode_n@@YA_NAAU__acrt_stdio_stream_mode@@AA_N@Z 100741ea f i libucrt:openfile.obj
 0001:0007320c       ?__acrt_stdio_parse_mode_plus@@YA_NAAU__acrt_stdio_stream_mode@@AA_N@Z 1007420c f i libucrt:openfile.obj
 0001:00073242       ?__acrt_stdio_parse_mode_t@@YA_NAAU__acrt_stdio_stream_mode@@@Z 10074242 f i libucrt:openfile.obj
 0001:00073262       ?__acrt_stdio_parse_mode_x@@YA_NAAU__acrt_stdio_stream_mode@@@Z 10074262 f i libucrt:openfile.obj
 0001:00073282       __openfile                 10074282 f   libucrt:openfile.obj
 0001:0007328d       __wopenfile                1007428d f   libucrt:openfile.obj
 0001:00073a89       __utf8_no_of_trailbytes    10074a89 f i libucrt:write.obj
 0001:00073a9a       __write                    10074a9a f   libucrt:write.obj
 0001:00073ad1       __write_internal           10074ad1 f   libucrt:write.obj
 0001:00073be2       __write_nolock             10074be2 f   libucrt:write.obj
 0001:00074219       ___acrt_stdio_flush_and_write_narrow_nolock 10075219 f   libucrt:_flsbuf.obj
 0001:00074224       ___acrt_stdio_flush_and_write_wide_nolock 10075224 f   libucrt:_flsbuf.obj
 0001:0007422f       ?has_temporary_buffer@__crt_stdio_stream@@QBE_NXZ 1007522f f i libucrt:_sftbuf.obj
 0001:0007423b       ___acrt_should_use_temporary_buffer 1007523b f   libucrt:_sftbuf.obj
 0001:00074279       ___acrt_stdio_begin_temporary_buffering_nolock 10075279 f   libucrt:_sftbuf.obj
 0001:00074324       ___acrt_stdio_end_temporary_buffering_nolock 10075324 f   libucrt:_sftbuf.obj
 0001:00074362       __malloc_base              10075362 f   libucrt:malloc_base.obj
 0001:00074bab       ??1?$__crt_simd_cleanup_guard@$00@@QAE@XZ 10075bab f i libucrt:strnlen.obj
 0001:00074baf       ??1?$__crt_simd_cleanup_guard@$0A@@@QAE@XZ 10075baf f i libucrt:strnlen.obj
 0001:00074bb2       ?compare_equals@?$__crt_simd_traits@$00E@@SA?AT__m256i@@T2@0@Z 10075bb2 f i libucrt:strnlen.obj
 0001:00074bb7       ?compare_equals@?$__crt_simd_traits@$00G@@SA?AT__m256i@@T2@0@Z 10075bb7 f i libucrt:strnlen.obj
 0001:00074bbc       ?compare_equals@?$__crt_simd_traits@$0A@E@@SA?AT__m128i@@T2@0@Z 10075bbc f i libucrt:strnlen.obj
 0001:00074bc1       ?compare_equals@?$__crt_simd_traits@$0A@G@@SA?AT__m128i@@T2@0@Z 10075bc1 f i libucrt:strnlen.obj
 0001:00074bc6       ?compute_byte_mask@?$__crt_simd_pack_traits@$00@@SAHT__m256i@@@Z 10075bc6 f i libucrt:strnlen.obj
 0001:00074bcb       ?compute_byte_mask@?$__crt_simd_pack_traits@$0A@@@SAHT__m128i@@@Z 10075bcb f i libucrt:strnlen.obj
 0001:00074bd0       ?get_zero_pack@?$__crt_simd_pack_traits@$00@@SA?AT__m256i@@XZ 10075bd0 f i libucrt:strnlen.obj
 0001:00074bd5       ?get_zero_pack@?$__crt_simd_pack_traits@$0A@@@SA?AT__m128i@@XZ 10075bd5 f i libucrt:strnlen.obj
 0001:00074bd9       _strnlen                   10075bd9 f   libucrt:strnlen.obj
 0001:00074cfb       _wcslen                    10075cfb f   libucrt:strnlen.obj
 0001:00074e23       _wcsnlen                   10075e23 f   libucrt:strnlen.obj
 0001:00074fd3       ?__acrt_fp_classify@@YA?AW4__acrt_fp_class@@ABN@Z 10075fd3 f i libucrt:cvt.obj
 0001:00075035       ?__acrt_fp_is_negative@@YA_NABN@Z 10076035 f i libucrt:cvt.obj
 0001:000759c4       ?strrchr@@YAPADQADH@Z      100769c4 f i libucrt:cvt.obj
 0001:000759cf       ___acrt_fp_format          100769cf f   libucrt:cvt.obj
 0001:00075b50       ?value_or@?$cached@H@__crt_cached_ptd_host@@QBEHH@Z 10076b50 f i libucrt:wctomb.obj
 0001:00075b66       __wctomb_internal          10076b66 f   libucrt:wctomb.obj
 0001:00075cd0       __wctomb_l                 10076cd0 f   libucrt:wctomb.obj
 0001:00075d2b       __wctomb_s_l               10076d2b f   libucrt:wctomb.obj
 0001:00075d66       _wctomb                    10076d66 f   libucrt:wctomb.obj
 0001:00075db2       _wctomb_s                  10076db2 f   libucrt:wctomb.obj
 0001:00075dec       __mbtowc_internal          10076dec f   libucrt:mbtowc.obj
 0001:00075f1f       __mbtowc_l                 10076f1f f   libucrt:mbtowc.obj
 0001:00075f57       _mbtowc                    10076f57 f   libucrt:mbtowc.obj
 0001:00075f8e       __get_printf_count_output  10076f8e f   libucrt:printf_count_output.obj
 0001:00075fa3       __set_printf_count_output  10076fa3 f   libucrt:printf_count_output.obj
 0001:00076091       __fputwc_nolock            10077091 f   libucrt:fputwc.obj
 0001:000760c7       __fputwc_nolock_internal   100770c7 f   libucrt:fputwc.obj
 0001:000761ff       __fputwchar                100771ff f   libucrt:fputwc.obj
 0001:00076219       __putwc_nolock             10077219 f   libucrt:fputwc.obj
 0001:00076224       _fputwc                    10077224 f   libucrt:fputwc.obj
 0001:0007625a       _putwc                     1007725a f   libucrt:fputwc.obj
 0001:00076265       _putwchar                  10077265 f   libucrt:fputwc.obj
 0001:000763a4       __fputc_nolock             100773a4 f   libucrt:fputc.obj
 0001:000763d8       __fputc_nolock_internal    100773d8 f   libucrt:fputc.obj
 0001:00076405       __fputchar                 10077405 f   libucrt:fputc.obj
 0001:0007641f       __putc_nolock              1007741f f   libucrt:fputc.obj
 0001:0007642a       _fputc                     1007742a f   libucrt:fputc.obj
 0001:0007645e       _putc                      1007745e f   libucrt:fputc.obj
 0001:00076469       _putchar                   10077469 f   libucrt:fputc.obj
 0001:00076610       ___isascii                 10077610 f   libucrt:_ctype.obj
 0001:00076630       ___iscsym                  10077630 f   libucrt:_ctype.obj
 0001:000766a0       ___iscsymf                 100776a0 f   libucrt:_ctype.obj
 0001:00076740       ___toascii                 10077740 f   libucrt:_ctype.obj
 0001:00076750       __isalnum_l                10077750 f   libucrt:_ctype.obj
 0001:00076820       __isalpha_l                10077820 f   libucrt:_ctype.obj
 0001:000768f0       __isblank_l                100778f0 f   libucrt:_ctype.obj
 0001:000769b0       __iscntrl_l                100779b0 f   libucrt:_ctype.obj
 0001:00076a70       __iscsym_l                 10077a70 f   libucrt:_ctype.obj
 0001:00076b30       __iscsymf_l                10077b30 f   libucrt:_ctype.obj
 0001:00076bf0       __isdigit_l                10077bf0 f   libucrt:_ctype.obj
 0001:00076cb0       __isgraph_l                10077cb0 f   libucrt:_ctype.obj
 0001:00076d80       __islower_l                10077d80 f   libucrt:_ctype.obj
 0001:00076e40       __isprint_l                10077e40 f   libucrt:_ctype.obj
 0001:00076f10       __ispunct_l                10077f10 f   libucrt:_ctype.obj
 0001:00076fd0       __isspace_l                10077fd0 f   libucrt:_ctype.obj
 0001:00077090       __isupper_l                10078090 f   libucrt:_ctype.obj
 0001:00077150       __isxdigit_l               10078150 f   libucrt:_ctype.obj
 0001:00077220       _isalnum                   10078220 f   libucrt:_ctype.obj
 0001:000772b0       _isalpha                   100782b0 f   libucrt:_ctype.obj
 0001:00077340       _isblank                   10078340 f   libucrt:_ctype.obj
 0001:000773e0       _iscntrl                   100783e0 f   libucrt:_ctype.obj
 0001:00077470       _isdigit                   10078470 f   libucrt:_ctype.obj
 0001:00077500       _isgraph                   10078500 f   libucrt:_ctype.obj
 0001:00077590       _islower                   10078590 f   libucrt:_ctype.obj
 0001:00077620       _isprint                   10078620 f   libucrt:_ctype.obj
 0001:000776b0       _ispunct                   100786b0 f   libucrt:_ctype.obj
 0001:00077740       _isspace                   10078740 f   libucrt:_ctype.obj
 0001:000777d0       _isupper                   100787d0 f   libucrt:_ctype.obj
 0001:00077860       _isxdigit                  10078860 f   libucrt:_ctype.obj
 0001:000778eb       __calloc_base              100788eb f   libucrt:calloc_base.obj
 0001:00077948       ??$parse_integer_from_string@JDPAPAD@__crt_strtox@@YAJQBDQAPADHQAU__crt_locale_pointers@@@Z 10078948 f i libucrt:strtox.obj
 0001:0007798f       ??$parse_integer_from_string@J_WPAPA_W@__crt_strtox@@YAJQB_WQAPA_WHQAU__crt_locale_pointers@@@Z 1007898f f i libucrt:strtox.obj
 0001:000779d6       ??$parse_integer_from_string@KDPAPAD@__crt_strtox@@YAKQBDQAPADHQAU__crt_locale_pointers@@@Z 100789d6 f i libucrt:strtox.obj
 0001:00077a1d       ??$parse_integer_from_string@K_WPAPA_W@__crt_strtox@@YAKQB_WQAPA_WHQAU__crt_locale_pointers@@@Z 10078a1d f i libucrt:strtox.obj
 0001:00077a64       ??$parse_integer_from_string@_JDPAPAD@__crt_strtox@@YA_JQBDQAPADHQAU__crt_locale_pointers@@@Z 10078a64 f i libucrt:strtox.obj
 0001:00077ab1       ??$parse_integer_from_string@_J_WPAPA_W@__crt_strtox@@YA_JQB_WQAPA_WHQAU__crt_locale_pointers@@@Z 10078ab1 f i libucrt:strtox.obj
 0001:00077afe       ??$parse_integer_from_string@_KDPAPAD@__crt_strtox@@YA_KQBDQAPADHQAU__crt_locale_pointers@@@Z 10078afe f i libucrt:strtox.obj
 0001:00077b4b       ??$parse_integer_from_string@_K_WPAPA_W@__crt_strtox@@YA_KQB_WQAPA_WHQAU__crt_locale_pointers@@@Z 10078b4b f i libucrt:strtox.obj
 0001:00077b98       __strtoi64                 10078b98 f   libucrt:strtox.obj
 0001:00077be4       __strtoi64_l               10078be4 f   libucrt:strtox.obj
 0001:00077c31       __strtoimax_l              10078c31 f   libucrt:strtox.obj
 0001:00077c7e       __strtol_l                 10078c7e f   libucrt:strtox.obj
 0001:00077cc5       __strtoll_l                10078cc5 f   libucrt:strtox.obj
 0001:00077d12       __strtoui64                10078d12 f   libucrt:strtox.obj
 0001:00077d5e       __strtoui64_l              10078d5e f   libucrt:strtox.obj
 0001:00077dab       __strtoul_l                10078dab f   libucrt:strtox.obj
 0001:00077df2       __strtoull_l               10078df2 f   libucrt:strtox.obj
 0001:00077e3f       __strtoumax_l              10078e3f f   libucrt:strtox.obj
 0001:00077e8c       __wcstoi64                 10078e8c f   libucrt:strtox.obj
 0001:00077ed8       __wcstoi64_l               10078ed8 f   libucrt:strtox.obj
 0001:00077f25       __wcstoimax_l              10078f25 f   libucrt:strtox.obj
 0001:00077f72       __wcstol_l                 10078f72 f   libucrt:strtox.obj
 0001:00077fb9       __wcstoll_l                10078fb9 f   libucrt:strtox.obj
 0001:00078006       __wcstoui64                10079006 f   libucrt:strtox.obj
 0001:00078052       __wcstoui64_l              10079052 f   libucrt:strtox.obj
 0001:0007809f       __wcstoul_l                1007909f f   libucrt:strtox.obj
 0001:000780e6       __wcstoull_l               100790e6 f   libucrt:strtox.obj
 0001:00078133       __wcstoumax_l              10079133 f   libucrt:strtox.obj
 0001:00078180       _strtoimax                 10079180 f   libucrt:strtox.obj
 0001:000781cc       _strtol                    100791cc f   libucrt:strtox.obj
 0001:00078212       _strtoll                   10079212 f   libucrt:strtox.obj
 0001:0007825e       _strtoul                   1007925e f   libucrt:strtox.obj
 0001:000782a4       _strtoull                  100792a4 f   libucrt:strtox.obj
 0001:000782f0       _strtoumax                 100792f0 f   libucrt:strtox.obj
 0001:0007833c       _wcstoimax                 1007933c f   libucrt:strtox.obj
 0001:00078388       _wcstol                    10079388 f   libucrt:strtox.obj
 0001:000783ce       _wcstoll                   100793ce f   libucrt:strtox.obj
 0001:0007841a       _wcstoul                   1007941a f   libucrt:strtox.obj
 0001:00078460       _wcstoull                  10079460 f   libucrt:strtox.obj
 0001:000784ac       _wcstoumax                 100794ac f   libucrt:strtox.obj
 0001:000784f8       __fgetwc_nolock            100794f8 f   libucrt:fgetwc.obj
 0001:00078668       __fgetwchar                10079668 f   libucrt:fgetwc.obj
 0001:00078678       __getwc_nolock             10079678 f   libucrt:fgetwc.obj
 0001:00078683       _fgetwc                    10079683 f   libucrt:fgetwc.obj
 0001:000786fa       _getwc                     100796fa f   libucrt:fgetwc.obj
 0001:00078705       _getwchar                  10079705 f   libucrt:fgetwc.obj
 0001:00078890       __ungetwc_nolock           10079890 f   libucrt:ungetwc.obj
 0001:00078946       _ungetwc                   10079946 f   libucrt:ungetwc.obj
 0001:000789c4       __ungetc_nolock            100799c4 f   libucrt:ungetc.obj
 0001:00078ab8       _ungetc                    10079ab8 f   libucrt:ungetc.obj
 0001:00078b2b       ___fpe_flt_rounds          10079b2b f   libucrt:fegetround.obj
 0001:00078b5f       _fegetround                10079b5f f   libucrt:fegetround.obj
 0001:00078b97       __chdrive                  10079b97 f   libucrt:drive.obj
 0001:00078c15       __getdrive                 10079c15 f   libucrt:drive.obj
 0001:00078cb9       ??$?0$0BAE@@?$__crt_win32_buffer@_WU__crt_win32_buffer_internal_dynamic_resizing@@@@QAE@AAY0BAE@_W@Z 10079cb9 f i libucrt:fullpath.obj
 0001:00078cdf       ??$__acrt_convert_wcs_mbs_cp@_WDV<lambda_0fec1a7b3f42a53036604e18c2d5e07e>@@U__crt_win32_buffer_no_resizing@@@@YAHQB_WAAV?$__crt_win32_buffer@DU__crt_win32_buffer_no_resizing@@@@ABV<lambda_0fec1a7b3f42a53036604e18c2d5e07e>@@I@Z 10079cdf f i libucrt:fullpath.obj
 0001:00078da1       ??$__acrt_convert_wcs_mbs_cp@_WDV<lambda_fecc33a432ccb74a901dff60d61ca385>@@U__crt_win32_buffer_public_dynamic_resizing@@@@YAHQB_WAAV?$__crt_win32_buffer@DU__crt_win32_buffer_public_dynamic_resizing@@@@ABV<lambda_fecc33a432ccb74a901dff60d61ca385>@@I@Z 10079da1 f i libucrt:fullpath.obj
 0001:00078e67       ??$__acrt_get_full_path_name_narrow_acp_or_utf8@U__crt_win32_buffer_no_resizing@@@@YAHQBDAAV?$__crt_win32_buffer@DU__crt_win32_buffer_no_resizing@@@@@Z 10079e67 f i libucrt:fullpath.obj
 0001:00078f6e       ??$__acrt_get_full_path_name_narrow_acp_or_utf8@U__crt_win32_buffer_public_dynamic_resizing@@@@YAHQBDAAV?$__crt_win32_buffer@DU__crt_win32_buffer_public_dynamic_resizing@@@@@Z 10079f6e f i libucrt:fullpath.obj
 0001:00079075       ??$__acrt_get_full_path_name_wide@U__crt_win32_buffer_internal_dynamic_resizing@@@@YAHQB_WAAV?$__crt_win32_buffer@_WU__crt_win32_buffer_internal_dynamic_resizing@@@@@Z 1007a075 f i libucrt:fullpath.obj
 0001:0007908f       ??$__acrt_get_full_path_name_wide@U__crt_win32_buffer_no_resizing@@@@YAHQB_WAAV?$__crt_win32_buffer@_WU__crt_win32_buffer_no_resizing@@@@@Z 1007a08f f i libucrt:fullpath.obj
 0001:000790a9       ??$__acrt_get_full_path_name_wide@U__crt_win32_buffer_public_dynamic_resizing@@@@YAHQB_WAAV?$__crt_win32_buffer@_WU__crt_win32_buffer_public_dynamic_resizing@@@@@Z 1007a0a9 f i libucrt:fullpath.obj
 0001:000790c3       ??$__acrt_wcs_to_mbs_cp@U__crt_win32_buffer_no_resizing@@@@YAHQB_WAAV?$__crt_win32_buffer@DU__crt_win32_buffer_no_resizing@@@@I@Z 1007a0c3 f i libucrt:fullpath.obj
 0001:000790e0       ??$__acrt_wcs_to_mbs_cp@U__crt_win32_buffer_public_dynamic_resizing@@@@YAHQB_WAAV?$__crt_win32_buffer@DU__crt_win32_buffer_public_dynamic_resizing@@@@I@Z 1007a0e0 f i libucrt:fullpath.obj
 0001:000790fd       ??$call_win32_function@V<lambda_0d87af4cf61654f651d26e3c6a4f13fc>@@@?$__crt_win32_buffer@_WU__crt_win32_buffer_public_dynamic_resizing@@@@QAEHABV<lambda_0d87af4cf61654f651d26e3c6a4f13fc>@@@Z 1007a0fd f i libucrt:fullpath.obj
 0001:00079163       ??$call_win32_function@V<lambda_33d632c04396b3de813369f94278cf6d>@@@?$__crt_win32_buffer@_WU__crt_win32_buffer_no_resizing@@@@QAEHABV<lambda_33d632c04396b3de813369f94278cf6d>@@@Z 1007a163 f i libucrt:fullpath.obj
 0001:000791c9       ??$call_win32_function@V<lambda_44f1df80ccead0226c26eac3423fba1d>@@@?$__crt_win32_buffer@_WU__crt_win32_buffer_internal_dynamic_resizing@@@@QAEHABV<lambda_44f1df80ccead0226c26eac3423fba1d>@@@Z 1007a1c9 f i libucrt:fullpath.obj
 0001:00079367       ??$get_full_path_name@ABQBDAAV?$__crt_win32_buffer@DU__crt_win32_buffer_no_resizing@@@@@?$__crt_char_traits@D@@SAHABQBDAAV?$__crt_win32_buffer@DU__crt_win32_buffer_no_resizing@@@@@Z 1007a367 f i libucrt:fullpath.obj
 0001:0007937d       ??$get_full_path_name@ABQBDAAV?$__crt_win32_buffer@DU__crt_win32_buffer_public_dynamic_resizing@@@@@?$__crt_char_traits@D@@SAHABQBDAAV?$__crt_win32_buffer@DU__crt_win32_buffer_public_dynamic_resizing@@@@@Z 1007a37d f i libucrt:fullpath.obj
 0001:00079393       ??$get_full_path_name@ABQB_WAAV?$__crt_win32_buffer@_WU__crt_win32_buffer_no_resizing@@@@@?$__crt_char_traits@_W@@SAHABQB_WAAV?$__crt_win32_buffer@_WU__crt_win32_buffer_no_resizing@@@@@Z 1007a393 f i libucrt:fullpath.obj
 0001:000793a9       ??$get_full_path_name@ABQB_WAAV?$__crt_win32_buffer@_WU__crt_win32_buffer_public_dynamic_resizing@@@@@?$__crt_char_traits@_W@@SAHABQB_WAAV?$__crt_win32_buffer@_WU__crt_win32_buffer_public_dynamic_resizing@@@@@Z 1007a3a9 f i libucrt:fullpath.obj
 0001:000793bf       ??$tgetcwd@ABQADH@?$__crt_char_traits@D@@SAPADABQAD$$QAH@Z 1007a3bf f i libucrt:fullpath.obj
 0001:000793d7       ??$tgetcwd@ABQA_WH@?$__crt_char_traits@_W@@SAPA_WABQA_W$$QAH@Z 1007a3d7 f i libucrt:fullpath.obj
 0001:000793ef       ??0<lambda_0d87af4cf61654f651d26e3c6a4f13fc>@@QAE@ABQB_W@Z 1007a3ef f i libucrt:fullpath.obj
 0001:00079401       ??0<lambda_33d632c04396b3de813369f94278cf6d>@@QAE@ABQB_W@Z 1007a401 f i libucrt:fullpath.obj
 0001:00079413       ??0<lambda_44f1df80ccead0226c26eac3423fba1d>@@QAE@ABQB_W@Z 1007a413 f i libucrt:fullpath.obj
 0001:00079425       ??0?$__crt_win32_buffer@DU__crt_win32_buffer_no_resizing@@@@QAE@QADI@Z 1007a425 f i libucrt:fullpath.obj
 0001:00079449       ??0?$__crt_win32_buffer@DU__crt_win32_buffer_public_dynamic_resizing@@@@QAE@ABV__crt_win32_buffer_debug_info@@@Z 1007a449 f i libucrt:fullpath.obj
 0001:00079461       ??0?$__crt_win32_buffer@_WU__crt_win32_buffer_no_resizing@@@@QAE@QA_WI@Z 1007a461 f i libucrt:fullpath.obj
 0001:00079485       ??0?$__crt_win32_buffer@_WU__crt_win32_buffer_public_dynamic_resizing@@@@QAE@ABV__crt_win32_buffer_debug_info@@@Z 1007a485 f i libucrt:fullpath.obj
 0001:0007949d       ??0__crt_win32_buffer_debug_info@@QAE@HPBDH@Z 1007a49d f i libucrt:fullpath.obj
 0001:000794a2       ??1?$__crt_win32_buffer@DU__crt_win32_buffer_no_resizing@@@@QAE@XZ 1007a4a2 f i libucrt:fullpath.obj
 0001:000794ad       ??1?$__crt_win32_buffer@DU__crt_win32_buffer_public_dynamic_resizing@@@@QAE@XZ 1007a4ad f i libucrt:fullpath.obj
 0001:000794b2       ??1?$__crt_win32_buffer@_WU__crt_win32_buffer_no_resizing@@@@QAE@XZ 1007a4b2 f i libucrt:fullpath.obj
 0001:000794bd       ??1?$__crt_win32_buffer@_WU__crt_win32_buffer_public_dynamic_resizing@@@@QAE@XZ 1007a4bd f i libucrt:fullpath.obj
 0001:000794c2       ??R<lambda_0d87af4cf61654f651d26e3c6a4f13fc>@@QBE@PA_WK@Z 1007a4c2 f i libucrt:fullpath.obj
 0001:000794db       ??R<lambda_0fec1a7b3f42a53036604e18c2d5e07e>@@QBE@IQB_WQADI@Z 1007a4db f i libucrt:fullpath.obj
 0001:000794ff       ??R<lambda_33d632c04396b3de813369f94278cf6d>@@QBE@PA_WK@Z 1007a4ff f i libucrt:fullpath.obj
 0001:00079518       ??R<lambda_44f1df80ccead0226c26eac3423fba1d>@@QBE@PA_WK@Z 1007a518 f i libucrt:fullpath.obj
 0001:00079531       ??R<lambda_fecc33a432ccb74a901dff60d61ca385>@@QBE@IQB_WQADI@Z 1007a531 f i libucrt:fullpath.obj
 0001:00079555       ?_deallocate@?$__crt_win32_buffer@DU__crt_win32_buffer_no_resizing@@@@AAEXXZ 1007a555 f i libucrt:fullpath.obj
 0001:00079560       ?_deallocate@?$__crt_win32_buffer@DU__crt_win32_buffer_public_dynamic_resizing@@@@AAEXXZ 1007a560 f i libucrt:fullpath.obj
 0001:0007957a       ?_deallocate@?$__crt_win32_buffer@_WU__crt_win32_buffer_no_resizing@@@@AAEXXZ 1007a57a f i libucrt:fullpath.obj
 0001:00079585       ?_deallocate@?$__crt_win32_buffer@_WU__crt_win32_buffer_public_dynamic_resizing@@@@AAEXXZ 1007a585 f i libucrt:fullpath.obj
 0001:0007959f       ?_reset_no_dealloc@?$__crt_win32_buffer@DU__crt_win32_buffer_public_dynamic_resizing@@@@AAEXXZ 1007a59f f i libucrt:fullpath.obj
 0001:000795af       ?_reset_no_dealloc@?$__crt_win32_buffer@_WU__crt_win32_buffer_public_dynamic_resizing@@@@AAEXXZ 1007a5af f i libucrt:fullpath.obj
 0001:000795bf       ?allocate@?$__crt_win32_buffer@DU__crt_win32_buffer_no_resizing@@@@QAEHI@Z 1007a5bf f i libucrt:fullpath.obj
 0001:000795e6       ?allocate@?$__crt_win32_buffer@DU__crt_win32_buffer_public_dynamic_resizing@@@@QAEHI@Z 1007a5e6 f i libucrt:fullpath.obj
 0001:00079622       ?allocate@?$__crt_win32_buffer@_WU__crt_win32_buffer_no_resizing@@@@QAEHI@Z 1007a622 f i libucrt:fullpath.obj
 0001:00079649       ?allocate@?$__crt_win32_buffer@_WU__crt_win32_buffer_public_dynamic_resizing@@@@QAEHI@Z 1007a649 f i libucrt:fullpath.obj
 0001:00079688       ?allocate@__crt_win32_buffer_no_resizing@@SAHQAPAXIABV__crt_win32_buffer_empty_debug_info@@@Z 1007a688 f i libucrt:fullpath.obj
 0001:00079695       ?allocate@__crt_win32_buffer_public_dynamic_resizing@@SAHQAPAXIABV__crt_win32_buffer_debug_info@@@Z 1007a695 f i libucrt:fullpath.obj
 0001:000796b4       ?capacity@?$__crt_win32_buffer@DU__crt_win32_buffer_no_resizing@@@@QBEIXZ 1007a6b4 f i libucrt:fullpath.obj
 0001:000796b8       ?capacity@?$__crt_win32_buffer@DU__crt_win32_buffer_public_dynamic_resizing@@@@QBEIXZ 1007a6b8 f i libucrt:fullpath.obj
 0001:000796bc       ?data@?$__crt_win32_buffer@DU__crt_win32_buffer_no_resizing@@@@QAEPADXZ 1007a6bc f i libucrt:fullpath.obj
 0001:000796c0       ?data@?$__crt_win32_buffer@DU__crt_win32_buffer_public_dynamic_resizing@@@@QAEPADXZ 1007a6c0 f i libucrt:fullpath.obj
 0001:000796c4       ?deallocate@__crt_win32_buffer_no_resizing@@SAXQAXABV__crt_win32_buffer_empty_debug_info@@@Z 1007a6c4 f i libucrt:fullpath.obj
 0001:000796c7       ?deallocate@__crt_win32_buffer_public_dynamic_resizing@@SAXQAXABV__crt_win32_buffer_debug_info@@@Z 1007a6c7 f i libucrt:fullpath.obj
 0001:000796d7       ?debug_info@?$__crt_win32_buffer@DU__crt_win32_buffer_no_resizing@@@@QBEABV__crt_win32_buffer_empty_debug_info@@XZ 1007a6d7 f i libucrt:fullpath.obj
 0001:000796da       ?debug_info@?$__crt_win32_buffer@DU__crt_win32_buffer_public_dynamic_resizing@@@@QBEABV__crt_win32_buffer_debug_info@@XZ 1007a6da f i libucrt:fullpath.obj
 0001:000796dd       ?debug_info@?$__crt_win32_buffer@_WU__crt_win32_buffer_no_resizing@@@@QBEABV__crt_win32_buffer_empty_debug_info@@XZ 1007a6dd f i libucrt:fullpath.obj
 0001:000796e0       ?debug_info@?$__crt_win32_buffer@_WU__crt_win32_buffer_public_dynamic_resizing@@@@QBEABV__crt_win32_buffer_debug_info@@XZ 1007a6e0 f i libucrt:fullpath.obj
 0001:000796e3       ?detach@?$__crt_win32_buffer@DU__crt_win32_buffer_public_dynamic_resizing@@@@QAEPADXZ 1007a6e3 f i libucrt:fullpath.obj
 0001:00079730       ?detach@?$__crt_win32_buffer@_WU__crt_win32_buffer_public_dynamic_resizing@@@@QAEPA_WXZ 1007a730 f i libucrt:fullpath.obj
 0001:0007977e       ?set_to_nullptr@?$__crt_win32_buffer@DU__crt_win32_buffer_no_resizing@@@@QAEXXZ 1007a77e f i libucrt:fullpath.obj
 0001:00079792       ?set_to_nullptr@?$__crt_win32_buffer@DU__crt_win32_buffer_public_dynamic_resizing@@@@QAEXXZ 1007a792 f i libucrt:fullpath.obj
 0001:000797a9       ?size@?$__crt_win32_buffer@DU__crt_win32_buffer_no_resizing@@@@QAEXI@Z 1007a7a9 f i libucrt:fullpath.obj
 0001:000797b8       ?size@?$__crt_win32_buffer@DU__crt_win32_buffer_public_dynamic_resizing@@@@QAEXI@Z 1007a7b8 f i libucrt:fullpath.obj
 0001:000797c7       __fullpath                 1007a7c7 f   libucrt:fullpath.obj
 0001:000797e5       __wfullpath                1007a7e5 f   libucrt:fullpath.obj
 0001:00079884       _wcspbrk                   1007a884 f   libucrt:wcspbrk.obj
 0001:000798d2       ___ascii_wcsicmp           1007a8d2 f   libucrt:wcsicmp.obj
 0001:0007990f       __towlower_fast_internal   1007a90f f i libucrt:wcsicmp.obj
 0001:0007993a       __towlower_internal        1007a93a f i libucrt:wcsicmp.obj
 0001:00079979       __wcsicmp                  1007a979 f   libucrt:wcsicmp.obj
 0001:000799c2       __wcsicmp_l                1007a9c2 f   libucrt:wcsicmp.obj
 0001:00079b12       ___acrt_MultiByteToWideChar 1007ab12 f   libucrt:multibytetowidechar.obj
 0001:00079b49       ??$?B$$A6GHPA_WKJ@Z@__crt_fast_encoded_nullptr_t@@QBEP6GHPA_WKJ@ZXZ 1007ab49 f i libucrt:winapi_thunks.obj
 0001:00079bf1       ??$__crt_fast_decode_pointer@P6GHPA_WKJ@Z@@YAP6GHPA_WKJ@ZQ6GH0KJ@Z@Z 1007abf1 f i libucrt:winapi_thunks.obj
 0001:00079c0c       ??$__crt_fast_decode_pointer@PAX@@YAPAXQAX@Z 1007ac0c f i libucrt:winapi_thunks.obj
 0001:00079c27       ??$__crt_fast_encode_pointer@P6GHPA_WKJ@Z@@YAP6GHPA_WKJ@ZQ6GH0KJ@Z@Z 1007ac27 f i libucrt:winapi_thunks.obj
 0001:0007a2d9       _GetCurrentThreadEffectiveToken 1007b2d9 f i libucrt:winapi_thunks.obj
 0001:0007a2dd       ___acrt_AppPolicyGetProcessTerminationMethodInternal@4 1007b2dd f   libucrt:winapi_thunks.obj
 0001:0007a31d       ___acrt_AppPolicyGetShowDeveloperDiagnosticInternal@4 1007b31d f   libucrt:winapi_thunks.obj
 0001:0007a35d       ___acrt_AppPolicyGetThreadInitializationTypeInternal@4 1007b35d f   libucrt:winapi_thunks.obj
 0001:0007a39d       ___acrt_AppPolicyGetWindowingModelInternal@4 1007b39d f   libucrt:winapi_thunks.obj
 0001:0007a3dd       ___acrt_AreFileApisANSI@0  1007b3dd f   libucrt:winapi_thunks.obj
 0001:0007a3fc       ___acrt_CompareStringEx@36 1007b3fc f   libucrt:winapi_thunks.obj
 0001:0007a459       ___acrt_EnumSystemLocalesEx@16 1007b459 f   libucrt:winapi_thunks.obj
 0001:0007a4ad       ___acrt_FlsAlloc@4         1007b4ad f   libucrt:winapi_thunks.obj
 0001:0007a4ec       ___acrt_FlsFree@4          1007b4ec f   libucrt:winapi_thunks.obj
 0001:0007a52b       ___acrt_FlsGetValue@4      1007b52b f   libucrt:winapi_thunks.obj
 0001:0007a56a       ___acrt_FlsSetValue@8      1007b56a f   libucrt:winapi_thunks.obj
 0001:0007a5ac       ___acrt_GetDateFormatEx@28 1007b5ac f   libucrt:winapi_thunks.obj
 0001:0007a603       ___acrt_GetEnabledXStateFeatures@0 1007b603 f   libucrt:winapi_thunks.obj
 0001:0007a637       ___acrt_GetLocaleInfoEx@16 1007b637 f   libucrt:winapi_thunks.obj
 0001:0007a676       ___acrt_GetSystemTimePreciseAsFileTime@4 1007b676 f   libucrt:winapi_thunks.obj
 0001:0007a6b5       ___acrt_GetTempPath2W@8    1007b6b5 f   libucrt:winapi_thunks.obj
 0001:0007a6f7       ___acrt_GetTimeFormatEx@24 1007b6f7 f   libucrt:winapi_thunks.obj
 0001:0007a73c       ___acrt_GetUserDefaultLocaleName@8 1007b73c f   libucrt:winapi_thunks.obj
 0001:0007a778       ___acrt_GetXStateFeaturesMask@8 1007b778 f   libucrt:winapi_thunks.obj
 0001:0007a7b8       ___acrt_InitializeCriticalSectionEx@12 1007b7b8 f   libucrt:winapi_thunks.obj
 0001:0007a803       ___acrt_IsValidLocaleName@4 1007b803 f   libucrt:winapi_thunks.obj
 0001:0007a83b       ___acrt_LCIDToLocaleName@16 1007b83b f   libucrt:winapi_thunks.obj
 0001:0007a87a       ___acrt_LCMapStringEx@36   1007b87a f   libucrt:winapi_thunks.obj
 0001:0007a8d7       ___acrt_LocaleNameToLCID@8 1007b8d7 f   libucrt:winapi_thunks.obj
 0001:0007a908       ___acrt_LocateXStateFeature@12 1007b908 f   libucrt:winapi_thunks.obj
 0001:0007a937       ___acrt_MessageBoxA@16     1007b937 f   libucrt:winapi_thunks.obj
 0001:0007a969       ___acrt_MessageBoxW@16     1007b969 f   libucrt:winapi_thunks.obj
 0001:0007a99b       ___acrt_RoInitialize@4     1007b99b f   libucrt:winapi_thunks.obj
 0001:0007a9d6       ___acrt_RoUninitialize@0   1007b9d6 f   libucrt:winapi_thunks.obj
 0001:0007aa04       ___acrt_RtlGenRandom@8     1007ba04 f   libucrt:winapi_thunks.obj
 0001:0007aa44       ___acrt_SetThreadStackGuarantee@4 1007ba44 f   libucrt:winapi_thunks.obj
 0001:0007aa7f       ___acrt_can_show_message_box 1007ba7f f   libucrt:winapi_thunks.obj
 0001:0007aaa6       ___acrt_can_use_vista_locale_apis 1007baa6 f   libucrt:winapi_thunks.obj
 0001:0007aab1       ___acrt_can_use_xstate_apis 1007bab1 f   libucrt:winapi_thunks.obj
 0001:0007aabc       ___acrt_eagerly_load_locale_apis 1007babc f   libucrt:winapi_thunks.obj
 0001:0007aaf3       ___acrt_get_parent_window  1007baf3 f   libucrt:winapi_thunks.obj
 0001:0007ab5b       ___acrt_initialize_winapi_thunks 1007bb5b f   libucrt:winapi_thunks.obj
 0001:0007ab6f       ___acrt_is_interactive     1007bb6f f   libucrt:winapi_thunks.obj
 0001:0007ac0f       ___acrt_uninitialize_winapi_thunks 1007bc0f f   libucrt:winapi_thunks.obj
 0001:0007ac45       ??$__crt_time_elapsed_leap_years@H@@YAHH@Z 1007bc45 f i libucrt:loctotime.obj
 0001:0007ac7f       ??$__crt_time_is_leap_year@H@@YA_NH@Z 1007bc7f f i libucrt:loctotime.obj
 0001:0007b00f       ?__crt_time_is_day_valid@@YA_NHHH@Z 1007c00f f i libucrt:loctotime.obj
 0001:0007b055       ___loctotime32_t           1007c055 f   libucrt:loctotime.obj
 0001:0007b060       ___loctotime64_t           1007c060 f   libucrt:loctotime.obj
 0001:0007b484       ___acrt_stdio_refill_and_read_narrow_nolock 1007c484 f   libucrt:_filbuf.obj
 0001:0007b48f       ___acrt_stdio_refill_and_read_wide_nolock 1007c48f f   libucrt:_filbuf.obj
 0001:0007b49a       ___acrt_initialize_locks   1007c49a f   libucrt:locks.obj
 0001:0007b4db       ___acrt_lock               1007c4db f   libucrt:locks.obj
 0001:0007b4f2       ___acrt_uninitialize_locks 1007c4f2 f   libucrt:locks.obj
 0001:0007b523       ___acrt_unlock             1007c523 f   libucrt:locks.obj
 0001:0007b53a       __lock_locales             1007c53a f   libucrt:locks.obj
 0001:0007b548       __unlock_locales           1007c548 f   libucrt:locks.obj
 0001:0007b551       ___acrt_app_verifier_enabled 1007c551 f   libucrt:peb_access.obj
 0001:0007b563       ___acrt_is_secure_process  1007c563 f   libucrt:peb_access.obj
 0001:0007b70f       ___acrt_get_begin_thread_init_policy 1007c70f f   libucrt:win_policies.obj
 0001:0007b749       ___acrt_get_developer_information_policy 1007c749 f   libucrt:win_policies.obj
 0001:0007b787       ___acrt_get_process_end_policy 1007c787 f   libucrt:win_policies.obj
 0001:0007b7ae       ___acrt_get_windowing_model_policy 1007c7ae f   libucrt:win_policies.obj
 0001:0007b839       ??$__acrt_convert_wcs_mbs_cp@_WDV<lambda_28bda7af82a03b66c1cb3803a755f95d>@@U__crt_win32_buffer_internal_dynamic_resizing@@@@YAHQB_WAAV?$__crt_win32_buffer@DU__crt_win32_buffer_internal_dynamic_resizing@@@@ABV<lambda_28bda7af82a03b66c1cb3803a755f95d>@@I@Z 1007c839 f i libucrt:argv_wildcards.obj
 0001:0007b8ff       ??$__acrt_wcs_to_mbs_cp@U__crt_win32_buffer_internal_dynamic_resizing@@@@YAHQB_WAAV?$__crt_win32_buffer@DU__crt_win32_buffer_internal_dynamic_resizing@@@@I@Z 1007c8ff f i libucrt:argv_wildcards.obj
 0001:0007c1b1       ??$tcslen@ABQBD@?$__crt_char_traits@D@@SAIABQBD@Z 1007d1b1 f i libucrt:argv_wildcards.obj
 0001:0007c1c9       ??$tcslen@ABQB_W@?$__crt_char_traits@_W@@SAIABQB_W@Z 1007d1c9 f i libucrt:argv_wildcards.obj
 0001:0007c1e7       ??$tcsncpy_s@AAPADIAAPADABI@?$__crt_char_traits@D@@SAHAAPAD$$QAI0ABI@Z 1007d1e7 f i libucrt:argv_wildcards.obj
 0001:0007c20a       ??$tcsncpy_s@AAPA_WIAAPA_WABI@?$__crt_char_traits@_W@@SAHAAPA_W$$QAI0ABI@Z 1007d20a f i libucrt:argv_wildcards.obj
 0001:0007c22d       ??$tcsncpy_s@PADABIABQBDABI@?$__crt_char_traits@D@@SAH$$QAPADABIABQBD1@Z 1007d22d f i libucrt:argv_wildcards.obj
 0001:0007c250       ??$tcsncpy_s@PADIABQBDABI@?$__crt_char_traits@D@@SAH$$QAPAD$$QAIABQBDABI@Z 1007d250 f i libucrt:argv_wildcards.obj
 0001:0007c273       ??$tcsncpy_s@PA_WABIABQB_WABI@?$__crt_char_traits@_W@@SAH$$QAPA_WABIABQB_W1@Z 1007d273 f i libucrt:argv_wildcards.obj
 0001:0007c296       ??$tcsncpy_s@PA_WIABQB_WABI@?$__crt_char_traits@_W@@SAH$$QAPA_W$$QAIABQB_WABI@Z 1007d296 f i libucrt:argv_wildcards.obj
 0001:0007c2b9       ??$tcspbrk@AAPADAAY02$$CBD@?$__crt_char_traits@D@@SAPADAAPADAAY02$$CBD@Z 1007d2b9 f i libucrt:argv_wildcards.obj
 0001:0007c2cf       ??$tcspbrk@AAPA_WAAY02$$CB_W@?$__crt_char_traits@_W@@SAPA_WAAPA_WAAY02$$CB_W@Z 1007d2cf f i libucrt:argv_wildcards.obj
 0001:0007c2e5       ??0?$__crt_unique_handle_t@U__crt_findfile_traits@@@@QAE@QAX@Z 1007d2e5 f i libucrt:argv_wildcards.obj
 0001:0007c2f5       ??0?$__crt_win32_buffer@DU__crt_win32_buffer_internal_dynamic_resizing@@@@QAE@XZ 1007d2f5 f i libucrt:argv_wildcards.obj
 0001:0007c325       ??1?$__crt_unique_handle_t@U__crt_findfile_traits@@@@QAE@XZ 1007d325 f i libucrt:argv_wildcards.obj
 0001:0007c33c       ??1?$__crt_win32_buffer@DU__crt_win32_buffer_internal_dynamic_resizing@@@@QAE@XZ 1007d33c f i libucrt:argv_wildcards.obj
 0001:0007c397       ??R<lambda_28bda7af82a03b66c1cb3803a755f95d>@@QBE@IQB_WQADI@Z 1007d397 f i libucrt:argv_wildcards.obj
 0001:0007c431       ?_deallocate@?$__crt_win32_buffer@DU__crt_win32_buffer_internal_dynamic_resizing@@@@AAEXXZ 1007d431 f i libucrt:argv_wildcards.obj
 0001:0007c44b       ?allocate@?$__crt_win32_buffer@DU__crt_win32_buffer_internal_dynamic_resizing@@@@QAEHI@Z 1007d44b f i libucrt:argv_wildcards.obj
 0001:0007c4f7       ?capacity@?$__crt_win32_buffer@DU__crt_win32_buffer_internal_dynamic_resizing@@@@QBEIXZ 1007d4f7 f i libucrt:argv_wildcards.obj
 0001:0007c4fb       ?close@?$__crt_unique_handle_t@U__crt_findfile_traits@@@@QAEXXZ 1007d4fb f i libucrt:argv_wildcards.obj
 0001:0007c512       ?close@__crt_findfile_traits@@SA_NPAX@Z 1007d512 f i libucrt:argv_wildcards.obj
 0001:0007c527       ?data@?$__crt_win32_buffer@DU__crt_win32_buffer_internal_dynamic_resizing@@@@QAEPADXZ 1007d527 f i libucrt:argv_wildcards.obj
 0001:0007c52b       ?debug_info@?$__crt_win32_buffer@DU__crt_win32_buffer_internal_dynamic_resizing@@@@QBEABV__crt_win32_buffer_empty_debug_info@@XZ 1007d52b f i libucrt:argv_wildcards.obj
 0001:0007c644       ?get@?$__crt_unique_handle_t@U__crt_findfile_traits@@@@QBEPAXXZ 1007d644 f i libucrt:argv_wildcards.obj
 0001:0007c67a       ?get_invalid_value@__crt_findfile_traits@@SAPAXXZ 1007d67a f i libucrt:argv_wildcards.obj
 0001:0007c6c9       ?set_to_nullptr@?$__crt_win32_buffer@DU__crt_win32_buffer_internal_dynamic_resizing@@@@QAEXXZ 1007d6c9 f i libucrt:argv_wildcards.obj
 0001:0007c6e0       ?size@?$__crt_win32_buffer@DU__crt_win32_buffer_internal_dynamic_resizing@@@@QAEXI@Z 1007d6e0 f i libucrt:argv_wildcards.obj
 0001:0007c701       ?strpbrk@@YAPADQADQBD@Z    1007d701 f i libucrt:argv_wildcards.obj
 0001:0007c70c       ?wcspbrk@@YAPA_WPA_WPB_W@Z 1007d70c f i libucrt:argv_wildcards.obj
 0001:0007c717       ___acrt_expand_narrow_argv_wildcards 1007d717 f   libucrt:argv_wildcards.obj
 0001:0007c722       ___acrt_expand_wide_argv_wildcards 1007d722 f   libucrt:argv_wildcards.obj
 0001:0007c72d       ?size@?$__crt_win32_buffer@DU__crt_win32_buffer_no_resizing@@@@QBEIXZ 1007d72d f i libucrt:getmodulefilenamea.obj
 0001:0007c731       ___acrt_GetModuleFileNameA 1007d731 f   libucrt:getmodulefilenamea.obj
 0001:0007c845       ??$initialize_from_array@$$BY10BAA@E@?$dual_state_global@PAE@__crt_state_management@@QAAXAAY10BAA@E@Z 1007d845 f i libucrt:mbctype.obj
 0001:0007c854       ??$initialize_from_array@$$BY10BAB@E@?$dual_state_global@PAE@__crt_state_management@@QAAXAAY10BAB@E@Z 1007d854 f i libucrt:mbctype.obj
 0001:0007c970       ?dangerous_get_state_array@?$dual_state_global@PAE@__crt_state_management@@QAEPAPAEXZ 1007d970 f i libucrt:mbctype.obj
 0001:0007c973       ?dangerous_get_state_array@?$dual_state_global@PAU__crt_multibyte_data@@@__crt_state_management@@QAEPAPAU__crt_multibyte_data@@XZ 1007d973 f i libucrt:mbctype.obj
 0001:0007c9e7       ?initialize@?$dual_state_global@PAU__crt_multibyte_data@@@__crt_state_management@@QAEXQAU__crt_multibyte_data@@@Z 1007d9e7 f i libucrt:mbctype.obj
 0001:0007ce00       ?value@?$dual_state_global@PAE@__crt_state_management@@QAEAAPAEXZ 1007de00 f i libucrt:mbctype.obj
 0001:0007ce03       ___acrt_initialize_multibyte 1007de03 f   libucrt:mbctype.obj
 0001:0007ce4b       ___acrt_update_thread_multibyte_data 1007de4b f   libucrt:mbctype.obj
 0001:0007ce5e       ___p__mbcasemap            1007de5e f   libucrt:mbctype.obj
 0001:0007ce64       ___p__mbctype              1007de64 f   libucrt:mbctype.obj
 0001:0007ce6a       __getmbcp                  1007de6a f   libucrt:mbctype.obj
 0001:0007ce9e       __setmbcp                  1007de9e f   libucrt:mbctype.obj
 0001:0007cebd       __setmbcp_nolock           1007debd f   libucrt:mbctype.obj
 0001:0007d193       __ismbbalnum               1007e193 f   libucrt:ismbbyte.obj
 0001:0007d1ae       __ismbbalnum_l             1007e1ae f   libucrt:ismbbyte.obj
 0001:0007d1ca       __ismbbalpha               1007e1ca f   libucrt:ismbbyte.obj
 0001:0007d1e5       __ismbbalpha_l             1007e1e5 f   libucrt:ismbbyte.obj
 0001:0007d201       __ismbbblank               1007e201 f   libucrt:ismbbyte.obj
 0001:0007d224       __ismbbblank_l             1007e224 f   libucrt:ismbbyte.obj
 0001:0007d248       __ismbbgraph               1007e248 f   libucrt:ismbbyte.obj
 0001:0007d263       __ismbbgraph_l             1007e263 f   libucrt:ismbbyte.obj
 0001:0007d27f       __ismbbkalnum              1007e27f f   libucrt:ismbbyte.obj
 0001:0007d297       __ismbbkalnum_l            1007e297 f   libucrt:ismbbyte.obj
 0001:0007d2b0       __ismbbkana                1007e2b0 f   libucrt:ismbbyte.obj
 0001:0007d2c3       __ismbbkana_l              1007e2c3 f   libucrt:ismbbyte.obj
 0001:0007d312       __ismbbkprint              1007e312 f   libucrt:ismbbyte.obj
 0001:0007d32a       __ismbbkprint_l            1007e32a f   libucrt:ismbbyte.obj
 0001:0007d343       __ismbbkpunct              1007e343 f   libucrt:ismbbyte.obj
 0001:0007d35b       __ismbbkpunct_l            1007e35b f   libucrt:ismbbyte.obj
 0001:0007d374       __ismbblead                1007e374 f   libucrt:ismbbyte.obj
 0001:0007d38c       __ismbblead_l              1007e38c f   libucrt:ismbbyte.obj
 0001:0007d3a5       __ismbbprint               1007e3a5 f   libucrt:ismbbyte.obj
 0001:0007d3c0       __ismbbprint_l             1007e3c0 f   libucrt:ismbbyte.obj
 0001:0007d3dc       __ismbbpunct               1007e3dc f   libucrt:ismbbyte.obj
 0001:0007d3f4       __ismbbpunct_l             1007e3f4 f   libucrt:ismbbyte.obj
 0001:0007d40d       __ismbbtrail               1007e40d f   libucrt:ismbbyte.obj
 0001:0007d425       __ismbbtrail_l             1007e425 f   libucrt:ismbbyte.obj
 0001:0007d43e       ___acrt_initialize_command_line 1007e43e f   libucrt:argv_data.obj
 0001:0007d457       ___acrt_uninitialize_command_line 1007e457 f   libucrt:argv_data.obj
 0001:0007d45a       ___p___argc                1007e45a f   libucrt:argv_data.obj
 0001:0007d460       ___p___argv                1007e460 f   libucrt:argv_data.obj
 0001:0007d466       ___p___wargv               1007e466 f   libucrt:argv_data.obj
 0001:0007d46c       ___p__acmdln               1007e46c f   libucrt:argv_data.obj
 0001:0007d472       ___p__pgmptr               1007e472 f   libucrt:argv_data.obj
 0001:0007d478       ___p__wcmdln               1007e478 f   libucrt:argv_data.obj
 0001:0007d47e       ___p__wpgmptr              1007e47e f   libucrt:argv_data.obj
 0001:0007d484       __get_pgmptr               1007e484 f   libucrt:argv_data.obj
 0001:0007d4b5       __get_wpgmptr              1007e4b5 f   libucrt:argv_data.obj
 0001:0007d54a       _wcscpy_s                  1007e54a f   libucrt:wcscpy_s.obj
 0001:0007d63e       ___acrt_WideCharToMultiByte 1007e63e f   libucrt:widechartomultibyte.obj
 0001:0007d745       ___dcrt_get_narrow_environment_from_os 1007e745 f   libucrt:get_environment_from_os.obj
 0001:0007d7e5       ___dcrt_get_wide_environment_from_os 1007e7e5 f   libucrt:get_environment_from_os.obj
 0001:0007df6d       ??$get_or_create_environment_nolock@$$V@?$__crt_char_traits@D@@SAPAPADXZ 1007ef6d f i libucrt:setenv.obj
 0001:0007df72       ??$get_or_create_environment_nolock@$$V@?$__crt_char_traits@_W@@SAPAPA_WXZ 1007ef72 f i libucrt:setenv.obj
 0001:0007df77       ??$set_environment_variable@ABQADQAD@?$__crt_char_traits@D@@SAHABQAD$$QBQAD@Z 1007ef77 f i libucrt:setenv.obj
 0001:0007df8f       ??$set_environment_variable@ABQA_WQA_W@?$__crt_char_traits@_W@@SAHABQA_W$$QBQA_W@Z 1007ef8f f i libucrt:setenv.obj
 0001:0007dfa6       ??$tcschr@ABQADD@?$__crt_char_traits@D@@SAPADABQAD$$QAD@Z 1007efa6 f i libucrt:setenv.obj
 0001:0007dfc0       ??$tcschr@ABQA_WD@?$__crt_char_traits@_W@@SAPA_WABQA_W$$QAD@Z 1007efc0 f i libucrt:setenv.obj
 0001:0007dfde       ??$tcscpy_s@AAPADABIAAPAD@?$__crt_char_traits@D@@SAHAAPADABI0@Z 1007efde f i libucrt:setenv.obj
 0001:0007dffc       ??$tcscpy_s@AAPA_WABIAAPA_W@?$__crt_char_traits@_W@@SAHAAPA_WABI0@Z 1007effc f i libucrt:setenv.obj
 0001:0007e01a       ??$tcscpy_s@ABQADABIABQAD@?$__crt_char_traits@D@@SAHABQADABI0@Z 1007f01a f i libucrt:setenv.obj
 0001:0007e038       ??$tcscpy_s@ABQA_WABIABQA_W@?$__crt_char_traits@_W@@SAHABQA_WABI0@Z 1007f038 f i libucrt:setenv.obj
 0001:0007e056       ??$tcslen@ABQAD@?$__crt_char_traits@D@@SAIABQAD@Z 1007f056 f i libucrt:setenv.obj
 0001:0007e06e       ??$tcslen@ABQA_W@?$__crt_char_traits@_W@@SAIABQA_W@Z 1007f06e f i libucrt:setenv.obj
 0001:0007e08c       ??$tcsnicoll@ABQBDAAPADABI@?$__crt_char_traits@D@@SAHABQBDAAPADABI@Z 1007f08c f i libucrt:setenv.obj
 0001:0007e0aa       ??$tcsnicoll@ABQB_WAAPA_WABI@?$__crt_char_traits@_W@@SAHABQB_WAAPA_WABI@Z 1007f0aa f i libucrt:setenv.obj
 0001:0007e0ec       ?wcschr@@YAPA_WPA_W_W@Z    1007f0ec f i libucrt:setenv.obj
 0001:0007e0f7       ___dcrt_set_variable_in_narrow_environment_nolock 1007f0f7 f   libucrt:setenv.obj
 0001:0007e102       ___dcrt_set_variable_in_wide_environment_nolock 1007f102 f   libucrt:setenv.obj
 0001:0007e10d       __recalloc                 1007f10d f   libucrt:recalloc.obj
 0001:0007e118       __recalloc_base            1007f118 f   libucrt:recalloc.obj
 0001:0007e185       ___acrt_getheap            1007f185 f   libucrt:heap_handle.obj
 0001:0007e18b       ___acrt_initialize_heap    1007f18b f   libucrt:heap_handle.obj
 0001:0007e19c       ___acrt_uninitialize_heap  1007f19c f   libucrt:heap_handle.obj
 0001:0007e1a6       __get_heap_handle          1007f1a6 f   libucrt:heap_handle.obj
 0001:0007e1ac       ___acrt_execute_initializers 1007f1ac f   libucrt:shared_initialization.obj
 0001:0007e214       ___acrt_execute_uninitializers 1007f214 f   libucrt:shared_initialization.obj
 0001:0007e245       ??$?B$$A6AHI@Z@__crt_fast_encoded_nullptr_t@@QBEP6AHI@ZXZ 1007f245 f i libucrt:new_handler.obj
 0001:0007e24b       ??$__crt_fast_decode_pointer@P6AHI@Z@@YAP6AHI@ZQ6AHI@Z@Z 1007f24b f i libucrt:new_handler.obj
 0001:0007e266       ??$__crt_fast_encode_pointer@P6AHI@Z@@YAP6AHI@ZQ6AHI@Z@Z 1007f266 f i libucrt:new_handler.obj
 0001:0007e285       ?_set_new_handler@@YAP6AHI@ZH@Z 1007f285 f   libucrt:new_handler.obj
 0001:0007e292       ?initialize@?$dual_state_global@P6AHI@Z@__crt_state_management@@QAEXQ6AHI@Z@Z 1007f292 f i libucrt:new_handler.obj
 0001:0007e2ae       ?value@?$dual_state_global@P6AHI@Z@__crt_state_management@@QAEAAP6AHI@ZXZ 1007f2ae f i libucrt:new_handler.obj
 0001:0007e2b1       ___acrt_initialize_new_handler 1007f2b1 f   libucrt:new_handler.obj
 0001:0007e2c0       __callnewh                 1007f2c0 f   libucrt:new_handler.obj
 0001:0007e2ec       __query_new_handler        1007f2ec f   libucrt:new_handler.obj
 0001:0007e343       __set_new_handler          1007f343 f   libucrt:new_handler.obj
 0001:0007e3a8       ??$?B$$A6AXH@Z@__crt_fast_encoded_nullptr_t@@QBEP6AXH@ZXZ 1007f3a8 f i libucrt:signal.obj
 0001:0007e43c       ??$__crt_fast_decode_pointer@P6AXH@Z@@YAP6AXH@ZQ6AXH@Z@Z 1007f43c f i libucrt:signal.obj
 0001:0007e457       ??$__crt_fast_encode_pointer@P6AXH@Z@@YAP6AXH@ZQ6AXH@Z@Z 1007f457 f i libucrt:signal.obj
 0001:0007e5b3       ?initialize@?$dual_state_global@P6AXH@Z@__crt_state_management@@QAEXQ6AXH@Z@Z 1007f5b3 f i libucrt:signal.obj
 0001:0007e65d       ?value@?$dual_state_global@P6AXH@Z@__crt_state_management@@QAEAAP6AXH@ZXZ 1007f65d f i libucrt:signal.obj
 0001:0007e660       ___acrt_get_sigabrt_handler 1007f660 f   libucrt:signal.obj
 0001:0007e687       ___acrt_initialize_signal_handlers 1007f687 f   libucrt:signal.obj
 0001:0007e6a5       ___fpecode                 1007f6a5 f   libucrt:signal.obj
 0001:0007e6ae       ___pxcptinfoptrs           1007f6ae f   libucrt:signal.obj
 0001:0007e6b7       _raise                     1007f6b7 f   libucrt:signal.obj
 0001:0007e8a9       _signal                    1007f8a9 f   libucrt:signal.obj
 0001:0007ea6d       ??$__crt_fast_decode_pointer@P6AHPAU_exception@@@Z@@YAP6AHPAU_exception@@@ZQ6AH0@Z@Z 1007fa6d f i libucrt:matherr.obj
