 iChat

 Timestamp is 63b01b44 (Sat Dec 31 14:21:40 2022)

 Preferred load address is 10000000

 Start         Length     Name                   Class
 0001:00000000 00037946H .text                   CODE
 0001:00037950 0000023aH .text$x                 CODE
 0001:00037b90 00000099H .text$yc                CODE
 0001:00037c30 0000007cH .text$yd                CODE
 0002:00000000 00000344H .idata$5                DATA
 0002:00000350 00004e80H .rdata                  DATA
 0002:000051d0 00000045H .rdata$debug            DATA
 0002:00005218 00000004H .rtc$IAA                DATA
 0002:0000521c 00000034H .rtc$IMZ                DATA
 0002:00005250 00000004H .rtc$IZZ                DATA
 0002:00005254 00000004H .rtc$TAA                DATA
 0002:00005258 00000034H .rtc$TMZ                DATA
 0002:0000528c 00000004H .rtc$TZZ                DATA
 0002:00005290 000001e8H .xdata$x                DATA
 0002:00005478 00000050H .idata$2                DATA
 0002:000054c8 00000014H .idata$3                DATA
 0002:000054dc 00000344H .idata$4                DATA
 0002:00005820 00001330H .idata$6                DATA
 0002:00006b50 00000246H .edata                  DATA
 0003:00000000 00000004H .CRT$XCA                DATA
 0003:00000004 00000004H .CRT$XCAA               DATA
 0003:00000008 00000008H .CRT$XCU                DATA
 0003:00000010 00000004H .CRT$XCZ                DATA
 0003:00000014 00000004H .CRT$XIA                DATA
 0003:00000018 00000010H .CRT$XIC                DATA
 0003:00000028 00000004H .CRT$XIY                DATA
 0003:0000002c 00000004H .CRT$XIZ                DATA
 0003:00000030 00000004H .CRT$XPA                DATA
 0003:00000034 00000004H .CRT$XPX                DATA
 0003:00000038 00000004H .CRT$XPZ                DATA
 0003:0000003c 00000004H .CRT$XTA                DATA
 0003:00000040 00000004H .CRT$XTB                DATA
 0003:00000044 00000004H .CRT$XTZ                DATA
 0003:00000050 000012a0H .data                   DATA
 0003:00001300 00002f74H .bss                    DATA

  Address         Publics by Value              Rva+Base     Lib:Object

 0000:00000000       ___safe_se_handler_count   00000000     <absolute>
 0000:00000000       ___safe_se_handler_table   00000000     <absolute>
 0000:00000000       __except_list              00000000     <absolute>
 0001:00000000       ?AddPlayer@ChatSystem@@QAEXPADH@Z 10001000 f   cs_chat.obj
 0001:00000260       ?DelPlayer@ChatSystem@@QAEXPADH@Z 10001260 f   cs_chat.obj
 0001:000003a0       ?AddAbsentPlayer@ChatSystem@@QAEXPAD@Z 100013a0 f   cs_chat.obj
 0001:00000570       ?DelAbsentPlayer@ChatSystem@@QAEXPAD@Z 10001570 f   cs_chat.obj
 0001:00000670       ?Disconnect@ChatSystem@@QAEXXZ 10001670 f   cs_chat.obj
 0001:00000740       ?Raw@@YAXPAXPBD0@Z         10001740 f   cs_chat.obj
 0001:000007a0       ?Disconnected@@YAXPAXPBD0@Z 100017a0 f   cs_chat.obj
 0001:000007e0       ?ChangedNickCallback@@YAXPAXW4CHATBool@@PBD20@Z 100017e0 f   cs_chat.obj
 0001:00000840       ?PrivateMessage@@YAXPAXPBD1H0@Z 10001840 f   cs_chat.obj
 0001:00000a80       ?Invited@@YAXPAXPBD10@Z    10001a80 f   cs_chat.obj
 0001:00000ae0       ?ChannelMessage@@YAXPAXPBD11H0@Z 10001ae0 f   cs_chat.obj
 0001:00000ce0       ??2@YAPAXI@Z               10001ce0 f i cs_chat.obj
 0001:00000d30       ??3@YAXPAX@Z               10001d30 f i cs_chat.obj
 0001:00000d80       ?Kicked@@YAXPAXPBD110@Z    10001d80 f   cs_chat.obj
 0001:00000de0       ?UserJoined@@YAXPAXPBD1H0@Z 10001de0 f   cs_chat.obj
 0001:00000e90       ?UserParted@@YAXPAXPBD1H110@Z 10001e90 f   cs_chat.obj
 0001:00000f40       ?UserChangedNick@@YAXPAXPBD110@Z 10001f40 f   cs_chat.obj
 0001:00000fa0       ?UserModeChanged@@YAXPAXPBD1H0@Z 10001fa0 f   cs_chat.obj
 0001:00001000       ?TopicChanged@@YAXPAXPBD10@Z 10002000 f   cs_chat.obj
 0001:00001060       ?ChannelModeChanged@@YAXPAXPBDPAUCHATChannelMode@@0@Z 10002060 f   cs_chat.obj
 0001:000010c0       ?UserListUpdated@@YAXPAXPBD0@Z 100020c0 f   cs_chat.obj
 0001:00001120       ?ConnectCallback@@YAXPAXW4CHATBool@@0@Z 10002120 f   cs_chat.obj
 0001:00001190       ?NickErrorCallback@@YAXPAXHPBD0@Z 10002190 f   cs_chat.obj
 0001:00001380       ?EnterChannelCallback@@YAXPAXW4CHATBool@@W4CHATEnterResult@@PBD0@Z 10002380 f   cs_chat.obj
 0001:00001450       ?GetUserInfoCallback@@YAXPAXW4CHATBool@@PBD222HPAPBD0@Z 10002450 f   cs_chat.obj
 0001:00001630       ?EnumUsersCallback@@YAXPAXW4CHATBool@@PBDHPAPBDPAH0@Z 10002630 f   cs_chat.obj
 0001:000016f0       ?CheckMessage@ChatSystem@@QAEXPAD@Z 100026f0 f   cs_chat.obj
 0001:000018d0       ?ChatBroadcastKeyChanged@@YAXPAXPBD1110@Z 100028d0 f   cs_chat.obj
 0001:00001900       ?Setup@ChatSystem@@QAEXXZ  10002900 f   cs_chat.obj
 0001:00001a50       ?Process@ChatSystem@@QAEXXZ 10002a50 f   cs_chat.obj
 0001:00001ca0       ?ChatProcess@@YAXXZ        10002ca0 f   cs_chat.obj
 0001:00001cf0       ?ConnectToChat@ChatSystem@@QAE_NPAD00000@Z 10002cf0 f   cs_chat.obj
 0001:00002000       ??0ChatSystem@@QAE@XZ      10003000 f   cs_chat.obj
 0001:000020b0       ??1ChatSystem@@QAE@XZ      100030b0 f   cs_chat.obj
 0001:000021d0       ??0ChatMsg@@QAE@XZ         100031d0 f   cs_chat.obj
 0001:00002220       ??1ChatMsg@@QAE@XZ         10003220 f   cs_chat.obj
 0001:00002310       ?Add@ChatMsg@@QAEXPAD0@Z   10003310 f   cs_chat.obj
 0001:00002460       ?RemoveOne@ChatMsg@@QAE_NPAD0H@Z 10003460 f   cs_chat.obj
 0001:00002580       ?SortPlayers@ChatSystem@@QAEXPAUOneChatPlayer@@H@Z 10003580 f   cs_chat.obj
 0001:000026d0       ?NPlayers@ChatSystem@@QAEHXZ 100036d0 f   cs_chat.obj
 0001:00002710       ?Players@ChatSystem@@QAEPAUOneChatPlayer@@XZ 10003710 f   cs_chat.obj
 0001:00002750       ??_H@YGXPAXIHP6EPAX0@Z@Z   10003750 f i cs_chat.obj
 0001:000027b0       ??_EEntry@?$Hash@VStr_for_hash@@$0EAD@$0EAA@@@QAEPAXI@Z 100037b0 f i cs_chat.obj
 0001:00002850       ??_V@YAXPAX@Z              10003850 f i cs_chat.obj
 0001:000028a0       ??_EEntry@?$Hash@VStr_for_hash@@$0BAB@$0BAA@@@QAEPAXI@Z 100038a0 f i cs_chat.obj
 0001:00002940       ??1Entry@?$Hash@VStr_for_hash@@$0BAB@$0BAA@@@QAE@XZ 10003940 f i cs_chat.obj
 0001:00002980       ??1Str_for_hash@@QAE@XZ    10003980 f i cs_chat.obj
 0001:000029b0       ??1Entry@?$Hash@VStr_for_hash@@$0EAD@$0EAA@@@QAE@XZ 100039b0 f i cs_chat.obj
 0001:000029f0       ?ReportIt@@YAXPADZZ        100039f0 f   GSC_ChatWindow.obj
 0001:00002a60       ?PlayStart@@YAXXZ          10003a60 f   GSC_ChatWindow.obj
 0001:00002ac0       ?ReadWinString@@YA_NPAVGFILE@@PADH@Z 10003ac0 f   GSC_ChatWindow.obj
 0001:00002ba0       ?AddPrimitiveChat@@YAXPAD0AAPAPAD1AAH2@Z 10003ba0 f   GSC_ChatWindow.obj
 0001:00002d70       ??_U@YAPAXI@Z              10003d70 f i GSC_ChatWindow.obj
 0001:00002dc0       ?AddChatString@@YAXPAD0HPAVRLCFont@@AAPAPAD2AAH3@Z 10003dc0 f   GSC_ChatWindow.obj
 0001:000030a0       ?PushWindow@@YAXPAUTempWindow@@@Z 100040a0 f   GSC_ChatWindow.obj
 0001:00003130       ?PopWindow@@YAXPAUTempWindow@@@Z 10004130 f   GSC_ChatWindow.obj
 0001:000031a0       ?IntersectWindows@@YAXHHHH@Z 100041a0 f   GSC_ChatWindow.obj
 0001:00003300       ?LimitString@@YAXPADPAVRLCFont@@H@Z 10004300 f   GSC_ChatWindow.obj
 0001:00003380       ?Draw_PLIST@@YAXHHHHHEH@Z  10004380 f   GSC_ChatWindow.obj
 0001:00003870       ?DRAWBOX@@YAXHHHHHEH@Z     10004870 f   GSC_ChatWindow.obj
 0001:000038d0       ?CheckForPersonalChat@@YA_NPAD@Z 100048d0 f   GSC_ChatWindow.obj
 0001:00003a40       ?CheckPersonality@@YA_NPAD@Z 10004a40 f   GSC_ChatWindow.obj
 0001:00003b70       ?MemScreenPart@@YAXHHHHPAE@Z 10004b70 f   GSC_ChatWindow.obj
 0001:00003c00       ?EnterPersonalMessage@@YAXPAD_N@Z 10004c00 f   GSC_ChatWindow.obj
 0001:00004320       ?SendPrivateMessage@@YAXPAD0@Z 10005320 f   GSC_ChatWindow.obj
 0001:000043f0       ?ShowCentralMessage2C@@YAXPAD@Z 100053f0 f   GSC_ChatWindow.obj
 0001:00004430       ?DrawCentralLoadingText@@YAXPAD@Z 10005430 f   GSC_ChatWindow.obj
 0001:00004610       ?DrawCentralLoadingTextC2@@YAXPAD@Z 10005610 f   GSC_ChatWindow.obj
 0001:00004870       ?SetGameID@@YAXPAD@Z       10005870 f   GSC_ChatWindow.obj
 0001:000048e0       ?GetGameID@@YAXPAD@Z       100058e0 f   GSC_ChatWindow.obj
 0001:00004950       ?SetChatWState@@YAXHH@Z    10005950 f   GSC_ChatWindow.obj
 0001:000049d0       ?RunHTTPC@@YAXXZ           100059d0 f   GSC_ChatWindow.obj
 0001:00004aa0       ?GoHomeAnyway@@YAXXZ       10005aa0 f   GSC_ChatWindow.obj
 0001:00004ad0       ?Process_GSC_ChatWindow@@YAH_NPAURoomInfo@@@Z 10005ad0 f   GSC_ChatWindow.obj
 0001:00009830       ?Load@IniFile@@QAE_NPAD@Z  1000a830 f i GSC_ChatWindow.obj
 0001:00009a90       ?GetStr@IniFile@@QAEPADPAD@Z 1000aa90 f i GSC_ChatWindow.obj
 0001:00009b20       ?GetInt@IniFile@@QAEHPAD@Z 1000ab20 f i GSC_ChatWindow.obj
 0001:00009b80       ??0IniFile@@QAE@XZ         1000ab80 f i GSC_ChatWindow.obj
 0001:00009bd0       ??1IniFile@@QAE@XZ         1000abd0 f i GSC_ChatWindow.obj
 0001:00009c10       ?Clear@IniFile@@QAEXXZ     1000ac10 f i GSC_ChatWindow.obj
 0001:00009d00       ?LeaveGSCRoom@@YAXXZ       1000ad00 f   GSC_ChatWindow.obj
 0001:00009d60       ?StartGSCGame@@YAXPAD0HPAHPAPAD11@Z 1000ad60 f   GSC_ChatWindow.obj
 0001:0000a170       ?ReportGSCGame@@YAXHHPAUOnePlayerReport@@@Z 1000b170 f   GSC_ChatWindow.obj
 0001:0000a360       ?ReportAliveState@@YAXHPAH@Z 1000b360 f   GSC_ChatWindow.obj
 0001:0000a4c0       ?SendVictoryState@@YAXHE@Z 1000b4c0 f   GSC_ChatWindow.obj
 0001:0000a6d0       ?DisableRatedGame@@YAXXZ   1000b6d0 f   GSC_ChatWindow.obj
 0001:0000a790       ?CheckIfGameRated@@YA_NXZ  1000b790 f   GSC_ChatWindow.obj
 0001:0000a7f0       ?AddCUserInfo@@YAXPAD0@Z   1000b7f0 f   GSC_ChatWindow.obj
 0001:0000a840       ?Add@CNamesCash@@QAEXPAD0_N@Z 1000b840 f i GSC_ChatWindow.obj
 0001:0000a9c0       ?Save@CNamesCash@@QAEXXZ   1000b9c0 f i GSC_ChatWindow.obj
 0001:0000aa70       ?GetLocalInfo@CNamesCash@@QAEPADPAD@Z 1000ba70 f i GSC_ChatWindow.obj
 0001:0000ab10       ?Load@CNamesCash@@QAEXXZ   1000bb10 f i GSC_ChatWindow.obj
 0001:0000ac70       ?GetCUserInfo@@YAPADPAD@Z  1000bc70 f   GSC_ChatWindow.obj
 0001:0000acb0       ??0CNamesCash@@QAE@XZ      1000bcb0 f i GSC_ChatWindow.obj
 0001:0000ad00       ??1CNamesCash@@QAE@XZ      1000bd00 f i GSC_ChatWindow.obj
 0001:0000ad50       ?Clear@CNamesCash@@QAEXXZ  1000bd50 f i GSC_ChatWindow.obj
 0001:0000ae60       _DllMain@12                1000be60 f   IChat.obj
 0001:0000ae90       ?SetupChat@@YAXXZ          1000be90 f   IChat.obj
 0001:0000aec0       ??0ParsedRQ@@QAE@XZ        1000bec0 f   ParseRQ.obj
 0001:0000af10       ??1ParsedRQ@@QAE@XZ        1000bf10 f   ParseRQ.obj
 0001:0000af50       ?AddComm@ParsedRQ@@QAEXPAD@Z 1000bf50 f   ParseRQ.obj
 0001:0000b070       ?AddParam@ParsedRQ@@QAEXPADH@Z 1000c070 f   ParseRQ.obj
 0001:0000b1b0       ?Clear@ParsedRQ@@QAEXXZ    1000c1b0 f   ParseRQ.obj
 0001:0000b300       ?GetHVal@@YAHD@Z           1000c300 f   ParseRQ.obj
 0001:0000b360       ?Parse@ParsedRQ@@QAEXPAD@Z 1000c360 f   ParseRQ.obj
 0001:0000b680       ?Compact@ParsedRQ@@QAEHPADH@Z 1000c680 f   ParseRQ.obj
 0001:0000b8c0       ?Extract@ParsedRQ@@QAEXPADH@Z 1000c8c0 f   ParseRQ.obj
 0001:0000ba80       ?UnParse@ParsedRQ@@QAEHPADH@Z 1000ca80 f   ParseRQ.obj
 0001:0000bee0       ?DelComm@ParsedRQ@@QAEXH@Z 1000cee0 f   ParseRQ.obj
 0001:0000c040       ?AddParamToCom@ParsedRQ@@QAEXHPADH@Z 1000d040 f   ParseRQ.obj
 0001:0000c170       ?AddIntParam@ParsedRQ@@QAEXH@Z 1000d170 f   ParseRQ.obj
 0001:0000c200       _ciInitCallbacks           1000d200 f   chatCallbacks.obj
 0001:0000c2e0       _ciCleanupCallbacks        1000d2e0 f   chatCallbacks.obj
 0001:0000cfd0       _ciAddCallback_            1000dfd0 f   chatCallbacks.obj
 0001:0000fc80       _ciCallCallback            10010c80 f   chatCallbacks.obj
 0001:00010970       _ciCallCallbacks           10011970 f   chatCallbacks.obj
 0001:00010bf0       _ciCheckCallbacksForID     10011bf0 f   chatCallbacks.obj
 0001:00010de0       _ciInitChannels            10011de0 f   chatChannel.obj
 0001:000111f0       _ciCleanupChannels         100121f0 f   chatChannel.obj
 0001:00011290       _ciChannelEntering         10012290 f   chatChannel.obj
 0001:00011370       _ciEnteringChannelComparator 10012370 f   chatChannel.obj
 0001:000113c0       _ciIsEnteringChannel       100123c0 f   chatChannel.obj
 0001:000114b0       _ciChannelEntered          100124b0 f   chatChannel.obj
 0001:00011920       _ciChannelLeft             10012920 f   chatChannel.obj
 0001:00011ab0       _ciGetChannelCallbacks     10012ab0 f   chatChannel.obj
 0001:00011c50       _ciChannelListUsers        10012c50 f   chatChannel.obj
 0001:000120f0       _ciInChannel               100130f0 f   chatChannel.obj
 0001:00012170       _ciGetChannelMode          10013170 f   chatChannel.obj
 0001:00012290       _ciSetChannelMode          10013290 f   chatChannel.obj
 0001:000123a0       _ciSetChannelPassword      100133a0 f   chatChannel.obj
 0001:00012500       _ciGetChannelPassword      10013500 f   chatChannel.obj
 0001:00012600       _ciJoinCallbackCalled      10013600 f   chatChannel.obj
 0001:00012700       _ciWasJoinCallbackCalled   10013700 f   chatChannel.obj
 0001:00012800       _ciSetChannelTopic         10013800 f   chatChannel.obj
 0001:00012910       _ciGetChannelTopic         10013910 f   chatChannel.obj
 0001:00012a10       _ciGetChannelNumUsers      10013a10 f   chatChannel.obj
 0001:00012b10       _ciUserEnteredChannel      10013b10 f   chatChannel.obj
 0001:00012d80       _ciUserLeftChannel         10013d80 f   chatChannel.obj
 0001:00012f20       _ciUserEnumChannels        10013f20 f   chatChannel.obj
 0001:00013220       _ciUserChangedNick         10014220 f   chatChannel.obj
 0001:00013710       _ciUserChangedMode         10014710 f   chatChannel.obj
 0001:000139e0       _ciUserInChannel           100149e0 f   chatChannel.obj
 0001:00013ad0       _ciGetUserMode             10014ad0 f   chatChannel.obj
 0001:00013bd0       _ciEnumJoinedChannels      10014bd0 f   chatChannel.obj
 0001:00013d90       _ciSetUserBasicInfo        10014d90 f   chatChannel.obj
 0001:00014020       _ciGetUserBasicInfo        10015020 f   chatChannel.obj
 0001:000142d0       _ciClearAllUsers           100152d0 f   chatChannel.obj
 0001:00014540       _ciFilterThink             10015540 f   chatHandlers.obj
 0001:00015560       _ciGetNextID               10016560 f   chatHandlers.obj
 0001:00015600       _ciCheckFiltersForID       10016600 f   chatHandlers.obj
 0001:000156b0       _ciCleanupFilters          100166b0 f   chatHandlers.obj
 0001:00015730       _ciAddLISTFilter           10016730 f   chatHandlers.obj
 0001:00015910       _ciAddJOINFilter           10016910 f   chatHandlers.obj
 0001:00015a20       _ciAddTOPICFilter          10016a20 f   chatHandlers.obj
 0001:00015a80       _ciAddNAMESFilter          10016a80 f   chatHandlers.obj
 0001:00015b00       _ciAddWHOISFilter          10016b00 f   chatHandlers.obj
 0001:00015ba0       _ciAddWHOFilter            10016ba0 f   chatHandlers.obj
 0001:00015c00       _ciAddCWHOFilter           10016c00 f   chatHandlers.obj
 0001:00015c60       _ciAddCMODEFilter          10016c60 f   chatHandlers.obj
 0001:00015cc0       _ciAddUMODEFilter          10016cc0 f   chatHandlers.obj
 0001:00015d20       _ciAddBANFilter            10016d20 f   chatHandlers.obj
 0001:00015dc0       _ciAddGETBANFilter         10016dc0 f   chatHandlers.obj
 0001:00015e40       _ciAddNICKFilter           10016e40 f   chatHandlers.obj
 0001:00015ea0       _ciAddGETKEYFilter         10016ea0 f   chatHandlers.obj
 0001:00016000       _ciAddGETCKEYFilter        10017000 f   chatHandlers.obj
 0001:000161c0       _ciAddGETCHANKEYFilter     100171c0 f   chatHandlers.obj
 0001:00016380       _ciAddUNQUIETFilter        10017380 f   chatHandlers.obj
 0001:00016430       _ciParseMode               10017430 f   chatHandlers.obj
 0001:00016830       _ciApplyChangesToMode      10017830 f   chatHandlers.obj
 0001:000169b0       _ciNickError               100179b0 f   chatHandlers.obj
 0001:00016ac0       _ciPrivmsgHandler          10017ac0 f   chatHandlers.obj
 0001:00016d80       _ciNoticeHandler           10017d80 f   chatHandlers.obj
 0001:00016f60       _ciUTMHandler              10017f60 f   chatHandlers.obj
 0001:00017140       _ciATMHandler              10018140 f   chatHandlers.obj
 0001:00017320       _ciPingHandler             10018320 f   chatHandlers.obj
 0001:000173a0       _ciNickHandler             100183a0 f   chatHandlers.obj
 0001:00017750       _ciJoinHandler             10018750 f   chatHandlers.obj
 0001:00017ac0       _ciPartHandler             10018ac0 f   chatHandlers.obj
 0001:00017c70       _ciKickHandler             10018c70 f   chatHandlers.obj
 0001:00017ee0       _ciQuitEnumChannelsCallback 10018ee0 f   chatHandlers.obj
 0001:000180e0       _ciQuitHandler             100190e0 f   chatHandlers.obj
 0001:00018190       _ciKillEnumChannelsCallback 10019190 f   chatHandlers.obj
 0001:00018390       _ciKillHandler             10019390 f   chatHandlers.obj
 0001:00018430       _ciTopicHandler            10019430 f   chatHandlers.obj
 0001:00018570       _ciModeHandler             10019570 f   chatHandlers.obj
 0001:00018820       _ciErrorHandler            10019820 f   chatHandlers.obj
 0001:00018900       _ciInviteHandler           10019900 f   chatHandlers.obj
 0001:00018a10       _ciNameReplyHandler        10019a10 f   chatHandlers.obj
 0001:00018f40       _ciEndOfNamesHandler       10019f40 f   chatHandlers.obj
 0001:000191d0       _ciRplTopicHandler         1001a1d0 f   chatHandlers.obj
 0001:00019370       _ciRplNoTopicHandler       1001a370 f   chatHandlers.obj
 0001:000194f0       _ciErrNickInUseHandler     1001a4f0 f   chatHandlers.obj
 0001:00019680       _ciRplWhoReplyHandler      1001a680 f   chatHandlers.obj
 0001:00019940       _ciRplEndOfWhoHandler      1001a940 f   chatHandlers.obj
 0001:00019ad0       _ciRplGetKeyHandler        1001aad0 f   chatHandlers.obj
 0001:00019e40       _ciRplEndGetKeyHandler     1001ae40 f   chatHandlers.obj
 0001:00019f70       _ciRplGetCKeyHandler       1001af70 f   chatHandlers.obj
 0001:0001a500       _ciRplEndGetCKeyHandler    1001b500 f   chatHandlers.obj
 0001:0001a640       _ciRplGetChanKeyHandler    1001b640 f   chatHandlers.obj
 0001:0001adb0       _ciRplUserIPHandler        1001bdb0 f   chatHandlers.obj
 0001:0001aef0       _ciRplListStartHandler     1001bef0 f   chatHandlers.obj
 0001:0001afc0       _ciRplListHandler          1001bfc0 f   chatHandlers.obj
 0001:0001b350       _ciRplListEndHandler       1001c350 f   chatHandlers.obj
 0001:0001b440       _ciRplChannelModeIsHandler 1001c440 f   chatHandlers.obj
 0001:0001b6b0       _ciRplWhoisUserHandler     1001c6b0 f   chatHandlers.obj
 0001:0001b990       _ciRplWhoisChannelsHandler 1001c990 f   chatHandlers.obj
 0001:0001bb80       _ciRplEndOfWhoisHandler    1001cb80 f   chatHandlers.obj
 0001:0001bcd0       _ciRplBanListHandler       1001ccd0 f   chatHandlers.obj
 0001:0001be90       _ciRplEndOfBanListHandler  1001ce90 f   chatHandlers.obj
 0001:0001bfb0       _ciRplWelcomeHandler       1001cfb0 f   chatHandlers.obj
 0001:0001c0b0       _ciErrNoSuchChannelHandler 1001d0b0 f   chatHandlers.obj
 0001:0001c220       _ciErrTooManyChannelsHandler 1001d220 f   chatHandlers.obj
 0001:0001c330       _ciErrChannelIsFullHandler 1001d330 f   chatHandlers.obj
 0001:0001c440       _ciErrInviteOnlyChanHandler 1001d440 f   chatHandlers.obj
 0001:0001c550       _ciErrBannedFromChanHandler 1001d550 f   chatHandlers.obj
 0001:0001c660       _ciErrBadChannelKeyHandler 1001d660 f   chatHandlers.obj
 0001:0001c770       _ciErrBadChanMaskHandler   1001d770 f   chatHandlers.obj
 0001:0001c880       _ciErrNoSuchNickHandler    1001d880 f   chatHandlers.obj
 0001:0001c8b0       _ciErrErroneusNicknameHandler 1001d8b0 f   chatHandlers.obj
 0001:0001c920       _ciHandleDisconnect        1001d920 f   chatMain.obj
 0001:0001ca10       _ciSendNickAndUser         1001da10 f   chatMain.obj
 0001:0001cb40       _chatConnectDoit           1001db40 f   chatMain.obj
 0001:0001d0f0       _chatConnect               1001e0f0 f   chatMain.obj
 0001:0001d160       _chatConnectSpecial        1001e160 f   chatMain.obj
 0001:0001d1d0       _chatRetryWithNick         1001e1d0 f   chatMain.obj
 0001:0001d2b0       _chatDisconnect            1001e2b0 f   chatMain.obj
 0001:0001d3c0       _chatThink                 1001e3c0 f   chatMain.obj
 0001:0001d400       _chatSendRaw               1001e400 f   chatMain.obj
 0001:0001d480       _chatChangeNick            1001e480 f   chatMain.obj
 0001:0001d7b0       _chatGetNick               1001e7b0 f   chatMain.obj
 0001:0001d820       _chatFixNick               1001e820 f   chatMain.obj
 0001:0001d920       _chatSetQuietMode          1001e920 f   chatMain.obj
 0001:0001da60       _chatEnumChannels          1001ea60 f   chatMain.obj
 0001:0001db70       _chatEnterChannel          1001eb70 f   chatMain.obj
 0001:0001dcd0       _chatLeaveChannel          1001ecd0 f   chatMain.obj
 0001:0001ddc0       _chatSendChannelMessage    1001edc0 f   chatMain.obj
 0001:0001e000       _chatSetChannelTopic       1001f000 f   chatMain.obj
 0001:0001e0e0       _chatGetChannelTopic       1001f0e0 f   chatMain.obj
 0001:0001e2b0       _chatSetChannelMode        1001f2b0 f   chatMain.obj
 0001:0001e490       _chatGetChannelMode        1001f490 f   chatMain.obj
 0001:0001e6b0       _chatSetChannelPassword    1001f6b0 f   chatMain.obj
 0001:0001e7f0       _chatGetChannelPassword    1001f7f0 f   chatMain.obj
 0001:0001e9c0       _chatEnumChannelBans       1001f9c0 f   chatMain.obj
 0001:0001eb00       _chatAddChannelBan         1001fb00 f   chatMain.obj
 0001:0001ec10       _chatRemoveChannelBan      1001fc10 f   chatMain.obj
 0001:0001ed20       _chatSetChannelGroup       1001fd20 f   chatMain.obj
 0001:0001ee00       _chatGetChannelNumUsers    1001fe00 f   chatMain.obj
 0001:0001eef0       _ciEnumUsersCallback       1001fef0 f   chatMain.obj
 0001:0001f170       _chatEnumUsers             10020170 f   chatMain.obj
 0001:0001f2f0       _chatEnumJoinedChannels    100202f0 f   chatMain.obj
 0001:0001f340       _chatSendUserMessage       10020340 f   chatMain.obj
 0001:0001f520       _chatGetUserInfo           10020520 f   chatMain.obj
 0001:0001f690       _chatGetBasicUserInfo      10020690 f   chatMain.obj
 0001:0001f8b0       _chatGetBasicUserInfoNoWait 100208b0 f   chatMain.obj
 0001:0001f9b0       _chatGetChannelBasicUserInfo 100209b0 f   chatMain.obj
 0001:0001faf0       _chatInviteUser            10020af0 f   chatMain.obj
 0001:0001fc30       _chatKickUser              10020c30 f   chatMain.obj
 0001:0001fd80       _chatBanUser               10020d80 f   chatMain.obj
 0001:0001fed0       _chatSetUserMode           10020ed0 f   chatMain.obj
 0001:00020090       _chatGetUserMode           10021090 f   chatMain.obj
 0001:00020310       _chatGetUserModeNoWait     10021310 f   chatMain.obj
 0001:00020480       _chatSetGlobalKeys         10021480 f   chatMain.obj
 0001:00020610       _chatGetGlobalKeys         10021610 f   chatMain.obj
 0001:00020aa0       _chatSetChannelKeys        10021aa0 f   chatMain.obj
 0001:00020c20       _chatGetChannelKeys        10021c20 f   chatMain.obj
 0001:000210e0       _ciGetTime                 100220e0 f   chatSocket.obj
 0001:000211c0       _ciSocketInit              100221c0 f   chatSocket.obj
 0001:00021360       _ciSocketConnect           10022360 f   chatSocket.obj
 0001:00021770       _ciSocketDisconnect        10022770 f   chatSocket.obj
 0001:00021ae0       _ciSocketThink             10022ae0 f   chatSocket.obj
 0001:00022a10       _ciSocketSend              10023a10 f   chatSocket.obj
 0001:00022d80       _ciSocketSendf             10023d80 f   chatSocket.obj
 0001:00023070       _ciParseParam              10024070 f   chatSocket.obj
 0001:000232b0       _ciSocketRecv              100242b0 f   chatSocket.obj
 0001:000240d0       _ArrayNew                  100250d0 f   darray.obj
 0001:000241d0       _ArrayFree                 100251d0 f   darray.obj
 0001:000242d0       _ArrayLength               100252d0 f   darray.obj
 0001:00024300       _ArrayNth                  10025300 f   darray.obj
 0001:00024370       _ArrayAppend               10025370 f   darray.obj
 0001:000243c0       _ArrayInsertAt             100253c0 f   darray.obj
 0001:000245a0       _ArrayInsertSorted         100255a0 f   darray.obj
 0001:00024680       _ArrayRemoveAt             10025680 f   darray.obj
 0001:00024740       _ArrayDeleteAt             10025740 f   darray.obj
 0001:000247c0       _ArrayReplaceAt            100257c0 f   darray.obj
 0001:00024850       _ArraySort                 10025850 f   darray.obj
 0001:000248b0       _ArraySearch               100258b0 f   darray.obj
 0001:000249d0       _ArrayMap                  100259d0 f   darray.obj
 0001:00024a70       _ArrayMapBackwards         10025a70 f   darray.obj
 0001:00024b10       _ArrayMap2                 10025b10 f   darray.obj
 0001:00024bc0       _ArrayClear                10025bc0 f   darray.obj
 0001:00024d70       _TableNew                  10025d70 f   hashtable.obj
 0001:00024dc0       _TableNew2                 10025dc0 f   hashtable.obj
 0001:00024f40       _TableFree                 10025f40 f   hashtable.obj
 0001:00024fe0       _TableCount                10025fe0 f   hashtable.obj
 0001:00025060       _TableEnter                10026060 f   hashtable.obj
 0001:00025120       _TableRemove               10026120 f   hashtable.obj
 0001:000251c0       _TableLookup               100261c0 f   hashtable.obj
 0001:00025260       _TableMap                  10026260 f   hashtable.obj
 0001:000252f0       _TableMapSafe              100262f0 f   hashtable.obj
 0001:00025380       _TableMap2                 10026380 f   hashtable.obj
 0001:00025420       _TableClear                10026420 f   hashtable.obj
 0001:00025490       _MD5Init                   10026490 f   md5c.obj
 0001:000254f0       _MD5Update                 100264f0 f   md5c.obj
 0001:00025620       _MD5Final                  10026620 f   md5c.obj
 0001:000267b0       _MD5Print                  100277b0 f   md5c.obj
 0001:00026820       _MD5Digest                 10027820 f   md5c.obj
 0001:000268d0       _current_time              100278d0 f   nonport.obj
 0001:00026920       _msleep                    10027920 f   nonport.obj
 0001:00026970       _SocketStartUp             10027970 f   nonport.obj
 0001:000269e0       _SocketShutDown            100279e0 f   nonport.obj
 0001:00026a20       _goastrdup                 10027a20 f   nonport.obj
 0001:00026a90       _SetSockBlocking           10027a90 f   nonport.obj
 0001:00026b30       _DisableNagle              10027b30 f   nonport.obj
 0001:00026bc0       _SetReceiveBufferSize      10027bc0 f   nonport.obj
 0001:00026c20       _GOAGetUniqueID            10027c20 f   nonport.obj
 0001:000270e0       ?_ExRealloc@@YAPAXPAXH@Z   100280e0 f   engine:engine.exe
 0001:000270e6       ?AddToGChat@@YAXPAD0@Z     100280e6 f   engine:engine.exe
 0001:000270ec       ?_ExMalloc@@YAPAXH@Z       100280ec f   engine:engine.exe
 0001:000270f2       ?_ExFree@@YAXPAX@Z         100280f2 f   engine:engine.exe
 0001:000270f8       ?FlipPages@@YAXXZ          100280f8 f   engine:engine.exe
 0001:000270fe       ?ProcessWindowMessages@@YA_NXZ 100280fe f   engine:engine.exe
 0001:00027104       ?PlayEffect@@YAXHHH@Z      10028104 f   engine:engine.exe
 0001:0002710a       ?GetSound@@YAHPAD@Z        1002810a f   engine:engine.exe
 0001:00027110       ?Ggetch@@YAHPAVGFILE@@@Z   10028110 f   engine:engine.exe
 0001:00027116       ?GetRLCStrWidth@@YAHPADPAVRLCFont@@@Z 10028116 f   engine:engine.exe
 0001:0002711c       ?g_GetWindParam@@YAXAAH000@Z 1002811c f   engine:engine.exe
 0001:00027122       ?g_SetWindParam@@YAXHHHH@Z 10028122 f   engine:engine.exe
 0001:00027128       ?xLine@@YAXHHHHE@Z         10028128 f   engine:engine.exe
 0001:0002712e       ?ShowString@@YAXHHPBDPAVRLCFont@@@Z 1002812e f   engine:engine.exe
 0001:00027134       ?ShowClanString@@YAXHHPADEPAVRLCFont@@1HH@Z 10028134 f   engine:engine.exe
 0001:0002713a       ?GetPaletteColor@@YAEHHH@Z 1002813a f   engine:engine.exe
 0001:00027140       ?DrawStdBar2@@YAXHHHHH@Z   10028140 f   engine:engine.exe
 0001:00027146       ??1LocalGP@@QAE@XZ         10028146 f   engine:engine.exe
 0001:0002714c       ??1DialogsSystem@@UAE@XZ   1002814c f   engine:engine.exe
 0001:00027152       ?SendPings@@YAXXZ          10028152 f   engine:engine.exe
 0001:00027158       ?EnumPlr@@YA_NXZ           10028158 f   engine:engine.exe
 0001:0002715e       ?RefreshView@DialogsSystem@@QAEXXZ 1002815e f   engine:engine.exe
 0001:00027164       ?ProcessDialogs@DialogsSystem@@QAEXXZ 10028164 f   engine:engine.exe
 0001:0002716a       ?MarkToDraw@DialogsSystem@@QAEXXZ 1002816a f   engine:engine.exe
 0001:00027170       ?StdKeys@@YAXXZ            10028170 f   engine:engine.exe
 0001:00027176       ?addColoredBar@ParentFrame@@QAEPAVColoredBar@@HHHHE@Z 10028176 f   engine:engine.exe
 0001:0002717c       ?addTextButton@ParentFrame@@QAEPAVTextButton@@PAVSimpleDialog@@HHPADPAVRLCFont@@22E@Z 1002817c f   engine:engine.exe
 0001:00027182       ?addInputBox@ParentFrame@@QAEPAVInputBox@@PAVSimpleDialog@@HHPADHHHPAVRLCFont@@2@Z 10028182 f   engine:engine.exe
 0001:00027188       ?MMItemChoose@@YA_NPAVSimpleDialog@@@Z 10028188 f   engine:engine.exe
 0001:0002718e       ?addGP_TextButton@ParentFrame@@QAEPAVGP_TextButton@@PAVSimpleDialog@@HHPADHHPAVRLCFont@@2@Z 1002818e f   engine:engine.exe
 0001:00027194       ?GetTextByID@@YAPADPAD@Z   10028194 f   engine:engine.exe
 0001:0002719a       ?addGPPicture@ParentFrame@@QAEPAVGPPicture@@PAVSimpleDialog@@HHHH@Z 1002819a f   engine:engine.exe
 0001:000271a0       ?addCustomBorder@ParentFrame@@QAEPAVCustomBorder@@HHHHHPAH0HH@Z 100281a0 f   engine:engine.exe
 0001:000271a6       ??0DialogsSystem@@QAE@HH@Z 100281a6 f   engine:engine.exe
 0001:000271ac       ?DarkScreen@@YAXXZ         100281ac f   engine:engine.exe
 0001:000271b2       ??0LocalGP@@QAE@PAD@Z      100281b2 f   engine:engine.exe
 0001:000271b8       ?DrawCentralTextWithBorder@@YAXPAD@Z 100281b8 f   engine:engine.exe
 0001:000271be       ?GetRLCHeight@@YAHPAUxRLCTable@@E@Z 100281be f   engine:engine.exe
 0001:000271c4       ?GetGPWidth@GP_System@@QAEHHH@Z 100281c4 f   engine:engine.exe
 0001:000271ca       ?ShowGP@GP_System@@QAEXHHHHE@Z 100281ca f   engine:engine.exe
 0001:000271d0       ?LoadGP@GP_System@@QAE_NH@Z 100281d0 f   engine:engine.exe
 0001:000271d6       ?PreLoadGPImage@GP_System@@QAEHPAD@Z 100281d6 f   engine:engine.exe
 0001:000271dc       ?SetRoomOptions@@YAXPAD@Z  100281dc f   engine:engine.exe
 0001:000271e2       ?SetInetPlayerName@@YAXPAD@Z 100281e2 f   engine:engine.exe
 0001:000271e8       ?LoadPicture@SQPicture@@QAEXPAD_N@Z 100281e8 f   engine:engine.exe
 0001:000271ee       ?ExplorerRefresh@@YAXH@Z   100281ee f   engine:engine.exe
 0001:000271f4       ?ExplorerBack@@YAXH@Z      100281f4 f   engine:engine.exe
 0001:000271fa       ?ExplorerSetVar@@YAXHPAD0@Z 100281fa f   engine:engine.exe
 0001:00027200       ?LoadPalette@@YAXPBD@Z     10028200 f   engine:engine.exe
 0001:00027206       ?ProcessExplorerDSS@@YAXHPAVDialogsSystem@@@Z 10028206 f   engine:engine.exe
 0001:0002720c       ?GetWheelDelta@@YAH_N@Z    1002820c f   engine:engine.exe
 0001:00027212       ?SetCurPtr@@YAXH@Z         10028212 f   engine:engine.exe
 0001:00027218       ?RClose@@YAXPAX@Z          10028218 f   engine:engine.exe
 0001:0002721e       ?ExplorerOpenRef@@YAXHPAD@Z 1002821e f   engine:engine.exe
 0001:00027224       ?RunExplorer@@YAXHPADHHHH@Z 10028224 f   engine:engine.exe
 0001:0002722a       ?RBlockRead@@YAKPAX0K@Z    1002822a f   engine:engine.exe
 0001:00027230       ?RFileSize@@YAKPAX@Z       10028230 f   engine:engine.exe
 0001:00027236       ?RReset@@YAPAXPBD@Z        10028236 f   engine:engine.exe
 0001:0002723c       ?addGP_Button@ParentFrame@@QAEPAVGP_Button@@PAVSimpleDialog@@HHHHH@Z 1002823c f   engine:engine.exe
 0001:00027242       ?addComplexBox@ParentFrame@@QAEPAVComplexBox@@HHHHP6AXHHHHHEH@ZHH@Z 10028242 f   engine:engine.exe
 0001:00027248       ?addNewGP_VScrollBar@ParentFrame@@QAEPAVVScrollBar@@PAVSimpleDialog@@HHHHHHH@Z 10028248 f   engine:engine.exe
 0001:0002724e       ?addChatViewer@ParentFrame@@QAEPAVChatViewer@@PAVSimpleDialog@@HHHHHPAPAPAD1PAH@Z 1002824e f   engine:engine.exe
 0001:00027254       ?addPicture@ParentFrame@@QAEPAVPicture@@PAVSimpleDialog@@HHPAVSQPicture@@11@Z 10028254 f   engine:engine.exe
 0001:0002725a       ??0DialogsSystem@@QAE@XZ   1002825a f   engine:engine.exe
 0001:00027260       ??1SQPicture@@QAE@XZ       10028260 f   engine:engine.exe
 0001:00027266       ?Draw@SQPicture@@QAEXHH@Z  10028266 f   engine:engine.exe
 0001:0002726c       ?ExplorerGetVar@@YAPADHPAD@Z 1002826c f   engine:engine.exe
 0001:00027272       ??0SQPicture@@QAE@PAD@Z    10028272 f   engine:engine.exe
 0001:00027278       ?SlowLoadPalette@@YAXPBD@Z 10028278 f   engine:engine.exe
 0001:0002727e       ?LoadFog@@YAXH@Z           1002827e f   engine:engine.exe
 0001:00027284       ?ClearGChat@@YAXXZ         10028284 f   engine:engine.exe
 0001:0002728a       ?Gclose@@YAXPAVGFILE@@@Z   1002828a f   engine:engine.exe
 0001:00027290       ?Gopen@@YAPAVGFILE@@PAD0@Z 10028290 f   engine:engine.exe
 0001:00027296       ?CheckUsingAI@@YA_NXZ      10028296 f   engine:engine.exe
 0001:0002729c       ?RSeek@@YAKPAXH@Z          1002829c f   engine:engine.exe
 0001:000272a2       ?CheckGSC_Login@@YA_NXZ    100282a2 f   engine:engine.exe
 0001:000272a8       _GetTickCount@0            100282a8 f   kernel32:KERNEL32.dll
 0001:000272ae       _CreateProcessA@40         100282ae f   kernel32:KERNEL32.dll
 0001:000272b4       _Sleep@4                   100282b4 f   kernel32:KERNEL32.dll
 0001:000272ba       _QueryPerformanceCounter@4 100282ba f   kernel32:KERNEL32.dll
 0001:000272c0       _RegCloseKey@4             100282c0 f   advapi32:ADVAPI32.dll
 0001:000272c6       _RegSetValueExA@24         100282c6 f   advapi32:ADVAPI32.dll
 0001:000272cc       _RegCreateKeyExA@36        100282cc f   advapi32:ADVAPI32.dll
 0001:000272d2       _RegQueryValueExA@24       100282d2 f   advapi32:ADVAPI32.dll
 0001:000272d8       _RegOpenKeyExA@20          100282d8 f   advapi32:ADVAPI32.dll
 0001:000272e0       _strcpy                    100282e0 f   LIBCMT:strcat.obj
 0001:000272f0       _strcat                    100282f0 f   LIBCMT:strcat.obj
 0001:000273e0       _memset                    100283e0 f   LIBCMT:memset.obj
 0001:00027440       _strcmp                    10028440 f   LIBCMT:strcmp.obj
 0001:000274c8       __RTC_CheckEsp             100284c8 f   LIBCMT:stack.obj
 0001:000274eb       @_RTC_CheckStackVars@8     100284eb f   LIBCMT:stack.obj
 0001:00027545       __RTC_InitBase             10028545 f   LIBCMT:init.obj
 0001:0002756b       __RTC_Shutdown             1002856b f   LIBCMT:init.obj
 0001:00027580       _memcpy                    10028580 f   LIBCMT:memcpy.obj
 0001:000278bd       _sprintf                   100288bd f   LIBCMT:sprintf.obj
 0001:00027915       __scprintf                 10028915 f   LIBCMT:sprintf.obj
 0001:00027950       _strstr                    10028950 f   LIBCMT:strstr.obj
 0001:000279f0       _strchr                    100289f0 f   LIBCMT:strchr.obj
 0001:000279f6       ___from_strstr_to_strchr   100289f6     LIBCMT:strchr.obj
 0001:00027aae       _srand                     10028aae f   LIBCMT:rand.obj
 0001:00027abb       _rand                      10028abb f   LIBCMT:rand.obj
 0001:00027add       ??_L@YGXPAXIHP6EX0@Z1@Z    10028add f   LIBCMT:ehvecctr.obj
 0001:00027b3f       ?_JumpToContinuation@@YGXPAXPAUEHRegistrationNode@@@Z 10028b3f f   LIBCMT:trnsctrl.obj
 0001:00027b6f       ?_CallMemberFunction0@@YGXPAX0@Z 10028b6f f   LIBCMT:trnsctrl.obj
 0001:00027b76       ?_CallMemberFunction1@@YGXPAX00@Z 10028b76 f   LIBCMT:trnsctrl.obj
 0001:00027b7d       ?_CallMemberFunction2@@YGXPAX00H@Z 10028b7d f   LIBCMT:trnsctrl.obj
 0001:00027b84       ?_UnwindNestedFrames@@YGXPAUEHRegistrationNode@@PAUEHExceptionRecord@@@Z 10028b84 f   LIBCMT:trnsctrl.obj
 0001:00027bd6       ___CxxFrameHandler         10028bd6 f   LIBCMT:trnsctrl.obj
 0001:00027c0c       ___CxxLongjmpUnwind@4      10028c0c f   LIBCMT:trnsctrl.obj
 0001:00027c61       ?_CallSETranslator@@YAHPAUEHExceptionRecord@@PAUEHRegistrationNode@@PAX2PBU_s_FuncInfo@@H1@Z 10028c61 f   LIBCMT:trnsctrl.obj
 0001:00027dda       ?_GetRangeOfTrysToCheck@@YAPBU_s_TryBlockMapEntry@@PBU_s_FuncInfo@@HHPAI1@Z 10028dda f   LIBCMT:trnsctrl.obj
 0001:00027e54       ?_CreateFrameInfo@@YAPAUFrameInfo@@PAU1@PAX@Z 10028e54 f   LIBCMT:trnsctrl.obj
 0001:00027e7c       ?IsExceptionObjectToBeDestroyed@@YAHPAX@Z 10028e7c f   LIBCMT:trnsctrl.obj
 0001:00027e9d       ?_FindAndUnlinkFrame@@YAXPAUFrameInfo@@@Z 10028e9d f   LIBCMT:trnsctrl.obj
 0001:00027ee9       ?_CallCatchBlock2@@YAPAXPAUEHRegistrationNode@@PBU_s_FuncInfo@@PAXHK@Z 10028ee9 f   LIBCMT:trnsctrl.obj
 0001:00027f44       __global_unwind2           10028f44 f   LIBCMT:exsup.obj
 0001:00027f86       __local_unwind2            10028f86 f   LIBCMT:exsup.obj
 0001:00027fde       __NLG_Return2              10028fde     LIBCMT:exsup.obj
 0001:00027fee       __abnormal_termination     10028fee f   LIBCMT:exsup.obj
 0001:00028011       __NLG_Notify1              10029011 f   LIBCMT:exsup.obj
 0001:0002801a       __NLG_Notify               1002901a f   LIBCMT:exsup.obj
 0001:0002802d       __NLG_Dispatch             1002902d     LIBCMT:exsup.obj
 0001:00028044       ?__ArrayUnwind@@YGXPAXIHP6EX0@Z@Z 10029044 f   LIBCMT:ehvecdtr.obj
 0001:000280a2       ??_M@YGXPAXIHP6EX0@Z@Z     100290a2 f   LIBCMT:ehvecdtr.obj
 0001:00028110       _strlen                    10029110 f   LIBCMT:strlen.obj
 0001:000281a0       _memmove                   100291a0 f   LIBCMT:memmove.obj
 0001:000284e0       _strncpy                   100294e0 f   LIBCMT:strncpy.obj
 0001:00028604       _atol                      10029604 f   LIBCMT:atox.obj
 0001:0002868c       _atoi                      1002968c f   LIBCMT:atox.obj
 0001:00028691       __atoi64                   10029691 f   LIBCMT:atox.obj
 0001:00028740       _strncmp                   10029740 f   LIBCMT:strncmp.obj
 0001:00028779       __fclose_lk                10029779 f   LIBCMT:fclose.obj
 0001:000287c5       _fclose                    100297c5 f   LIBCMT:fclose.obj
 0001:00028816       __fwrite_lk                10029816 f   LIBCMT:fwrite.obj
 0001:0002891d       _fwrite                    1002991d f   LIBCMT:fwrite.obj
 0001:00028969       __fsopen                   10029969 f   LIBCMT:fopen.obj
 0001:000289c5       _fopen                     100299c5 f   LIBCMT:fopen.obj
 0001:000289d8       _sscanf                    100299d8 f   LIBCMT:sscanf.obj
 0001:00028a10       __chkstk                   10029a10 f   LIBCMT:chkstk.obj
 0001:00028a10       __alloca_probe             10029a10     LIBCMT:chkstk.obj
 0001:00028a4d       _fprintf                   10029a4d f   LIBCMT:fprintf.obj
 0001:00028b2b       ___onexitinit              10029b2b f   LIBCMT:onexit.obj
 0001:00028b53       __onexit                   10029b53 f   LIBCMT:onexit.obj
 0001:00028b8b       _atexit                    10029b8b f   LIBCMT:onexit.obj
 0001:00028b9d       _free                      10029b9d f   LIBCMT:free.obj
 0001:00028c0e       __assert                   10029c0e f   LIBCMT:assert.obj
 0001:00028fe3       __heap_alloc               10029fe3 f   LIBCMT:malloc.obj
 0001:0002905e       __nh_malloc                1002a05e f   LIBCMT:malloc.obj
 0001:0002908a       _malloc                    1002a08a f   LIBCMT:malloc.obj
 0001:0002909c       __tolower                  1002a09c f   LIBCMT:tolower.obj
 0001:000290a4       ___tolower_mt              1002a0a4 f   LIBCMT:tolower.obj
 0001:0002916c       _tolower                   1002a16c f   LIBCMT:tolower.obj
 0001:0002918e       _stricmp                   1002a18e f   LIBCMT:stricmp.obj
 0001:0002918e       __stricmp                  1002a18e f   LIBCMT:stricmp.obj
 0001:000291f7       _realloc                   1002a1f7 f   LIBCMT:realloc.obj
 0001:00029651       ?_RTC_Failure@@YAXPAXH@Z   1002a651 f   LIBCMT:error.obj
 0001:0002968f       ?_RTC_MemFailure@@YAXPAXHPBX@Z 1002a68f f   LIBCMT:error.obj
 0001:00029823       ?_RTC_StackFailure@@YAXPAXPBD@Z 1002a823 f   LIBCMT:error.obj
 0001:000298af       __RTC_UninitUse            1002a8af f   LIBCMT:error.obj
 0001:00029955       _strtok                    1002a955 f   LIBCMT:strtok.obj
 0001:00029a0a       _isalpha                   1002aa0a f   LIBCMT:_ctype.obj
 0001:00029a49       _isupper                   1002aa49 f   LIBCMT:_ctype.obj
 0001:00029a83       _islower                   1002aa83 f   LIBCMT:_ctype.obj
 0001:00029abd       _isdigit                   1002aabd f   LIBCMT:_ctype.obj
 0001:00029af7       _isxdigit                  1002aaf7 f   LIBCMT:_ctype.obj
 0001:00029b36       _isspace                   1002ab36 f   LIBCMT:_ctype.obj
 0001:00029b70       _ispunct                   1002ab70 f   LIBCMT:_ctype.obj
 0001:00029baa       _isalnum                   1002abaa f   LIBCMT:_ctype.obj
 0001:00029be9       _isprint                   1002abe9 f   LIBCMT:_ctype.obj
 0001:00029c28       _isgraph                   1002ac28 f   LIBCMT:_ctype.obj
 0001:00029c67       _iscntrl                   1002ac67 f   LIBCMT:_ctype.obj
 0001:00029ca1       ___isascii                 1002aca1 f   LIBCMT:_ctype.obj
 0001:00029cae       ___toascii                 1002acae f   LIBCMT:_ctype.obj
 0001:00029cb6       ___iscsymf                 1002acb6 f   LIBCMT:_ctype.obj
 0001:00029cd0       ___iscsym                  1002acd0 f   LIBCMT:_ctype.obj
 0001:00029cea       _localtime                 1002acea f   LIBCMT:localtim.obj
 0001:00029e6a       _time                      1002ae6a f   LIBCMT:time.obj
 0001:00029ea3       _vsprintf                  1002aea3 f   LIBCMT:vsprintf.obj
 0001:00029efa       __vscprintf                1002aefa f   LIBCMT:vsprintf.obj
 0001:00029fc0       _qsort                     1002afc0 f   LIBCMT:qsort.obj
 0001:0002a243       _clock                     1002b243 f   LIBCMT:clock.obj
 0001:0002a286       ___inittime                1002b286 f   LIBCMT:clock.obj
 0001:0002a2bd       __CRT_INIT@12              1002b2bd f   LIBCMT:dllcrt0.obj
 0001:0002a43e       __DllMainCRTStartup@12     1002b43e f   LIBCMT:dllcrt0.obj
 0001:0002a522       __amsg_exit                1002b522 f   LIBCMT:dllcrt0.obj
 0001:0002a555       __RTC_NumErrors            1002b555 f   LIBCMT:userapi.obj
 0001:0002a559       __RTC_GetErrDesc           1002b559 f   LIBCMT:userapi.obj
 0001:0002a571       __RTC_SetErrorType         1002b571 f   LIBCMT:userapi.obj
 0001:0002a592       __RTC_SetErrorFunc         1002b592 f   LIBCMT:userapi.obj
 0001:0002a5a2       ?_RTC_GetErrorFunc@@YAP6AHHPBDH00ZZPBX@Z 1002b5a2 f   LIBCMT:userapi.obj
 0001:0002a5a8       __chkesp                   1002b5a8 f   LIBCMT:chkesp.obj
 0001:0002a5c0       __CRT_RTC_INIT             1002b5c0 f   LIBCMT:chkesp.obj
 0001:0002a5c3       __flsbuf                   1002b5c3 f   LIBCMT:_flsbuf.obj
 0001:0002a789       __output                   1002b789 f   LIBCMT:output.obj
 0001:0002af83       ___crtTlsAlloc@4           1002bf83 f   LIBCMT:tidtable.obj
 0001:0002af8c       __mtterm                   1002bf8c f   LIBCMT:tidtable.obj
 0001:0002afa9       __initptd                  1002bfa9 f   LIBCMT:tidtable.obj
 0001:0002afbc       __getptd                   1002bfbc f   LIBCMT:tidtable.obj
 0001:0002b02d       __freefls@4                1002c02d f   LIBCMT:tidtable.obj
 0001:0002b174       __freeptd                  1002c174 f   LIBCMT:tidtable.obj
 0001:0002b1a3       ___threadid                1002c1a3 f   LIBCMT:tidtable.obj
 0001:0002b1a9       ___threadhandle            1002c1a9 f   LIBCMT:tidtable.obj
 0001:0002b1af       __mtinit                   1002c1af f   LIBCMT:tidtable.obj
 0001:0002b2a0       __SEH_prolog               1002c2a0 f   LIBCMT:sehprolg.obj
 0001:0002b2db       __SEH_epilog               1002c2db f   LIBCMT:sehprolg.obj
 0001:0002b2f4       __except_handler3          1002c2f4 f   LIBCMT:exsup3.obj
 0001:0002b3da       __seh_longjmp_unwind@4     1002c3da f   LIBCMT:exsup3.obj
 0001:0002b462       ___FrameUnwindToState      1002c462 f   LIBCMT:frame.obj
 0001:0002b560       ___DestructExceptionObject 1002c560 f   LIBCMT:frame.obj
 0001:0002b5c4       ?__uncaught_exception@@YA_NXZ 1002c5c4 f   LIBCMT:frame.obj
 0001:0002b5d7       ___CxxRegisterExceptionObject 1002c5d7 f   LIBCMT:frame.obj
 0001:0002b67a       ___CxxDetectRethrow        1002c67a f   LIBCMT:frame.obj
 0001:0002b6b2       ___CxxUnregisterExceptionObject 1002c6b2 f   LIBCMT:frame.obj
 0001:0002b750       ___CxxQueryExceptionSize   1002c750 f   LIBCMT:frame.obj
 0001:0002b754       ___CxxCallUnwindDtor       1002c754 f   LIBCMT:frame.obj
 0001:0002b782       ___CxxCallUnwindVecDtor    1002c782 f   LIBCMT:frame.obj
 0001:0002baf9       ___CxxExceptionFilter      1002caf9 f   LIBCMT:frame.obj
 0001:0002bf47       ___InternalCxxFrameHandler 1002cf47 f   LIBCMT:frame.obj
 0001:0002bfe9       ?terminate@@YAXXZ          1002cfe9 f   LIBCMT:hooks.obj
 0001:0002c01e       ?unexpected@@YAXXZ         1002d01e f   LIBCMT:hooks.obj
 0001:0002c036       ?_inconsistency@@YAXXZ     1002d036 f   LIBCMT:hooks.obj
 0001:0002c070       __CallSettingFrame@12      1002d070 f   LIBCMT:lowhelpr.obj
 0001:0002c097       __NLG_Return               1002d097     LIBCMT:lowhelpr.obj
 0001:0002c0bc       ___isctype_mt              1002d0bc f   LIBCMT:isctype.obj
 0001:0002c133       __isctype                  1002d133 f   LIBCMT:isctype.obj
 0001:0002c15a       ____setlc_active_func      1002d15a f   LIBCMT:setlocal.obj
 0001:0002c160       ____unguarded_readlc_active_add_func 1002d160 f   LIBCMT:setlocal.obj
 0001:0002c166       ___freetlocinfo            1002d166 f   LIBCMT:setlocal.obj
 0001:0002c2f7       ___init_dummy              1002d2f7 f   LIBCMT:setlocal.obj
 0001:0002c2fa       __strcats                  1002d2fa f   LIBCMT:setlocal.obj
 0001:0002c31e       ___lc_strtolc              1002d31e f   LIBCMT:setlocal.obj
 0001:0002c3fa       ___lc_lctostr              1002d3fa f   LIBCMT:setlocal.obj
 0001:0002c448       ___updatetlocinfo          1002d448 f   LIBCMT:setlocal.obj
 0001:0002c542       __expandlocale             1002d542 f   LIBCMT:setlocal.obj
 0001:0002cb06       _setlocale                 1002db06 f   LIBCMT:setlocal.obj
 0001:0002cc60       __allmul                   1002dc60 f   LIBCMT:llmul.obj
 0001:0002cc94       __close_lk                 1002dc94 f   LIBCMT:close.obj
 0001:0002cd17       __close                    1002dd17 f   LIBCMT:close.obj
 0001:0002cdb2       __freebuf                  1002ddb2 f   LIBCMT:_freebuf.obj
 0001:0002cddd       __flush                    1002dddd f   LIBCMT:fflush.obj
 0001:0002ce3a       __fflush_lk                1002de3a f   LIBCMT:fflush.obj
 0001:0002cf3d       _fflush                    1002df3d f   LIBCMT:fflush.obj
 0001:0002cf8d       __flushall                 1002df8d f   LIBCMT:fflush.obj
 0001:0002cf96       ___iob_func                1002df96 f   LIBCMT:_file.obj
 0001:0002cf9c       ___initstdio               1002df9c f   LIBCMT:_file.obj
 0001:0002d045       ___endstdio                1002e045 f   LIBCMT:_file.obj
 0001:0002d059       __lock_file                1002e059 f   LIBCMT:_file.obj
 0001:0002d088       __lock_file2               1002e088 f   LIBCMT:_file.obj
 0001:0002d0ab       __unlock_file              1002e0ab f   LIBCMT:_file.obj
 0001:0002d0da       __unlock_file2             1002e0da f   LIBCMT:_file.obj
 0001:0002d0fd       __write_lk                 1002e0fd f   LIBCMT:write.obj
 0001:0002d2cb       __write                    1002e2cb f   LIBCMT:write.obj
 0001:0002d376       __openfile                 1002e376 f   LIBCMT:_open.obj
 0001:0002d4de       __errno                    1002e4de f   LIBCMT:dosmap.obj
 0001:0002d4e7       ___doserrno                1002e4e7 f   LIBCMT:dosmap.obj
 0001:0002d4f0       __dosmaperr                1002e4f0 f   LIBCMT:dosmap.obj
 0001:0002d563       __getstream                1002e563 f   LIBCMT:stream.obj
 0001:0002d6dd       __input                    1002e6dd f   LIBCMT:input.obj
 0001:0002e459       __stbuf                    1002f459 f   LIBCMT:_sftbuf.obj
 0001:0002e4e1       __ftbuf                    1002f4e1 f   LIBCMT:_sftbuf.obj
 0001:0002e50b       ___crtExitProcess          1002f50b f   LIBCMT:crt0dat.obj
 0001:0002e53b       __lockexit                 1002f53b f   LIBCMT:crt0dat.obj
 0001:0002e544       __unlockexit               1002f544 f   LIBCMT:crt0dat.obj
 0001:0002e583       __cinit                    1002f583 f   LIBCMT:crt0dat.obj
 0001:0002e6b0       _exit                      1002f6b0 f   LIBCMT:crt0dat.obj
 0001:0002e6c1       __exit                     1002f6c1 f   LIBCMT:crt0dat.obj
 0001:0002e6d2       __cexit                    1002f6d2 f   LIBCMT:crt0dat.obj
 0001:0002e6e1       __c_exit                   1002f6e1 f   LIBCMT:crt0dat.obj
 0001:0002e6f0       __msize                    1002f6f0 f   LIBCMT:msize.obj
 0001:0002e766       ___heap_select             1002f766 f   LIBCMT:heapinit.obj
 0001:0002e780       __heap_init                1002f780 f   LIBCMT:heapinit.obj
 0001:0002e7d1       __heap_term                1002f7d1 f   LIBCMT:heapinit.obj
 0001:0002e850       __get_heap_handle          1002f850 f   LIBCMT:heapinit.obj
 0001:0002e856       __mtinitlocks              1002f856 f   LIBCMT:mlock.obj
 0001:0002e89f       __mtdeletelocks            1002f89f f   LIBCMT:mlock.obj
 0001:0002e8f4       __unlock                   1002f8f4 f   LIBCMT:mlock.obj
 0001:0002e909       __lockerr_exit             1002f909 f   LIBCMT:mlock.obj
 0001:0002e921       __mtinitlocknum            1002f921 f   LIBCMT:mlock.obj
 0001:0002e9c1       __lock                     1002f9c1 f   LIBCMT:mlock.obj
 0001:0002e9f2       __get_sbh_threshold        1002f9f2 f   LIBCMT:sbheap.obj
 0001:0002ea07       ___sbh_heap_init           1002fa07 f   LIBCMT:sbheap.obj
 0001:0002ea4f       ___sbh_find_block          1002fa4f f   LIBCMT:sbheap.obj
 0001:0002ea7a       ___sbh_free_block          1002fa7a f   LIBCMT:sbheap.obj
 0001:0002ed92       ___sbh_alloc_new_region    1002fd92 f   LIBCMT:sbheap.obj
 0001:0002ee49       ___sbh_alloc_new_group     1002fe49 f   LIBCMT:sbheap.obj
 0001:0002ef4f       ___sbh_resize_block        1002ff4f f   LIBCMT:sbheap.obj
 0001:0002f22e       ___sbh_heapmin             1003022e f   LIBCMT:sbheap.obj
 0001:0002f2ff       ___sbh_heap_check          100302ff f   LIBCMT:sbheap.obj
 0001:0002f618       __set_sbh_threshold        10030618 f   LIBCMT:sbheap.obj
 0001:0002f673       ___sbh_alloc_block         10030673 f   LIBCMT:sbheap.obj
 0001:0002f96f       _abort                     1003096f f   LIBCMT:abort.obj
 0001:0002f987       _setvbuf                   10030987 f   LIBCMT:setvbuf.obj
 0001:0002fb20       ___fpecode                 10030b20 f   LIBCMT:winsig.obj
 0001:0002fb29       ___pxcptinfoptrs           10030b29 f   LIBCMT:winsig.obj
 0001:0002fb32       _signal                    10030b32 f   LIBCMT:winsig.obj
 0001:0002fcd3       _raise                     10030cd3 f   LIBCMT:winsig.obj
 0001:0002fe4c       ___crtMessageBoxA          10030e4c f   LIBCMT:crtmbox.obj
 0001:0002ff83       __itoa                     10030f83 f   LIBCMT:xtoa.obj
 0001:0002ff83       _itoa                      10030f83 f   LIBCMT:xtoa.obj
 0001:0002ffad       __ltoa                     10030fad f   LIBCMT:xtoa.obj
 0001:0002ffd4       __ultoa                    10030fd4 f   LIBCMT:xtoa.obj
 0001:0003005b       __i64toa                   1003105b f   LIBCMT:xtoa.obj
 0001:0003008c       __ui64toa                  1003108c f   LIBCMT:xtoa.obj
 0001:000300b0       _strncat                   100310b0 f   LIBCMT:strncat.obj
 0001:00030216       @__security_check_cookie@4 10031216 f   LIBCMT:secchk.obj
 0001:00030224       ?_set_new_handler@@YAP6AHI@ZP6AHI@Z@Z 10031224 f   LIBCMT:handler.obj
 0001:00030248       ?_query_new_handler@@YAP6AHI@ZXZ 10031248 f   LIBCMT:handler.obj
 0001:0003024e       __callnewh                 1003124e f   LIBCMT:handler.obj
 0001:00030285       ___crtLCMapStringA         10031285 f   LIBCMT:a_map.obj
 0001:00030650       ___ascii_stricmp           10031650 f   LIBCMT:_stricmp.obj
 0001:00030b27       ?_RTC_GetSrcLine@@YAHKPADHPAHPAPAD@Z 10031b27 f   LIBCMT:pdblkup.obj
 0001:0003145d       ___tzset                   1003245d f   LIBCMT:tzset.obj
 0001:000314a9       __tzset                    100324a9 f   LIBCMT:tzset.obj
 0001:000314de       __isindst                  100324de f   LIBCMT:tzset.obj
 0001:0003151c       _gmtime                    1003251c f   LIBCMT:gmtime.obj
 0001:00031630       __aulldiv                  10032630 f   LIBCMT:ulldiv.obj
 0001:00031698       _calloc                    10032698 f   LIBCMT:calloc.obj
 0001:00031753       __ioinit                   10032753 f   LIBCMT:ioinit.obj
 0001:00031951       __ioterm                   10032951 f   LIBCMT:ioinit.obj
 0001:0003199d       __setenvp                  1003299d f   LIBCMT:stdenvp.obj
 0001:00031bd0       __setargv                  10032bd0 f   LIBCMT:stdargv.obj
 0001:00031c72       ___crtGetEnvironmentStringsA 10032c72 f   LIBCMT:a_env.obj
 0001:00031d94       __RTC_Initialize           10032d94 f   LIBCMT:initsect.obj
 0001:00031dd8       __RTC_Terminate            10032dd8 f   LIBCMT:initsect.obj
 0001:00031e48       __XcptFilter               10032e48 f   LIBCMT:winxfltr.obj
 0001:00031fac       ___CppXcptFilter           10032fac f   LIBCMT:winxfltr.obj
 0001:00031fc7       __NMSG_WRITE               10032fc7 f   LIBCMT:crt0msg.obj
 0001:0003213e       __GET_RTERRMSG             1003313e f   LIBCMT:crt0msg.obj
 0001:00032168       __FF_MSGBANNER             10033168 f   LIBCMT:crt0msg.obj
 0001:000321a1       __lseek_lk                 100331a1 f   LIBCMT:lseek.obj
 0001:00032215       __lseek                    10033215 f   LIBCMT:lseek.obj
 0001:000322c0       __getbuf                   100332c0 f   LIBCMT:_getbuf.obj
 0001:00032304       __isatty                   10033304 f   LIBCMT:isatty.obj
 0001:0003232e       ___wctomb_mt               1003332e f   LIBCMT:wctomb.obj
 0001:0003238e       _wctomb                    1003338e f   LIBCMT:wctomb.obj
 0001:000323b5       ___pwctype_func            100333b5 f   LIBCMT:ctype.obj
 0001:000323bb       ___pctype_func             100333bb f   LIBCMT:ctype.obj
 0001:000323d0       __aulldvrm                 100333d0 f   LIBCMT:ulldvrm.obj
 0001:0003268f       ___updatetmbcinfo          1003368f f   LIBCMT:mbctype.obj
 0001:0003288e       __getmbcp                  1003388e f   LIBCMT:mbctype.obj
 0001:0003289e       __setmbcp                  1003389e f   LIBCMT:mbctype.obj
 0001:000329ee       ___initmbctable            100339ee f   LIBCMT:mbctype.obj
 0001:00032a0c       __ValidateEH3RN            10033a0c f   LIBCMT:eh3valid.obj
 0001:00032c35       ?__CxxUnhandledExceptionFilter@@YGJPAU_EXCEPTION_POINTERS@@@Z 10033c35 f   LIBCMT:unhandld.obj
 0001:00032c83       ?__CxxSetUnhandledExceptionFilter@@YAHXZ 10033c83 f   LIBCMT:unhandld.obj
 0001:00032c96       ?__CxxRestoreUnhandledExceptionFilter@@YAXXZ 10033c96 f   LIBCMT:unhandld.obj
 0001:00032ca3       ?_ValidateRead@@YAHPBXI@Z  10033ca3 f   LIBCMT:validate.obj
 0001:00032cbf       ?_ValidateWrite@@YAHPAXI@Z 10033cbf f   LIBCMT:validate.obj
 0001:00032cdb       ?_ValidateExecute@@YAHP6GHXZ@Z 10033cdb f   LIBCMT:validate.obj
 0001:00032cf3       ___crtGetStringTypeA       10033cf3 f   LIBCMT:a_str.obj
 0001:00032ead       __Getdays                  10033ead f   LIBCMT:strftime.obj
 0001:00032f2c       __Getmonths                10033f2c f   LIBCMT:strftime.obj
 0001:00032fc1       __Gettnames                10033fc1 f   LIBCMT:strftime.obj
 0001:000339b3       __Strftime_mt              100349b3 f   LIBCMT:strftime.obj
 0001:00033a78       __Strftime                 10034a78 f   LIBCMT:strftime.obj
 0001:00033aaa       _strftime                  10034aaa f   LIBCMT:strftime.obj
 0001:00033ac5       _localeconv                10034ac5 f   LIBCMT:lconv.obj
 0001:00033e32       ___free_lc_time            10034e32 f   LIBCMT:inittime.obj
 0001:00033fc2       ___init_time               10034fc2 f   LIBCMT:inittime.obj
 0001:00034054       ___free_lconv_num          10035054 f   LIBCMT:initnum.obj
 0001:000340b3       ___init_numeric            100350b3 f   LIBCMT:initnum.obj
 0001:000342b3       ___free_lconv_mon          100352b3 f   LIBCMT:initmon.obj
 0001:0003438c       ___init_monetary           1003538c f   LIBCMT:initmon.obj
 0001:000345cb       ___init_ctype              100355cb f   LIBCMT:initctyp.obj
 0001:000347b5       ____mb_cur_max_func        100357b5 f   LIBCMT:initctyp.obj
 0001:000347bb       ____lc_codepage_func       100357bb f   LIBCMT:initctyp.obj
 0001:000347d4       ____lc_collate_cp_func     100357d4 f   LIBCMT:initctyp.obj
 0001:000347ed       ____lc_handle_func         100357ed f   LIBCMT:initctyp.obj
 0001:00034806       ___init_collate            10035806 f   LIBCMT:initcoll.obj
 0001:00034810       _strcspn                   10035810 f   LIBCMT:strcspn.obj
 0001:00034f95       ___get_qualified_locale    10035f95 f   LIBCMT:getqloc.obj
 0001:00035150       _memcmp                    10036150 f   LIBCMT:memcmp.obj
 0001:00035210       _strpbrk                   10036210 f   LIBCMT:strpbrk.obj
 0001:00035250       __set_osfhnd               10036250 f   LIBCMT:osfinfo.obj
 0001:000352cc       __free_osfhnd              100362cc f   LIBCMT:osfinfo.obj
 0001:0003534b       __get_osfhandle            1003634b f   LIBCMT:osfinfo.obj
 0001:0003538c       __lock_fhandle             1003638c f   LIBCMT:osfinfo.obj
 0001:0003542c       __unlock_fhandle           1003642c f   LIBCMT:osfinfo.obj
 0001:0003544e       __alloc_osfhnd             1003644e f   LIBCMT:osfinfo.obj
 0001:000355ca       __open_osfhandle           100365ca f   LIBCMT:osfinfo.obj
 0001:00035691       __commit                   10036691 f   LIBCMT:commit.obj
 0001:0003574d       __fcloseall                1003674d f   LIBCMT:closeall.obj
 0001:000357e8       __lseeki64_lk              100367e8 f   LIBCMT:lseeki64.obj
 0001:0003586b       __lseeki64                 1003686b f   LIBCMT:lseeki64.obj
 0001:00035c10       __open                     10036c10 f   LIBCMT:open.obj
 0001:00035c65       __sopen                    10036c65 f   LIBCMT:open.obj
 0001:00035cca       ___crtInitCritSecAndSpinCount 10036cca f   LIBCMT:initcrit.obj
 0001:00035d55       __filbuf                   10036d55 f   LIBCMT:_filbuf.obj
 0001:00035e36       __ungetc_lk                10036e36 f   LIBCMT:ungetc.obj
 0001:00035ea2       _ungetc                    10036ea2 f   LIBCMT:ungetc.obj
 0001:00035ee7       ___mbtowc_mt               10036ee7 f   LIBCMT:mbtowc.obj
 0001:00035fa7       _mbtowc                    10036fa7 f   LIBCMT:mbtowc.obj
 0001:00035fd2       __resetstkoflw             10036fd2 f   LIBCMT:resetstk.obj
 0001:000360b5       ___security_init_cookie    100370b5 f   LIBCMT:seccinit.obj
 0001:0003611b       ___security_error_handler  1003711b f   LIBCMT:secfail.obj
 0001:00036263       __set_security_error_handler 10037263 f   LIBCMT:secfail.obj
 0001:00036273       ___buffer_overrun          10037273 f   LIBCMT:secfail.obj
 0001:0003627f       ___set_buffer_overrun_handler 1003727f f   LIBCMT:secfail.obj
 0001:0003628f       ___ansicp                  1003728f f   LIBCMT:convrtcp.obj
 0001:000362d2       ___convertcp               100372d2 f   LIBCMT:convrtcp.obj
 0001:0003649b       __getenv_lk                1003749b f   LIBCMT:getenv.obj
 0001:0003651c       _getenv                    1003751c f   LIBCMT:getenv.obj
 0001:0003655b       __fptrap                   1003755b f   LIBCMT:crt0fp.obj
 0001:00036564       ___getlocaleinfo           10037564 f   LIBCMT:inithelp.obj
 0001:0003668b       __strnicmp                 1003768b f   LIBCMT:strnicmp.obj
 0001:0003670a       __chsize_lk                1003770a f   LIBCMT:chsize.obj
 0001:0003684b       __chsize                   1003784b f   LIBCMT:chsize.obj
 0001:000368e2       __read_lk                  100378e2 f   LIBCMT:read.obj
 0001:00036abd       __read                     10037abd f   LIBCMT:read.obj
 0001:00036b68       __mbsnbicoll               10037b68 f   LIBCMT:mbsnbico.obj
 0001:00036bb6       ___wtomb_environ           10037bb6 f   LIBCMT:wtombenv.obj
 0001:00036c46       ___crtGetLocaleInfoW       10037c46 f   LIBCMT:w_loc.obj
 0001:00036d76       ___crtGetLocaleInfoA       10037d76 f   LIBCMT:a_loc.obj
 0001:00036ec0       ___ascii_strnicmp          10037ec0 f   LIBCMT:_strnicm.obj
 0001:00036f21       __setmode_lk               10037f21 f   LIBCMT:setmode.obj
 0001:00036f8d       __setmode                  10037f8d f   LIBCMT:setmode.obj
 0001:00037040       ___crtCompareStringA       10038040 f   LIBCMT:a_cmp.obj
 0001:00037472       ___crtsetenv               10038472 f   LIBCMT:setenv.obj
 0001:00037647       __strdup                   10038647 f   LIBCMT:strdup.obj
 0001:00037672       __mbschr                   10038672 f   LIBCMT:mbschr.obj
 0001:000376ee       _inet_addr@4               100386ee f   wsock32:WSOCK32.dll
 0001:000376f4       _closesocket@4             100386f4 f   wsock32:WSOCK32.dll
 0001:000376fa       _WSAGetLastError@0         100386fa f   wsock32:WSOCK32.dll
 0001:00037700       _connect@12                10038700 f   wsock32:WSOCK32.dll
 0001:00037706       _setsockopt@20             10038706 f   wsock32:WSOCK32.dll
 0001:0003770c       _socket@12                 1003870c f   wsock32:WSOCK32.dll
 0001:00037712       _htons@4                   10038712 f   wsock32:WSOCK32.dll
 0001:00037718       _gethostbyname@4           10038718 f   wsock32:WSOCK32.dll
 0001:0003771e       _shutdown@8                1003871e f   wsock32:WSOCK32.dll
 0001:00037724       _send@16                   10038724 f   wsock32:WSOCK32.dll
 0001:0003772a       ___WSAFDIsSet@8            1003872a f   wsock32:WSOCK32.dll
 0001:00037730       _select@20                 10038730 f   wsock32:WSOCK32.dll
 0001:00037736       _recv@16                   10038736 f   wsock32:WSOCK32.dll
 0001:0003773c       _WSAStartup@8              1003873c f   wsock32:WSOCK32.dll
 0001:00037742       _WSACleanup@0              10038742 f   wsock32:WSOCK32.dll
 0001:00037748       _ioctlsocket@12            10038748 f   wsock32:WSOCK32.dll
 0001:0003774e       _RtlUnwind@16              1003874e f   kernel32:KERNEL32.dll
 0001:00037754       _HeapFree@12               10038754 f   kernel32:KERNEL32.dll
 0001:0003775a       _GetModuleFileNameA@12     1003875a f   kernel32:KERNEL32.dll
 0001:00037760       _HeapAlloc@12              10038760 f   kernel32:KERNEL32.dll
 0001:00037766       _HeapReAlloc@16            10038766 f   kernel32:KERNEL32.dll
 0001:0003776c       _RaiseException@16         1003876c f   kernel32:KERNEL32.dll
 0001:00037772       _GetVersionExA@4           10038772 f   kernel32:KERNEL32.dll
 0001:00037778       _GetProcAddress@8          10038778 f   kernel32:KERNEL32.dll
 0001:0003777e       _LoadLibraryA@4            1003877e f   kernel32:KERNEL32.dll
 0001:00037784       _DebugBreak@0              10038784 f   kernel32:KERNEL32.dll
 0001:0003778a       _GetSystemTimeAsFileTime@4 1003878a f   kernel32:KERNEL32.dll
 0001:00037790       _GetCurrentThreadId@0      10038790 f   kernel32:KERNEL32.dll
 0001:00037796       _GetCommandLineA@0         10038796 f   kernel32:KERNEL32.dll
 0001:0003779c       _TlsAlloc@0                1003879c f   kernel32:KERNEL32.dll
 0001:000377a2       _SetLastError@4            100387a2 f   kernel32:KERNEL32.dll
 0001:000377a8       _GetLastError@0            100387a8 f   kernel32:KERNEL32.dll
 0001:000377ae       _GetCurrentThread@0        100387ae f   kernel32:KERNEL32.dll
 0001:000377b4       _TlsFree@4                 100387b4 f   kernel32:KERNEL32.dll
 0001:000377ba       _TlsSetValue@8             100387ba f   kernel32:KERNEL32.dll
 0001:000377c0       _TlsGetValue@4             100387c0 f   kernel32:KERNEL32.dll
 0001:000377c6       _GetModuleHandleA@4        100387c6 f   kernel32:KERNEL32.dll
 0001:000377cc       _CloseHandle@4             100387cc f   kernel32:KERNEL32.dll
 0001:000377d2       _EnterCriticalSection@4    100387d2 f   kernel32:KERNEL32.dll
 0001:000377d8       _LeaveCriticalSection@4    100387d8 f   kernel32:KERNEL32.dll
 0001:000377de       _WriteFile@20              100387de f   kernel32:KERNEL32.dll
 0001:000377e4       _ExitProcess@4             100387e4 f   kernel32:KERNEL32.dll
 0001:000377ea       _TerminateProcess@8        100387ea f   kernel32:KERNEL32.dll
 0001:000377f0       _GetCurrentProcess@0       100387f0 f   kernel32:KERNEL32.dll
 0001:000377f6       _HeapSize@12               100387f6 f   kernel32:KERNEL32.dll
 0001:000377fc       _HeapDestroy@4             100387fc f   kernel32:KERNEL32.dll
 0001:00037802       _HeapCreate@12             10038802 f   kernel32:KERNEL32.dll
 0001:00037808       _VirtualFree@12            10038808 f   kernel32:KERNEL32.dll
 0001:0003780e       _DeleteCriticalSection@4   1003880e f   kernel32:KERNEL32.dll
 0001:00037814       _FatalAppExitA@8           10038814 f   kernel32:KERNEL32.dll
 0001:0003781a       _VirtualAlloc@16           1003881a f   kernel32:KERNEL32.dll
 0001:00037820       _IsBadWritePtr@8           10038820 f   kernel32:KERNEL32.dll
 0001:00037826       _SetConsoleCtrlHandler@8   10038826 f   kernel32:KERNEL32.dll
 0001:0003782c       _LCMapStringA@24           1003882c f   kernel32:KERNEL32.dll
 0001:00037832       _WideCharToMultiByte@32    10038832 f   kernel32:KERNEL32.dll
 0001:00037838       _MultiByteToWideChar@24    10038838 f   kernel32:KERNEL32.dll
 0001:0003783e       _LCMapStringW@24           1003883e f   kernel32:KERNEL32.dll
 0001:00037844       _GetProcessHeap@0          10038844 f   kernel32:KERNEL32.dll
 0001:0003784a       _FreeLibrary@4             1003884a f   kernel32:KERNEL32.dll
 0001:00037850       _GetTimeZoneInformation@4  10038850 f   kernel32:KERNEL32.dll
 0001:00037856       _SetHandleCount@4          10038856 f   kernel32:KERNEL32.dll
 0001:0003785c       _GetStdHandle@4            1003885c f   kernel32:KERNEL32.dll
 0001:00037862       _GetFileType@4             10038862 f   kernel32:KERNEL32.dll
 0001:00037868       _GetStartupInfoA@4         10038868 f   kernel32:KERNEL32.dll
 0001:0003786e       _FreeEnvironmentStringsA@4 1003886e f   kernel32:KERNEL32.dll
 0001:00037874       _GetEnvironmentStrings@0   10038874 f   kernel32:KERNEL32.dll
 0001:0003787a       _FreeEnvironmentStringsW@4 1003887a f   kernel32:KERNEL32.dll
 0001:00037880       _GetEnvironmentStringsW@0  10038880 f   kernel32:KERNEL32.dll
 0001:00037886       _UnhandledExceptionFilter@4 10038886 f   kernel32:KERNEL32.dll
 0001:0003788c       _SetFilePointer@16         1003888c f   kernel32:KERNEL32.dll
 0001:00037892       _GetACP@0                  10038892 f   kernel32:KERNEL32.dll
 0001:00037898       _GetOEMCP@0                10038898 f   kernel32:KERNEL32.dll
 0001:0003789e       _GetCPInfo@8               1003889e f   kernel32:KERNEL32.dll
 0001:000378a4       _InterlockedExchange@8     100388a4 f   kernel32:KERNEL32.dll
 0001:000378aa       _VirtualQuery@12           100388aa f   kernel32:KERNEL32.dll
 0001:000378b0       _SetUnhandledExceptionFilter@4 100388b0 f   kernel32:KERNEL32.dll
 0001:000378b6       _IsBadReadPtr@8            100388b6 f   kernel32:KERNEL32.dll
 0001:000378bc       _IsBadCodePtr@4            100388bc f   kernel32:KERNEL32.dll
 0001:000378c2       _GetStringTypeA@20         100388c2 f   kernel32:KERNEL32.dll
 0001:000378c8       _GetStringTypeW@16         100388c8 f   kernel32:KERNEL32.dll
 0001:000378ce       _GetTimeFormatA@24         100388ce f   kernel32:KERNEL32.dll
 0001:000378d4       _GetDateFormatA@24         100388d4 f   kernel32:KERNEL32.dll
 0001:000378da       _GetUserDefaultLCID@0      100388da f   kernel32:KERNEL32.dll
 0001:000378e0       _GetLocaleInfoA@16         100388e0 f   kernel32:KERNEL32.dll
 0001:000378e6       _EnumSystemLocalesA@8      100388e6 f   kernel32:KERNEL32.dll
 0001:000378ec       _IsValidLocale@8           100388ec f   kernel32:KERNEL32.dll
 0001:000378f2       _IsValidCodePage@4         100388f2 f   kernel32:KERNEL32.dll
 0001:000378f8       _SetStdHandle@8            100388f8 f   kernel32:KERNEL32.dll
 0001:000378fe       _FlushFileBuffers@4        100388fe f   kernel32:KERNEL32.dll
 0001:00037904       _CreateFileA@28            10038904 f   kernel32:KERNEL32.dll
 0001:0003790a       _InitializeCriticalSection@4 1003890a f   kernel32:KERNEL32.dll
 0001:00037910       _VirtualProtect@16         10038910 f   kernel32:KERNEL32.dll
 0001:00037916       _GetSystemInfo@4           10038916 f   kernel32:KERNEL32.dll
 0001:0003791c       _GetCurrentProcessId@0     1003891c f   kernel32:KERNEL32.dll
 0001:00037922       _SetEndOfFile@4            10038922 f   kernel32:KERNEL32.dll
 0001:00037928       _ReadFile@20               10038928 f   kernel32:KERNEL32.dll
 0001:0003792e       _GetLocaleInfoW@16         1003892e f   kernel32:KERNEL32.dll
 0001:00037934       _CompareStringA@24         10038934 f   kernel32:KERNEL32.dll
 0001:0003793a       _CompareStringW@24         1003893a f   kernel32:KERNEL32.dll
 0001:00037940       _SetEnvironmentVariableA@8 10038940 f   kernel32:KERNEL32.dll
 0002:00000000       __imp__RegCreateKeyExA@36  10039000     advapi32:ADVAPI32.dll
 0002:00000004       __imp__RegSetValueExA@24   10039004     advapi32:ADVAPI32.dll
 0002:00000008       __imp__RegQueryValueExA@24 10039008     advapi32:ADVAPI32.dll
 0002:0000000c       __imp__RegOpenKeyExA@20    1003900c     advapi32:ADVAPI32.dll
 0002:00000010       __imp__RegCloseKey@4       10039010     advapi32:ADVAPI32.dll
 0002:00000014       \177ADVAPI32_NULL_THUNK_DATA 10039014     advapi32:ADVAPI32.dll
 0002:00000018       __imp__GetCurrentProcessId@0 10039018     kernel32:KERNEL32.dll
 0002:0000001c       __imp__GetSystemInfo@4     1003901c     kernel32:KERNEL32.dll
 0002:00000020       __imp__VirtualProtect@16   10039020     kernel32:KERNEL32.dll
 0002:00000024       __imp__InitializeCriticalSection@4 10039024     kernel32:KERNEL32.dll
 0002:00000028       __imp__CreateFileA@28      10039028     kernel32:KERNEL32.dll
 0002:0000002c       __imp__FlushFileBuffers@4  1003902c     kernel32:KERNEL32.dll
 0002:00000030       __imp__SetStdHandle@8      10039030     kernel32:KERNEL32.dll
 0002:00000034       __imp__IsValidCodePage@4   10039034     kernel32:KERNEL32.dll
 0002:00000038       __imp__IsValidLocale@8     10039038     kernel32:KERNEL32.dll
 0002:0000003c       __imp__EnumSystemLocalesA@8 1003903c     kernel32:KERNEL32.dll
 0002:00000040       __imp__GetLocaleInfoA@16   10039040     kernel32:KERNEL32.dll
 0002:00000044       __imp__GetUserDefaultLCID@0 10039044     kernel32:KERNEL32.dll
 0002:00000048       __imp__GetDateFormatA@24   10039048     kernel32:KERNEL32.dll
 0002:0000004c       __imp__GetTimeFormatA@24   1003904c     kernel32:KERNEL32.dll
 0002:00000050       __imp__GetStringTypeW@16   10039050     kernel32:KERNEL32.dll
 0002:00000054       __imp__GetStringTypeA@20   10039054     kernel32:KERNEL32.dll
 0002:00000058       __imp__IsBadCodePtr@4      10039058     kernel32:KERNEL32.dll
 0002:0000005c       __imp__IsBadReadPtr@8      1003905c     kernel32:KERNEL32.dll
 0002:00000060       __imp__SetUnhandledExceptionFilter@4 10039060     kernel32:KERNEL32.dll
 0002:00000064       __imp__VirtualQuery@12     10039064     kernel32:KERNEL32.dll
 0002:00000068       __imp__InterlockedExchange@8 10039068     kernel32:KERNEL32.dll
 0002:0000006c       __imp__GetCPInfo@8         1003906c     kernel32:KERNEL32.dll
 0002:00000070       __imp__GetOEMCP@0          10039070     kernel32:KERNEL32.dll
 0002:00000074       __imp__GetACP@0            10039074     kernel32:KERNEL32.dll
 0002:00000078       __imp__SetFilePointer@16   10039078     kernel32:KERNEL32.dll
 0002:0000007c       __imp__UnhandledExceptionFilter@4 1003907c     kernel32:KERNEL32.dll
 0002:00000080       __imp__GetEnvironmentStringsW@0 10039080     kernel32:KERNEL32.dll
 0002:00000084       __imp__FreeEnvironmentStringsW@4 10039084     kernel32:KERNEL32.dll
 0002:00000088       __imp__GetEnvironmentStrings@0 10039088     kernel32:KERNEL32.dll
 0002:0000008c       __imp__FreeEnvironmentStringsA@4 1003908c     kernel32:KERNEL32.dll
 0002:00000090       __imp__GetStartupInfoA@4   10039090     kernel32:KERNEL32.dll
 0002:00000094       __imp__GetFileType@4       10039094     kernel32:KERNEL32.dll
 0002:00000098       __imp__GetStdHandle@4      10039098     kernel32:KERNEL32.dll
 0002:0000009c       __imp__SetHandleCount@4    1003909c     kernel32:KERNEL32.dll
 0002:000000a0       __imp__GetTimeZoneInformation@4 100390a0     kernel32:KERNEL32.dll
 0002:000000a4       __imp__FreeLibrary@4       100390a4     kernel32:KERNEL32.dll
 0002:000000a8       __imp__GetProcessHeap@0    100390a8     kernel32:KERNEL32.dll
 0002:000000ac       __imp__LCMapStringW@24     100390ac     kernel32:KERNEL32.dll
 0002:000000b0       __imp__MultiByteToWideChar@24 100390b0     kernel32:KERNEL32.dll
 0002:000000b4       __imp__SetEndOfFile@4      100390b4     kernel32:KERNEL32.dll
 0002:000000b8       __imp__LCMapStringA@24     100390b8     kernel32:KERNEL32.dll
 0002:000000bc       __imp__SetConsoleCtrlHandler@8 100390bc     kernel32:KERNEL32.dll
 0002:000000c0       __imp__IsBadWritePtr@8     100390c0     kernel32:KERNEL32.dll
 0002:000000c4       __imp__VirtualAlloc@16     100390c4     kernel32:KERNEL32.dll
 0002:000000c8       __imp__FatalAppExitA@8     100390c8     kernel32:KERNEL32.dll
 0002:000000cc       __imp__DeleteCriticalSection@4 100390cc     kernel32:KERNEL32.dll
 0002:000000d0       __imp__VirtualFree@12      100390d0     kernel32:KERNEL32.dll
 0002:000000d4       __imp__HeapCreate@12       100390d4     kernel32:KERNEL32.dll
 0002:000000d8       __imp__HeapDestroy@4       100390d8     kernel32:KERNEL32.dll
 0002:000000dc       __imp__HeapSize@12         100390dc     kernel32:KERNEL32.dll
 0002:000000e0       __imp__GetCurrentProcess@0 100390e0     kernel32:KERNEL32.dll
 0002:000000e4       __imp__TerminateProcess@8  100390e4     kernel32:KERNEL32.dll
 0002:000000e8       __imp__ExitProcess@4       100390e8     kernel32:KERNEL32.dll
 0002:000000ec       __imp__WriteFile@20        100390ec     kernel32:KERNEL32.dll
 0002:000000f0       __imp__LeaveCriticalSection@4 100390f0     kernel32:KERNEL32.dll
 0002:000000f4       __imp__EnterCriticalSection@4 100390f4     kernel32:KERNEL32.dll
 0002:000000f8       __imp__CloseHandle@4       100390f8     kernel32:KERNEL32.dll
 0002:000000fc       __imp__GetModuleHandleA@4  100390fc     kernel32:KERNEL32.dll
 0002:00000100       __imp__TlsGetValue@4       10039100     kernel32:KERNEL32.dll
 0002:00000104       __imp__TlsSetValue@8       10039104     kernel32:KERNEL32.dll
 0002:00000108       __imp__TlsFree@4           10039108     kernel32:KERNEL32.dll
 0002:0000010c       __imp__GetCurrentThread@0  1003910c     kernel32:KERNEL32.dll
 0002:00000110       __imp__GetLastError@0      10039110     kernel32:KERNEL32.dll
 0002:00000114       __imp__SetLastError@4      10039114     kernel32:KERNEL32.dll
 0002:00000118       __imp__TlsAlloc@0          10039118     kernel32:KERNEL32.dll
 0002:0000011c       __imp__GetCommandLineA@0   1003911c     kernel32:KERNEL32.dll
 0002:00000120       __imp__GetCurrentThreadId@0 10039120     kernel32:KERNEL32.dll
 0002:00000124       __imp__GetSystemTimeAsFileTime@4 10039124     kernel32:KERNEL32.dll
 0002:00000128       __imp__DebugBreak@0        10039128     kernel32:KERNEL32.dll
 0002:0000012c       __imp__LoadLibraryA@4      1003912c     kernel32:KERNEL32.dll
 0002:00000130       __imp__GetProcAddress@8    10039130     kernel32:KERNEL32.dll
 0002:00000134       __imp__GetVersionExA@4     10039134     kernel32:KERNEL32.dll
 0002:00000138       __imp__RaiseException@16   10039138     kernel32:KERNEL32.dll
 0002:0000013c       __imp__HeapReAlloc@16      1003913c     kernel32:KERNEL32.dll
 0002:00000140       __imp__HeapAlloc@12        10039140     kernel32:KERNEL32.dll
 0002:00000144       __imp__GetModuleFileNameA@12 10039144     kernel32:KERNEL32.dll
 0002:00000148       __imp__HeapFree@12         10039148     kernel32:KERNEL32.dll
 0002:0000014c       __imp__RtlUnwind@16        1003914c     kernel32:KERNEL32.dll
 0002:00000150       __imp__ReadFile@20         10039150     kernel32:KERNEL32.dll
 0002:00000154       __imp__GetLocaleInfoW@16   10039154     kernel32:KERNEL32.dll
 0002:00000158       __imp__CompareStringA@24   10039158     kernel32:KERNEL32.dll
 0002:0000015c       __imp__SetEnvironmentVariableA@8 1003915c     kernel32:KERNEL32.dll
 0002:00000160       __imp__CompareStringW@24   10039160     kernel32:KERNEL32.dll
 0002:00000164       __imp__WideCharToMultiByte@32 10039164     kernel32:KERNEL32.dll
 0002:00000168       __imp__QueryPerformanceCounter@4 10039168     kernel32:KERNEL32.dll
 0002:0000016c       __imp__Sleep@4             1003916c     kernel32:KERNEL32.dll
 0002:00000170       __imp__CreateProcessA@40   10039170     kernel32:KERNEL32.dll
 0002:00000174       __imp__GetTickCount@0      10039174     kernel32:KERNEL32.dll
 0002:00000178       \177KERNEL32_NULL_THUNK_DATA 10039178     kernel32:KERNEL32.dll
 0002:0000017c       __imp__WSAGetLastError@0   1003917c     wsock32:WSOCK32.dll
 0002:00000180       __imp__ioctlsocket@12      10039180     wsock32:WSOCK32.dll
 0002:00000184       __imp__WSACleanup@0        10039184     wsock32:WSOCK32.dll
 0002:00000188       __imp__WSAStartup@8        10039188     wsock32:WSOCK32.dll
 0002:0000018c       __imp__recv@16             1003918c     wsock32:WSOCK32.dll
 0002:00000190       __imp__select@20           10039190     wsock32:WSOCK32.dll
 0002:00000194       __imp____WSAFDIsSet@8      10039194     wsock32:WSOCK32.dll
 0002:00000198       __imp__send@16             10039198     wsock32:WSOCK32.dll
 0002:0000019c       __imp__shutdown@8          1003919c     wsock32:WSOCK32.dll
 0002:000001a0       __imp__gethostbyname@4     100391a0     wsock32:WSOCK32.dll
 0002:000001a4       __imp__htons@4             100391a4     wsock32:WSOCK32.dll
 0002:000001a8       __imp__socket@12           100391a8     wsock32:WSOCK32.dll
 0002:000001ac       __imp__setsockopt@20       100391ac     wsock32:WSOCK32.dll
 0002:000001b0       __imp__inet_addr@4         100391b0     wsock32:WSOCK32.dll
 0002:000001b4       __imp__closesocket@4       100391b4     wsock32:WSOCK32.dll
 0002:000001b8       __imp__connect@12          100391b8     wsock32:WSOCK32.dll
 0002:000001bc       \177WSOCK32_NULL_THUNK_DATA 100391bc     wsock32:WSOCK32.dll
 0002:000001c0       __imp_??1SQPicture@@QAE@XZ 100391c0     engine:engine.exe
 0002:000001c4       __imp_?Draw@SQPicture@@QAEXHH@Z 100391c4     engine:engine.exe
 0002:000001c8       __imp_?ExplorerGetVar@@YAPADHPAD@Z 100391c8     engine:engine.exe
 0002:000001cc       __imp_??0SQPicture@@QAE@PAD@Z 100391cc     engine:engine.exe
 0002:000001d0       __imp_?SlowLoadPalette@@YAXPBD@Z 100391d0     engine:engine.exe
 0002:000001d4       __imp_?LoadFog@@YAXH@Z     100391d4     engine:engine.exe
 0002:000001d8       __imp_?ClearGChat@@YAXXZ   100391d8     engine:engine.exe
 0002:000001dc       __imp_?Gclose@@YAXPAVGFILE@@@Z 100391dc     engine:engine.exe
 0002:000001e0       __imp_?Gopen@@YAPAVGFILE@@PAD0@Z 100391e0     engine:engine.exe
 0002:000001e4       __imp_?CheckUsingAI@@YA_NXZ 100391e4     engine:engine.exe
 0002:000001e8       __imp_?RSeek@@YAKPAXH@Z    100391e8     engine:engine.exe
 0002:000001ec       __imp_?CheckGSC_Login@@YA_NXZ 100391ec     engine:engine.exe
 0002:000001f0       __imp_??0DialogsSystem@@QAE@XZ 100391f0     engine:engine.exe
 0002:000001f4       __imp_?addPicture@ParentFrame@@QAEPAVPicture@@PAVSimpleDialog@@HHPAVSQPicture@@11@Z 100391f4     engine:engine.exe
 0002:000001f8       __imp_?addChatViewer@ParentFrame@@QAEPAVChatViewer@@PAVSimpleDialog@@HHHHHPAPAPAD1PAH@Z 100391f8     engine:engine.exe
 0002:000001fc       __imp_?SpecialWhiteFont@@3VRLCFont@@A 100391fc     engine:engine.exe
 0002:00000200       __imp_?SpecialYellowFont@@3VRLCFont@@A 10039200     engine:engine.exe
 0002:00000204       __imp_?addNewGP_VScrollBar@ParentFrame@@QAEPAVVScrollBar@@PAVSimpleDialog@@HHHHHHH@Z 10039204     engine:engine.exe
 0002:00000208       __imp_?addComplexBox@ParentFrame@@QAEPAVComplexBox@@HHHHP6AXHHHHHEH@ZHH@Z 10039208     engine:engine.exe
 0002:0000020c       __imp_?addGP_Button@ParentFrame@@QAEPAVGP_Button@@PAVSimpleDialog@@HHHHH@Z 1003920c     engine:engine.exe
 0002:00000210       __imp_?fonMenuText@@3PAVRLCFont@@A 10039210     engine:engine.exe
 0002:00000214       __imp_?RReset@@YAPAXPBD@Z  10039214     engine:engine.exe
 0002:00000218       __imp_?RFileSize@@YAKPAX@Z 10039218     engine:engine.exe
 0002:0000021c       __imp_?RBlockRead@@YAKPAX0K@Z 1003921c     engine:engine.exe
 0002:00000220       __imp_?RunExplorer@@YAXHPADHHHH@Z 10039220     engine:engine.exe
 0002:00000224       __imp_?ExplorerOpenRef@@YAXHPAD@Z 10039224     engine:engine.exe
 0002:00000228       __imp_?RClose@@YAXPAX@Z    10039228     engine:engine.exe
 0002:0000022c       __imp_?SetCurPtr@@YAXH@Z   1003922c     engine:engine.exe
 0002:00000230       __imp_?GetWheelDelta@@YAH_N@Z 10039230     engine:engine.exe
 0002:00000234       __imp_?CurPalette@@3HA     10039234     engine:engine.exe
 0002:00000238       __imp_?ProcessExplorerDSS@@YAXHPAVDialogsSystem@@@Z 10039238     engine:engine.exe
 0002:0000023c       __imp_?LoadPalette@@YAXPBD@Z 1003923c     engine:engine.exe
 0002:00000240       __imp_?ExplorerSetVar@@YAXHPAD0@Z 10039240     engine:engine.exe
 0002:00000244       __imp_?LobbyVersion@@3PADA 10039244     engine:engine.exe
 0002:00000248       __imp_?dwVersion@@3GA      10039248     engine:engine.exe
 0002:0000024c       __imp_?ExplorerBack@@YAXH@Z 1003924c     engine:engine.exe
 0002:00000250       __imp_?ExplorerRefresh@@YAXH@Z 10039250     engine:engine.exe
 0002:00000254       __imp_?LoadPicture@SQPicture@@QAEXPAD_N@Z 10039254     engine:engine.exe
 0002:00000258       __imp_?SetInetPlayerName@@YAXPAD@Z 10039258     engine:engine.exe
 0002:0000025c       __imp_?SetRoomOptions@@YAXPAD@Z 1003925c     engine:engine.exe
 0002:00000260       __imp_?GPS@@3VGP_System@@A 10039260     engine:engine.exe
 0002:00000264       __imp_?PreLoadGPImage@GP_System@@QAEHPAD@Z 10039264     engine:engine.exe
 0002:00000268       __imp_?LoadGP@GP_System@@QAE_NH@Z 10039268     engine:engine.exe
 0002:0000026c       __imp_?ShowGP@GP_System@@QAEXHHHHE@Z 1003926c     engine:engine.exe
 0002:00000270       __imp_?GetGPWidth@GP_System@@QAEHHH@Z 10039270     engine:engine.exe
 0002:00000274       __imp_?GetRLCHeight@@YAHPAUxRLCTable@@E@Z 10039274     engine:engine.exe
 0002:00000278       __imp_?BlackFont@@3VRLCFont@@A 10039278     engine:engine.exe
 0002:0000027c       __imp_?DrawCentralTextWithBorder@@YAXPAD@Z 1003927c     engine:engine.exe
 0002:00000280       __imp_??0LocalGP@@QAE@PAD@Z 10039280     engine:engine.exe
 0002:00000284       __imp_?DarkScreen@@YAXXZ   10039284     engine:engine.exe
 0002:00000288       __imp_??0DialogsSystem@@QAE@HH@Z 10039288     engine:engine.exe
 0002:0000028c       __imp_?RealLy@@3HA         1003928c     engine:engine.exe
 0002:00000290       __imp_?RealLx@@3HA         10039290     engine:engine.exe
 0002:00000294       __imp_?addCustomBorder@ParentFrame@@QAEPAVCustomBorder@@HHHHHPAH0HH@Z 10039294     engine:engine.exe
 0002:00000298       __imp_?addGPPicture@ParentFrame@@QAEPAVGPPicture@@PAVSimpleDialog@@HHHH@Z 10039298     engine:engine.exe
 0002:0000029c       __imp_?GetTextByID@@YAPADPAD@Z 1003929c     engine:engine.exe
 0002:000002a0       __imp_?addGP_TextButton@ParentFrame@@QAEPAVGP_TextButton@@PAVSimpleDialog@@HHPADHHPAVRLCFont@@2@Z 100392a0     engine:engine.exe
 0002:000002a4       __imp_?MMItemChoose@@YA_NPAVSimpleDialog@@@Z 100392a4     engine:engine.exe
 0002:000002a8       __imp_?addInputBox@ParentFrame@@QAEPAVInputBox@@PAVSimpleDialog@@HHPADHHHPAVRLCFont@@2@Z 100392a8     engine:engine.exe
 0002:000002ac       __imp_?addTextButton@ParentFrame@@QAEPAVTextButton@@PAVSimpleDialog@@HHPADPAVRLCFont@@22E@Z 100392ac     engine:engine.exe
 0002:000002b0       __imp_?addColoredBar@ParentFrame@@QAEPAVColoredBar@@HHHHE@Z 100392b0     engine:engine.exe
 0002:000002b4       __imp_?ItemChoose@@3HA     100392b4     engine:engine.exe
 0002:000002b8       __imp_?LastKey@@3HA        100392b8     engine:engine.exe
 0002:000002bc       __imp_?KeyPressed@@3_NA    100392bc     engine:engine.exe
 0002:000002c0       __imp_?StdKeys@@YAXXZ      100392c0     engine:engine.exe
 0002:000002c4       __imp_?MarkToDraw@DialogsSystem@@QAEXXZ 100392c4     engine:engine.exe
 0002:000002c8       __imp_?ProcessDialogs@DialogsSystem@@QAEXXZ 100392c8     engine:engine.exe
 0002:000002cc       __imp_?RefreshView@DialogsSystem@@QAEXXZ 100392cc     engine:engine.exe
 0002:000002d0       __imp_?EnumPlr@@YA_NXZ     100392d0     engine:engine.exe
 0002:000002d4       __imp_?SendPings@@YAXXZ    100392d4     engine:engine.exe
 0002:000002d8       __imp_?GameInProgress@@3_NA 100392d8     engine:engine.exe
 0002:000002dc       __imp_??1DialogsSystem@@UAE@XZ 100392dc     engine:engine.exe
 0002:000002e0       __imp_??1LocalGP@@QAE@XZ   100392e0     engine:engine.exe
 0002:000002e4       __imp_?ScreenPtr@@3PAXA    100392e4     engine:engine.exe
 0002:000002e8       __imp_?LASTCLICKCHATNAME@@3PADA 100392e8     engine:engine.exe
 0002:000002ec       __imp_?DrawStdBar2@@YAXHHHHH@Z 100392ec     engine:engine.exe
 0002:000002f0       __imp_?GetPaletteColor@@YAEHHH@Z 100392f0     engine:engine.exe
 0002:000002f4       __imp_?YellowFont@@3VRLCFont@@A 100392f4     engine:engine.exe
 0002:000002f8       __imp_?WhiteFont@@3VRLCFont@@A 100392f8     engine:engine.exe
 0002:000002fc       __imp_?ShowClanString@@YAXHHPADEPAVRLCFont@@1HH@Z 100392fc     engine:engine.exe
 0002:00000300       __imp_?ShowString@@YAXHHPBDPAVRLCFont@@@Z 10039300     engine:engine.exe
 0002:00000304       __imp_?xLine@@YAXHHHHE@Z   10039304     engine:engine.exe
 0002:00000308       __imp_?RedFont@@3VRLCFont@@A 10039308     engine:engine.exe
 0002:0000030c       __imp_?g_SetWindParam@@YAXHHHH@Z 1003930c     engine:engine.exe
 0002:00000310       __imp_?ScrWidth@@3HA       10039310     engine:engine.exe
 0002:00000314       __imp_?g_GetWindParam@@YAXAAH000@Z 10039314     engine:engine.exe
 0002:00000318       __imp_?GetRLCStrWidth@@YAHPADPAVRLCFont@@@Z 10039318     engine:engine.exe
 0002:0000031c       __imp_?Ggetch@@YAHPAVGFILE@@@Z 1003931c     engine:engine.exe
 0002:00000320       __imp_?GetSound@@YAHPAD@Z  10039320     engine:engine.exe
 0002:00000324       __imp_?PlayEffect@@YAXHHH@Z 10039324     engine:engine.exe
 0002:00000328       __imp_?ProcessWindowMessages@@YA_NXZ 10039328     engine:engine.exe
 0002:0000032c       __imp_?FlipPages@@YAXXZ    1003932c     engine:engine.exe
 0002:00000330       __imp_?_ExFree@@YAXPAX@Z   10039330     engine:engine.exe
 0002:00000334       __imp_?_ExMalloc@@YAPAXH@Z 10039334     engine:engine.exe
 0002:00000338       __imp_?AddToGChat@@YAXPAD0@Z 10039338     engine:engine.exe
 0002:0000033c       __imp_?_ExRealloc@@YAPAXPAXH@Z 1003933c     engine:engine.exe
 0002:00000340       \177engine_NULL_THUNK_DATA 10039340     engine:engine.exe
 0002:0000036c       ??_C@_0N@KPBIPGEJ@ShaderConst3?$AA@ 1003936c     cs_chat.obj
 0002:0000037c       ??_C@_0N@LGADMHAI@ShaderConst2?$AA@ 1003937c     cs_chat.obj
 0002:0000038c       ??_C@_0N@JNCOJEML@ShaderConst1?$AA@ 1003938c     cs_chat.obj
 0002:0000039c       ??_C@_0N@IEDFKFIK@ShaderConst0?$AA@ 1003939c     cs_chat.obj
 0002:000003ac       ??_C@_0L@GHOGBNDA@ColorConst?$AA@ 100393ac     cs_chat.obj
 0002:000003b8       ??_C@_09GEFBHOED@NearPlane?$AA@ 100393b8     cs_chat.obj
 0002:000003c4       ??_C@_08FKNNILOO@FarPlane?$AA@ 100393c4     cs_chat.obj
 0002:000003d0       ??_C@_07MLIPOMCJ@TFactor?$AA@ 100393d0     cs_chat.obj
 0002:000003d8       ??_C@_0L@GJJOJJAL@TextureTM3?$AA@ 100393d8     cs_chat.obj
 0002:000003e4       ??_C@_0L@HAIFKIEK@TextureTM2?$AA@ 100393e4     cs_chat.obj
 0002:000003f0       ??_C@_0L@FLKIPLIJ@TextureTM1?$AA@ 100393f0     cs_chat.obj
 0002:000003fc       ??_C@_0L@ECLDMKMI@TextureTM0?$AA@ 100393fc     cs_chat.obj
 0002:00000408       ??_C@_0L@KBJFMPPF@FogDensity?$AA@ 10039408     cs_chat.obj
 0002:00000414       ??_C@_04OKOFBOPB@Time?$AA@ 10039414     cs_chat.obj
 0002:0000041c       ??_C@_0BA@JDJKGIOL@MaterialAmbient?$AA@ 1003941c     cs_chat.obj
 0002:0000042c       ??_C@_0BB@PLPCNHJL@MaterialSpecular?$AA@ 1003942c     cs_chat.obj
 0002:00000440       ??_C@_0BA@CBMKNDPH@MaterialDiffuse?$AA@ 10039440     cs_chat.obj
 0002:00000450       ??_C@_0N@KPHNJLIA@LightAmbient?$AA@ 10039450     cs_chat.obj
 0002:00000460       ??_C@_0O@CBKOIILI@LightSpecular?$AA@ 10039460     cs_chat.obj
 0002:00000470       ??_C@_0N@BNCNCAJM@LightDiffuse?$AA@ 10039470     cs_chat.obj
 0002:00000480       ??_C@_0BB@PCKIKEAN@LightDirObjSpace?$AA@ 10039480     cs_chat.obj
 0002:00000494       ??_C@_0BB@PKMBNDPD@LightPosObjSpace?$AA@ 10039494     cs_chat.obj
 0002:000004a8       ??_C@_08GGJDNDA@LightDir?$AA@ 100394a8     cs_chat.obj
 0002:000004b4       ??_C@_08MEIELAAL@LightPos?$AA@ 100394b4     cs_chat.obj
 0002:000004c0       ??_C@_07IIOFNIFN@ViewPos?$AA@ 100394c0     cs_chat.obj
 0002:000004c8       ??_C@_0M@PFAJDEJK@WorldViewTM?$AA@ 100394c8     cs_chat.obj
 0002:000004d4       ??_C@_0BA@INHCCAOC@WorldViewProjTM?$AA@ 100394d4     cs_chat.obj
 0002:000004e4       ??_C@_0L@JNEECPAO@ViewProjTM?$AA@ 100394e4     cs_chat.obj
 0002:000004f0       ??_C@_06GGDHCFCD@ProjTM?$AA@ 100394f0     cs_chat.obj
 0002:000004f8       ??_C@_06IEDFHFKC@ViewTM?$AA@ 100394f8     cs_chat.obj
 0002:00000500       ??_C@_07DIMOAHLD@WorldTM?$AA@ 10039500     cs_chat.obj
 0002:0000050c       ??_C@_00CNPNBAHC@?$AA@     1003950c     cs_chat.obj
 0002:00000510       ??_C@_04HDOCAJNK@?$CFs?$CFs?$AA@ 10039510     cs_chat.obj
 0002:00000518       ??_C@_09NHCJJJGJ@?$CIprivate?$CJ?$AA@ 10039518     cs_chat.obj
 0002:00000524       ??_C@_03MFEMLKBL@?$EA?$EA?$EA?$AA@ 10039524     cs_chat.obj
 0002:00000528       ??_C@_0BD@JFOKNOFN@?$EA?$EA?$EANFO?5?2$flags$?2g?2?$AA@ 10039528     cs_chat.obj
 0002:0000053c       ??_C@_03NIPCJJOH@?$HL6?$HN?$AA@ 1003953c     cs_chat.obj
 0002:00000540       ??_C@_03EGDLPOO@?$HL5?$CJ?$AA@ 10039540     cs_chat.obj
 0002:00000544       ??_C@_03NLHGENIJ@?$HL4?$HN?$AA@ 10039544     cs_chat.obj
 0002:00000548       ??_C@_03OOMDFM@?$HL3?$CJ?$AA@ 10039548     cs_chat.obj
 0002:0000054c       ??_C@_03NODJFLAM@?$HL3?$HN?$AA@ 1003954c     cs_chat.obj
 0002:00000550       ??_C@_03BCMKJGL@?$HL2?$CJ?$AA@ 10039550     cs_chat.obj
 0002:00000554       ??_C@_03NPPLDBDL@?$HL2?$HN?$AA@ 10039554     cs_chat.obj
 0002:00000558       ??_C@_03NNLNIPGC@?$HL1?$HN?$AA@ 10039558     cs_chat.obj
 0002:0000055c       ??_C@_01CLKCMJKC@?5?$AA@   1003955c     cs_chat.obj
 0002:00000560       ??_C@_0M@OJPPJHFC@?$EA?$EA?$EAADDABPL?5?$AA@ 10039560     cs_chat.obj
 0002:0000056c       ??_C@_0BF@HABNGMNN@?$CDGSP?$CBcossacks?$CBA2V001?$AA@ 1003956c     cs_chat.obj
 0002:00000584       ??_C@_0O@DNDJMDLF@?$CDGSP?$CBcossacks?$AA@ 10039584     cs_chat.obj
 0002:00000594       ??_C@_0BF@PJOMLONG@peerchat?4gamespy?4com?$AA@ 10039594     cs_chat.obj
 0002:000005ac       ??_C@_05LBJMNBOG@empty?$AA@ 100395ac     cs_chat.obj
 0002:000005b8       ??_C@_05JLPDBANI@START?$AA@ 100395b8     GSC_ChatWindow.obj
 0002:000005c0       ??_C@_04PFAOODAA@?$CFs?3?5?$AA@ 100395c0     GSC_ChatWindow.obj
 0002:000005c8       ??_C@_03NAEMJKHE@?$CI?$DP?$CJ?$AA@ 100395c8     GSC_ChatWindow.obj
 0002:000005cc       ??_C@_07FOMIFKOD@?$CFs?9?9?$DO?$CFs?$AA@ 100395cc     GSC_ChatWindow.obj
 0002:000005d4       ??_C@_08LMHGJPEM@?9?9?$DO?$CFs?3?$CFs?$AA@ 100395d4     GSC_ChatWindow.obj
 0002:000005e0       ??_C@_09HGKCHGP@ENTERMESS?$AA@ 100395e0     GSC_ChatWindow.obj
 0002:000005ec       ??_C@_07EGFIAKIP@?$EACANCEL?$AA@ 100395ec     GSC_ChatWindow.obj
 0002:000005f4       ??_C@_03CNOECEON@?$EAOK?$AA@ 100395f4     GSC_ChatWindow.obj
 0002:000005f8       ??_C@_0BE@FDJGEHCM@Internet?2pix?2i_bor1?$AA@ 100395f8     GSC_ChatWindow.obj
 0002:0000060c       ??_C@_0P@OOOEGKOK@Interface?2bor2?$AA@ 1003960c     GSC_ChatWindow.obj
 0002:0000061c       ??_C@_0BB@LAABOIDB@Interf3?2internet?$AA@ 1003961c     GSC_ChatWindow.obj
 0002:00000630       ??_C@_0BD@JHKLHKHO@Interf3?2background?$AA@ 10039630     GSC_ChatWindow.obj
 0002:00000644       ??_C@_0BA@LDNKKLAL@Interf3?2loading?$AA@ 10039644     GSC_ChatWindow.obj
 0002:00000654       ??_C@_09JHJEDDP@httpc?4exe?$AA@ 10039654     GSC_ChatWindow.obj
 0002:00000660       ??_C@_0CB@NFGOBDGD@LW_file?$CGinternet?1cash?1cancel?4cml@ 10039660     GSC_ChatWindow.obj
 0002:00000684       ??_C@_06MKJHDOMO@?$CFCG_IP?$AA@ 10039684     GSC_ChatWindow.obj
 0002:0000068c       ??_C@_05NMMJGJIE@JGAME?$AA@ 1003968c     GSC_ChatWindow.obj
 0002:00000694       ??_C@_05ICJDLAAL@?$CFGOPT?$AA@ 10039694     GSC_ChatWindow.obj
 0002:0000069c       ??_C@_0L@EKKDABIC@?$CFCG_PLNAME?$AA@ 1003969c     GSC_ChatWindow.obj
 0002:000006a8       ??_C@_09EMEHFDMK@?$CFCG_MAXPL?$AA@ 100396a8     GSC_ChatWindow.obj
 0002:000006b4       ??_C@_0N@LKOBKKEK@?$CFCG_GAMENAME?$AA@ 100396b4     GSC_ChatWindow.obj
 0002:000006c4       ??_C@_0L@ICJEMEAG@?$CFCG_GAMEID?$AA@ 100396c4     GSC_ChatWindow.obj
 0002:000006d0       ??_C@_05PLMGDIEM@CGAME?$AA@ 100396d0     GSC_ChatWindow.obj
 0002:000006d8       ??_C@_08BKNNHMPK@?$CFCOMMAND?$AA@ 100396d8     GSC_ChatWindow.obj
 0002:000006e4       ??_C@_0BJ@JHEHHHMH@Interface?2Back_Shell?4jpg?$AA@ 100396e4     GSC_ChatWindow.obj
 0002:00000700       ??_C@_0BG@IAJEFOJC@CHAT_WINDOW_BIG_LINES?$AA@ 10039700     GSC_ChatWindow.obj
 0002:00000718       ??_C@_0CC@DHCOMOGP@LW_file?$CGInternet?1Cash?1mainfrm?4cm@ 10039718     GSC_ChatWindow.obj
 0002:0000073c       ??_C@_0BM@MGNMIPKP@Interface?2Back_Shell_02?4jpg?$AA@ 1003973c     GSC_ChatWindow.obj
 0002:00000758       ??_C@_0BA@DFNPKBKB@CHAT_SCROLL_DLY?$AA@ 10039758     GSC_ChatWindow.obj
 0002:00000768       ??_C@_0BA@NNEDAHBM@CHAT_WINDOW_DLY?$AA@ 10039768     GSC_ChatWindow.obj
 0002:00000778       ??_C@_0BK@PGEEBINN@Internet?2Cash?2pl_info?4cmd?$AA@ 10039778     GSC_ChatWindow.obj
 0002:00000794       ??_C@_0BK@EDPIGMEO@Internet?2Cash?2join_pl?4cmd?$AA@ 10039794     GSC_ChatWindow.obj
 0002:000007b0       ??_C@_0BH@LLPBEDIG@Internet?2Cash?2t100?4cmd?$AA@ 100397b0     GSC_ChatWindow.obj
 0002:000007c8       ??_C@_0BI@IDAGDBCG@Internet?2Cash?2rooms?4cmd?$AA@ 100397c8     GSC_ChatWindow.obj
 0002:000007e0       ??_C@_06INCIDPKO@?9?9?$DO?$CFs?3?$AA@ 100397e0     GSC_ChatWindow.obj
 0002:000007e8       ??_C@_09CEFCLLHD@?$HOGSCPROF_?$AA@ 100397e8     GSC_ChatWindow.obj
 0002:000007f4       ??_C@_0L@EDNELBBF@?$CFCV_ENGINE?$AA@ 100397f4     GSC_ChatWindow.obj
 0002:00000800       ??_C@_02DPKJAMEF@?$CFd?$AA@ 10039800     GSC_ChatWindow.obj
 0002:00000804       ??_C@_09JPIJCJEK@?$CFCV_LOBBY?$AA@ 10039804     GSC_ChatWindow.obj
 0002:00000810       ??_C@_08IMDKPMA@?$CFCP_MAIL?$AA@ 10039810     GSC_ChatWindow.obj
 0002:0000081c       ??_C@_08CMHNJALK@?$CFCP_PROF?$AA@ 1003981c     GSC_ChatWindow.obj
 0002:00000828       ??_C@_08MIABOOOO@?$CFCP_NICK?$AA@ 10039828     GSC_ChatWindow.obj
 0002:00000834       ??_C@_0O@NJAMEEI@?$CFd?2agew_1?4pal?$AA@ 10039834     GSC_ChatWindow.obj
 0002:00000844       ??_C@_0BE@JPLCPLLG@LW_gvar?$CG?$CF?$CFASTATE?$CG?$CFd?$AA@ 10039844     GSC_ChatWindow.obj
 0002:00000858       ??_C@_0BI@IANAMCHK@Internet?2Cash?2home1?4cmd?$AA@ 10039858     GSC_ChatWindow.obj
 0002:00000870       ??_C@_0BH@PNOLBMFC@LF?$HMLW_new?$HMopen?$CGreq?4txt?$AA@ 10039870     GSC_ChatWindow.obj
 0002:00000888       ??_C@_0L@ICFEKJHL@EXPLORER_X?$AA@ 10039888     GSC_ChatWindow.obj
 0002:00000894       ??_C@_0L@JLEPJIDK@EXPLORER_Y?$AA@ 10039894     GSC_ChatWindow.obj
 0002:000008a0       ??_C@_0M@BAIPLKP@EXPLORER_X1?$AA@ 100398a0     GSC_ChatWindow.obj
 0002:000008ac       ??_C@_0M@MKJBJI@EXPLORER_Y1?$AA@ 100398ac     GSC_ChatWindow.obj
 0002:000008b8       ??_C@_0BB@PLFKOJMA@?$CFs?$CGnick_ex?$DN?$CFd?200?$AA@ 100398b8     GSC_ChatWindow.obj
 0002:000008cc       ??_C@_0BH@KPOIACCE@Internet?2Cash?2home?4cmd?$AA@ 100398cc     GSC_ChatWindow.obj
 0002:000008e4       ??_C@_03NDCLAJNL@?$CFs?$HL?$AA@ 100398e4     GSC_ChatWindow.obj
 0002:000008e8       ??_C@_08LODOLFOC@NPLAYMSS?$AA@ 100398e8     GSC_ChatWindow.obj
 0002:000008f4       ??_C@_0BK@EPFOPHHF@Internet?1Cash?1mainfrm?4cml?$AA@ 100398f4     GSC_ChatWindow.obj
 0002:00000910       ??_C@_01NOFIACDB@w?$AA@    10039910     GSC_ChatWindow.obj
 0002:00000914       ??_C@_0BB@MAGGBKCD@CHAT_CLOSE_FRM?$CFd?$AA@ 10039914     GSC_ChatWindow.obj
 0002:00000928       ??_C@_0BB@BGFMDKMA@CHAT_CLOSE_N_FRM?$AA@ 10039928     GSC_ChatWindow.obj
 0002:0000093c       ??_C@_07LALBJJKD@IG_BACK?$AA@ 1003993c     GSC_ChatWindow.obj
 0002:00000944       ??_C@_09LNDHNMLD@IG_CANCEL?$AA@ 10039944     GSC_ChatWindow.obj
 0002:00000950       ??_C@_0BJ@OKKCOAEP@CHAT_IG_BACK_BUTTON_TEXT?$AA@ 10039950     GSC_ChatWindow.obj
 0002:0000096c       ??_C@_0BG@PPOIOGOK@CHAT_IG_BACK_BUTTON_Y?$AA@ 1003996c     GSC_ChatWindow.obj
 0002:00000984       ??_C@_0BI@GMKLEFLJ@CHAT_CANCEL_BUTTON_TEXT?$AA@ 10039984     GSC_ChatWindow.obj
 0002:0000099c       ??_C@_0BF@NCFGMOHE@CHAT_CANCEL_BUTTON_Y?$AA@ 1003999c     GSC_ChatWindow.obj
 0002:000009b4       ??_C@_0BJ@FCELINLC@CHAT_CANCEL_BUTTON_STATE?$AA@ 100399b4     GSC_ChatWindow.obj
 0002:000009d0       ??_C@_0M@IGJKDBOM@VIEW_RESIZE?$AA@ 100399d0     GSC_ChatWindow.obj
 0002:000009dc       ??_C@_0BC@FPGNPMGB@EXPLORER_RESIZE_X?$AA@ 100399dc     GSC_ChatWindow.obj
 0002:000009f0       ??_C@_0BC@EGHGMNCA@EXPLORER_RESIZE_Y?$AA@ 100399f0     GSC_ChatWindow.obj
 0002:00000a04       ??_C@_0BK@NOPEOMLN@EXPLORER_RESIZE_BUTTON_ID?$AA@ 10039a04     GSC_ChatWindow.obj
 0002:00000a20       ??_C@_06MJODCMDF@INHIN4?$AA@ 10039a20     GSC_ChatWindow.obj
 0002:00000a28       ??_C@_0BH@OFMJCLEN@PERSONAL_CHAT_BUTTON_X?$AA@ 10039a28     GSC_ChatWindow.obj
 0002:00000a40       ??_C@_0BH@PMNCBKAM@PERSONAL_CHAT_BUTTON_Y?$AA@ 10039a40     GSC_ChatWindow.obj
 0002:00000a58       ??_C@_0BI@IBHJLHEA@PERSONAL_CHAT_BUTTON_ID?$AA@ 10039a58     GSC_ChatWindow.obj
 0002:00000a70       ??_C@_06NAPIBNHE@INHIN5?$AA@ 10039a70     GSC_ChatWindow.obj
 0002:00000a78       ??_C@_06PLNFEOLH@INHIN6?$AA@ 10039a78     GSC_ChatWindow.obj
 0002:00000a80       ??_C@_0O@CDDIMLJN@PLAYER_MUTE_X?$AA@ 10039a80     GSC_ChatWindow.obj
 0002:00000a90       ??_C@_0O@DKCDPKNM@PLAYER_MUTE_Y?$AA@ 10039a90     GSC_ChatWindow.obj
 0002:00000aa0       ??_C@_0P@HGMJEHE@PLAYER_MUTE_ID?$AA@ 10039aa0     GSC_ChatWindow.obj
 0002:00000ab0       ??_C@_0BH@IFDKBELM@JOIN_TO_PLAYER_VISIBLE?$AA@ 10039ab0     GSC_ChatWindow.obj
 0002:00000ac8       ??_C@_08JPOFGLHM@JOINPLGM?$AA@ 10039ac8     GSC_ChatWindow.obj
 0002:00000ad4       ??_C@_0BB@PCGFEHHA@JOIN_TO_PLAYER_X?$AA@ 10039ad4     GSC_ChatWindow.obj
 0002:00000ae8       ??_C@_0BB@OLHOHGDB@JOIN_TO_PLAYER_Y?$AA@ 10039ae8     GSC_ChatWindow.obj
 0002:00000afc       ??_C@_0BC@NJAGFHDN@JOIN_TO_PLAYER_ID?$AA@ 10039afc     GSC_ChatWindow.obj
 0002:00000b10       ??_C@_06JPLJILLD@INHIN2?$AA@ 10039b10     GSC_ChatWindow.obj
 0002:00000b18       ??_C@_0BF@EOEPFLNG@PLAYER_INFO_BUTTON_X?$AA@ 10039b18     GSC_ChatWindow.obj
 0002:00000b30       ??_C@_0BF@FHFEGKJH@PLAYER_INFO_BUTTON_Y?$AA@ 10039b30     GSC_ChatWindow.obj
 0002:00000b48       ??_C@_0BG@OGAPHLPM@PLAYER_INFO_BUTTON_ID?$AA@ 10039b48     GSC_ChatWindow.obj
 0002:00000b60       ??_C@_0O@HOCPJGHI@CHAT_PERSONAL?$AA@ 10039b60     GSC_ChatWindow.obj
 0002:00000b70       ??_C@_08MNFFCKAI@CHAT_ALL?$AA@ 10039b70     GSC_ChatWindow.obj
 0002:00000b7c       ??_C@_0BF@LIKPFGDG@CHAT_SWITCH_BUTTON_X?$AA@ 10039b7c     GSC_ChatWindow.obj
 0002:00000b94       ??_C@_0BF@KBLEGHHH@CHAT_SWITCH_BUTTON_Y?$AA@ 10039b94     GSC_ChatWindow.obj
 0002:00000bac       ??_C@_0BG@EGPDHJIJ@CHAT_SWITCH_BUTTON_ID?$AA@ 10039bac     GSC_ChatWindow.obj
 0002:00000bc4       ??_C@_0N@IENOOIBF@CHAT_VERSION?$AA@ 10039bc4     GSC_ChatWindow.obj
 0002:00000bd4       ??_C@_0M@CKFAFKIH@CHAT_COMMON?$AA@ 10039bd4     GSC_ChatWindow.obj
 0002:00000be0       ??_C@_0BG@IGGBNLEE@CHAT_VERSION_SWITCH_X?$AA@ 10039be0     GSC_ChatWindow.obj
 0002:00000bf8       ??_C@_0BG@JPHKOKAF@CHAT_VERSION_SWITCH_Y?$AA@ 10039bf8     GSC_ChatWindow.obj
 0002:00000c10       ??_C@_0BH@PIMGKHBE@CHAT_VERSION_SWITCH_ID?$AA@ 10039c10     GSC_ChatWindow.obj
 0002:00000c28       ??_C@_0P@HBACOOHJ@CHAT_SEND_MESS?$AA@ 10039c28     GSC_ChatWindow.obj
 0002:00000c38       ??_C@_0BB@KMMNMCBD@CHAT_SEND_MESS_X?$AA@ 10039c38     GSC_ChatWindow.obj
 0002:00000c4c       ??_C@_0BB@LFNGPDFC@CHAT_SEND_MESS_Y?$AA@ 10039c4c     GSC_ChatWindow.obj
 0002:00000c60       ??_C@_0BC@NODMPFK@CHAT_SEND_MESS_ID?$AA@ 10039c60     GSC_ChatWindow.obj
 0002:00000c74       ??_C@_0O@GKCCNBJG@BOTTOM_PICT_X?$AA@ 10039c74     GSC_ChatWindow.obj
 0002:00000c84       ??_C@_0O@HDDJOANH@BOTTOM_PICT_Y?$AA@ 10039c84     GSC_ChatWindow.obj
 0002:00000c94       ??_C@_0P@JAPHFHOG@BOTTOM_PICT_ID?$AA@ 10039c94     GSC_ChatWindow.obj
 0002:00000ca4       ??_C@_0BG@OGPDNHKL@CHAT_IG_BACK_BUTTON_X?$AA@ 10039ca4     GSC_ChatWindow.obj
 0002:00000cbc       ??_C@_0BF@MLENPPDF@CHAT_CANCEL_BUTTON_X?$AA@ 10039cbc     GSC_ChatWindow.obj
 0002:00000cd4       ??_C@_0BF@PNEEGEIO@PLAYERS_LIST_LINE_LX?$AA@ 10039cd4     GSC_ChatWindow.obj
 0002:00000cec       ??_C@_0P@FELFPONC@PLAYERS_LIST_X?$AA@ 10039cec     GSC_ChatWindow.obj
 0002:00000cfc       ??_C@_0P@ENKOMPJD@PLAYERS_LIST_Y?$AA@ 10039cfc     GSC_ChatWindow.obj
 0002:00000d0c       ??_C@_0BA@BLFLDPNJ@PLAYERS_LIST_NY?$AA@ 10039d0c     GSC_ChatWindow.obj
 0002:00000d1c       ??_C@_0BF@OEFPFFMP@PLAYERS_LIST_LINE_LY?$AA@ 10039d1c     GSC_ChatWindow.obj
 0002:00000d34       ??_C@_0BD@PANBBBDN@PLAYERS_SCROLLER_X?$AA@ 10039d34     GSC_ChatWindow.obj
 0002:00000d48       ??_C@_0BD@OJMKCAHM@PLAYERS_SCROLLER_Y?$AA@ 10039d48     GSC_ChatWindow.obj
 0002:00000d5c       ??_C@_0BE@CIMOHALB@PLAYERS_SCROLLER_LY?$AA@ 10039d5c     GSC_ChatWindow.obj
 0002:00000d70       ??_C@_0BA@GNIGAKKJ@CHAT_SCROLLER_X?$AA@ 10039d70     GSC_ChatWindow.obj
 0002:00000d80       ??_C@_0BA@HEJNDLOI@CHAT_SCROLLER_Y?$AA@ 10039d80     GSC_ChatWindow.obj
 0002:00000d90       ??_C@_0BB@NPDBHAPH@CHAT_SCROLLER_LY?$AA@ 10039d90     GSC_ChatWindow.obj
 0002:00000da4       ??_C@_0BE@JHGPFFLD@ENTER_CHAT_STRING_X?$AA@ 10039da4     GSC_ChatWindow.obj
 0002:00000db8       ??_C@_0BE@IOHEGEPC@ENTER_CHAT_STRING_Y?$AA@ 10039db8     GSC_ChatWindow.obj
 0002:00000dcc       ??_C@_0BF@DLLCFBJD@ENTER_CHAT_STRING_LX?$AA@ 10039dcc     GSC_ChatWindow.obj
 0002:00000de4       ??_C@_0BF@CCKJGANC@ENTER_CHAT_STRING_LY?$AA@ 10039de4     GSC_ChatWindow.obj
 0002:00000dfc       ??_C@_0O@OGELGLFN@CHAT_WINDOW_X?$AA@ 10039dfc     GSC_ChatWindow.obj
 0002:00000e0c       ??_C@_0O@PPFAFKBM@CHAT_WINDOW_Y?$AA@ 10039e0c     GSC_ChatWindow.obj
 0002:00000e1c       ??_C@_0BC@HGKJDGDK@CHAT_WINDOW_LINES?$AA@ 10039e1c     GSC_ChatWindow.obj
 0002:00000e30       ??_C@_0BH@JHIHOEGA@CHAT_WINDOW_LINES_DIST?$AA@ 10039e30     GSC_ChatWindow.obj
 0002:00000e48       ??_C@_0BC@MENHCGNL@CHAT_WINDOW_WIDTH?$AA@ 10039e48     GSC_ChatWindow.obj
 0002:00000e5c       ??_C@_0BH@JJBDICGC@PLLIST_PASSIVE_BGROUND?$AA@ 10039e5c     GSC_ChatWindow.obj
 0002:00000e74       ??_C@_0BE@FIFKDFLL@PLLIST_SELECTION_LX?$AA@ 10039e74     GSC_ChatWindow.obj
 0002:00000e88       ??_C@_0BD@HJGHKEKO@PLLIST_SELECTION_X?$AA@ 10039e88     GSC_ChatWindow.obj
 0002:00000e9c       ??_C@_0BG@IPGFMEOK@PLLIST_ACTIVE_BGROUND?$AA@ 10039e9c     GSC_ChatWindow.obj
 0002:00000eb4       ??_C@_0BH@BLJAGMDG@PLLIST_PASSIVE_CORNERS?$AA@ 10039eb4     GSC_ChatWindow.obj
 0002:00000ecc       ??_C@_0BG@NOGCKLO@PLLIST_ACTIVE_CORNERS?$AA@ 10039ecc     GSC_ChatWindow.obj
 0002:00000ee4       ??_C@_0BB@JFMJGBEP@?$CFd?$CFd?$CFd?$CFd?$CFd?$CFd?$CFd?$CFd?$AA@ 10039ee4     GSC_ChatWindow.obj
 0002:00000ef8       ??_C@_07POPBLGHN@ICUNCON?$AA@ 10039ef8     GSC_ChatWindow.obj
 0002:00000f00       ??_C@_0L@LPBMOPDE@GSCPROF_?$CFs?$AA@ 10039f00     GSC_ChatWindow.obj
 0002:00000f0c       ??_C@_07NFANNNEC@UNKNOWN?$AA@ 10039f0c     GSC_ChatWindow.obj
 0002:00000f14       ??_C@_05LJBANPDP@?$CFMAIL?$AA@ 10039f14     GSC_ChatWindow.obj
 0002:00000f1c       ??_C@_05JNKOOAEF@?$CFPROF?$AA@ 10039f1c     GSC_ChatWindow.obj
 0002:00000f24       ??_C@_05HJNCJOBB@?$CFNICK?$AA@ 10039f24     GSC_ChatWindow.obj
 0002:00000f2c       ??_C@_06PCBGMAFK@ICCONN?$AA@ 10039f2c     GSC_ChatWindow.obj
 0002:00000f34       ??_C@_06PBGCFCCL@?$CFCHNL2?$AA@ 10039f34     GSC_ChatWindow.obj
 0002:00000f3c       ??_C@_06NKEPABOI@?$CFCHNL1?$AA@ 10039f3c     GSC_ChatWindow.obj
 0002:00000f44       ??_C@_05PHCAOHDF@?$CFCHAT?$AA@ 10039f44     GSC_ChatWindow.obj
 0002:00000f4c       ??_C@_0BI@JPEGPBDF@Interf3?2elements?2li_02_?$AA@ 10039f4c     GSC_ChatWindow.obj
 0002:00000f64       ??_C@_0BO@PJFABAB@Interf3?2InGame?2_common_scroll?$AA@ 10039f64     GSC_ChatWindow.obj
 0002:00000f84       ??_C@_0BE@OCKNHBFM@Internet?2pix?2i_pri0?$AA@ 10039f84     GSC_ChatWindow.obj
 0002:00000f98       ??_C@_0P@FHBPHONE@Interf3?2tgabut?$AA@ 10039f98     GSC_ChatWindow.obj
 0002:00000fa8       ??_C@_0BE@PLLGEABN@Internet?2pix?2i_pri1?$AA@ 10039fa8     GSC_ChatWindow.obj
 0002:00000fbc       ??_C@_0BF@DMHLGFOK@Internet?2pix?2is_btns?$AA@ 10039fbc     GSC_ChatWindow.obj
 0002:00000fd4       ??_C@_0BE@HILLBEOP@Internet?2pix?2i_bor2?$AA@ 10039fd4     GSC_ChatWindow.obj
 0002:00000fe8       ??_C@_0BA@CHEAFKBA@Interface?2igame?$AA@ 10039fe8     GSC_ChatWindow.obj
 0002:00000ff8       ??_C@_03CAKEDOOO@bmp?$AA@  10039ff8     GSC_ChatWindow.obj
 0002:00000ffc       ??_C@_03PEGNKCLE@jpg?$AA@  10039ffc     GSC_ChatWindow.obj
 0002:00001000       ??_C@_0BG@GGFIECHB@Interface?2Back_shell?4?$AA@ 1003a000     GSC_ChatWindow.obj
 0002:00001018       ??_C@_0N@CGBOEKFP@PALETTE_FILE?$AA@ 1003a018     GSC_ChatWindow.obj
 0002:00001028       ??_C@_0O@PFCMDFJ@PALETTE_INDEX?$AA@ 1003a028     GSC_ChatWindow.obj
 0002:00001038       ??_C@_06ELOHELOA@DEFINE?$AA@ 1003a038     GSC_ChatWindow.obj
 0002:00001040       ??_C@_02JPBCEBAF@C2?$AA@   1003a040     GSC_ChatWindow.obj
 0002:00001044       ??_C@_0BF@PILJDAJH@Internet?2gscchat?4ini?$AA@ 1003a044     GSC_ChatWindow.obj
 0002:0000105c       ??_C@_02DKCKIIND@?$CFs?$AA@ 1003a05c     GSC_ChatWindow.obj
 0002:00001060       ??_C@_01KDCPPGHE@r?$AA@    1003a060     GSC_ChatWindow.obj
 0002:00001064       ??_C@_08DCKGOJGF@GW?$HMleave?$AA@ 1003a064     GSC_ChatWindow.obj
 0002:00001070       ??_C@_0BC@MEIOBCO@StartGSCGame?$CI?$CFs?$CJ?6?$AA@ 1003a070     GSC_ChatWindow.obj
 0002:00001084       ??_C@_04EACKMPAP@?$DMAI?$DO?$AA@ 1003a084     GSC_ChatWindow.obj
 0002:0000108c       ??_C@_08GHENCBHI@sav?3?$FL?$CFs?$FN?$AA@ 1003a08c     GSC_ChatWindow.obj
 0002:00001098       ??_C@_05FAGFPHJG@start?$AA@ 1003a098     GSC_ChatWindow.obj
 0002:000010a0       ??_C@_02IAJBHGDL@GW?$AA@   1003a0a0     GSC_ChatWindow.obj
 0002:000010a4       ??_C@_07FLFDJLCH@Save?2?$CFs?$AA@ 1003a0a4     GSC_ChatWindow.obj
 0002:000010ac       ??_C@_04DCNCEOO@?4SAV?$AA@ 1003a0ac     GSC_ChatWindow.obj
 0002:000010b4       ??_C@_04ONGOJJC@?4sav?$AA@ 1003a0b4     GSC_ChatWindow.obj
 0002:000010bc       ??_C@_0BA@DINAHNHA@?9?$DOStartGSCGame?6?$AA@ 1003a0bc     GSC_ChatWindow.obj
 0002:000010cc       ??_C@_0CB@LFNFNABC@ReportGSCGame?$CI?$CFd?0?$CFd?0?$HL?$CFd?0?$CFd?0?$CFd?$HN?$CJ?6@ 1003a0cc     GSC_ChatWindow.obj
 0002:000010f0       ??_C@_05BLKJBNOD@stats?$AA@ 1003a0f0     GSC_ChatWindow.obj
 0002:000010f8       ??_C@_0BB@JDCBIGJB@?9?$DOReportGSCGame?6?$AA@ 1003a0f8     GSC_ChatWindow.obj
 0002:0000110c       ??_C@_05NPIPCLGG@alive?$AA@ 1003a10c     GSC_ChatWindow.obj
 0002:00001114       ??_C@_0BJ@BBCMKHPJ@SendVictoryState?$CI?$CFd?0?$CFd?$CJ?6?$AA@ 1003a114     GSC_ChatWindow.obj
 0002:00001130       ??_C@_07LKDHAIBH@endgame?$AA@ 1003a130     GSC_ChatWindow.obj
 0002:00001138       ??_C@_0BE@KJBCLNOD@?9?$DOSendVictoryState?6?$AA@ 1003a138     GSC_ChatWindow.obj
 0002:0000114c       ??_C@_0P@CMFPIHEE@GW?$HMdontrate?$CG?$CFs?$AA@ 1003a14c     GSC_ChatWindow.obj
 0002:0000115c       ??_C@_06DKEDAPL@?$CFs?6?$CFs?6?$AA@ 1003a15c     GSC_ChatWindow.obj
 0002:00001164       ??_C@_0BI@MDJENLFE@Internet?2Cash?2info?4cash?$AA@ 1003a164     GSC_ChatWindow.obj
 0002:00001180       ??_C@_01HNPIGOCE@?$CG?$AA@ 1003a180     ParseRQ.obj
 0002:00001184       ??_C@_01DNKMNLPK@?$HM?$AA@ 1003a184     ParseRQ.obj
 0002:00001188       ??_C@_0N@LKIBCLDH@data?5?$CB?$DN?5NULL?$AA@ 1003a188     chatCallbacks.obj
 0002:00001198       ??_C@_0FA@NCMAKDCH@d?3?2aaaaaaaaaaaaaaaaaaa?5yourself?2@ 1003a198     chatCallbacks.obj
 0002:000011e8       ??_C@_0O@PIHHDOJA@data?9?$DOID?5?$DO?$DN?50?$AA@ 1003a1e8     chatCallbacks.obj
 0002:000011f8       ??_C@_0BN@BKDGBEMA@data?9?$DOcallbackParams?5?$CB?$DN?5NULL?$AA@ 1003a1f8     chatCallbacks.obj
 0002:00001218       ??_C@_0BH@LIFAPBGC@data?9?$DOcallback?5?$CB?$DN?5NULL?$AA@ 1003a218     chatCallbacks.obj
 0002:00001230       ??_C@_0BK@JKFHDDGO@data?9?$DOtype?5?$DM?5CALLBACK_NUM?$AA@ 1003a230     chatCallbacks.obj
 0002:0000124c       ??_C@_0BA@PDFOJPCI@data?9?$DOtype?5?$DO?$DN?50?$AA@ 1003a24c     chatCallbacks.obj
 0002:0000125c       ??_C@_0N@EEHNDFNL@chat?5?$CB?$DN?5NULL?$AA@ 1003a25c     chatCallbacks.obj
 0002:0000126c       ??_C@_01GBGANLPD@0?$AA@    1003a26c     chatCallbacks.obj
 0002:00001270       ??_C@_0BE@LEPOAHKO@srcParams?9?$DOnum?5?$DO?$DN?50?$AA@ 1003a270     chatCallbacks.obj
 0002:00001284       ??_C@_0BI@KHCIMKOD@srcParams?9?$DOnumBans?5?$DO?$DN?50?$AA@ 1003a284     chatCallbacks.obj
 0002:0000129c       ??_C@_0BJ@HPKGGHI@srcParams?9?$DOmodes?5?$CB?$DN?5NULL?$AA@ 1003a29c     chatCallbacks.obj
 0002:000012b8       ??_C@_0BJ@NOJPHFAG@srcParams?9?$DOnumUsers?5?$DO?$DN?50?$AA@ 1003a2b8     chatCallbacks.obj
 0002:000012d4       ??_C@_0BM@MJDIJBO@srcParams?9?$DOnumUsers?5?$CB?$DN?5NULL?$AA@ 1003a2d4     chatCallbacks.obj
 0002:000012f0       ??_C@_0BM@EDDJCEFL@srcParams?9?$DOnumChannels?5?$DO?$DN?50?$AA@ 1003a2f0     chatCallbacks.obj
 0002:0000130c       ??_C@_0BD@JPIFPJJN@channel?$FL0?$FN?5?$CB?$DN?5?8?20?8?$AA@ 1003a30c     chatCallbacks.obj
 0002:00001320       ??_C@_07OALMPLIE@ID?5?$DO?$DN?50?$AA@ 1003a320     chatCallbacks.obj
 0002:00001328       ??_C@_0BH@IHHGEDHP@callbackParamsSize?5?$DO?50?$AA@ 1003a328     chatCallbacks.obj
 0002:00001340       ??_C@_0BH@GCHLAIIP@callbackParams?5?$CB?$DN?5NULL?$AA@ 1003a340     chatCallbacks.obj
 0002:00001358       ??_C@_0BB@FKKFOAML@callback?5?$CB?$DN?5NULL?$AA@ 1003a358     chatCallbacks.obj
 0002:0000136c       ??_C@_0CB@JICGOPEE@connection?9?$DOcallbackList?5?$CB?$DN?5NULL@ 1003a36c     chatCallbacks.obj
 0002:00001390       ??_C@_0BE@NCPAHAOA@type?5?$DM?5CALLBACK_NUM?$AA@ 1003a390     chatCallbacks.obj
 0002:000013a4       ??_C@_09DGPOGGIJ@type?5?$DO?$DN?50?$AA@ 1003a3a4     chatCallbacks.obj
 0002:000013b0       ??_C@_0P@CMBNEEFP@numBuckets?5?$DO?50?$AA@ 1003a3b0     chatChannel.obj
 0002:000013c0       ??_C@_0N@IMPMAINJ@elem?5?$CB?$DN?5NULL?$AA@ 1003a3c0     chatChannel.obj
 0002:000013d0       ??_C@_0EO@GLIBCBGN@d?3?2aaaaaaaaaaaaaaaaaaa?5yourself?2@ 1003a3d0     chatChannel.obj
 0002:00001420       ??_C@_0P@EKKODEIO@str?$FL0?$FN?5?$CB?$DN?5?8?20?8?$AA@ 1003a420     chatChannel.obj
 0002:00001430       ??_C@_0M@CMNAFCJK@str?5?$CB?$DN?5NULL?$AA@ 1003a430     chatChannel.obj
 0002:0000143c       ??_C@_0BA@FJCGKONA@str2?$FL0?$FN?5?$CB?$DN?5?8?20?8?$AA@ 1003a43c     chatChannel.obj
 0002:0000144c       ??_C@_0BA@OEOMMCBO@str1?$FL0?$FN?5?$CB?$DN?5?8?20?8?$AA@ 1003a44c     chatChannel.obj
 0002:0000145c       ??_C@_0N@FNNIOGFB@str2?5?$CB?$DN?5NULL?$AA@ 1003a45c     chatChannel.obj
 0002:0000146c       ??_C@_0N@LGOPFNFC@str1?5?$CB?$DN?5NULL?$AA@ 1003a46c     chatChannel.obj
 0002:0000147c       ??_C@_0O@LCKNNKCB@elem2?5?$CB?$DN?5NULL?$AA@ 1003a47c     chatChannel.obj
 0002:0000148c       ??_C@_0O@FJJKGBCC@elem1?5?$CB?$DN?5NULL?$AA@ 1003a48c     chatChannel.obj
 0002:0000149c       ??_C@_0M@ENHHCIN@chatChannel?$AA@ 1003a49c     chatChannel.obj
 0002:000014a8       ??_C@_0BC@DALKJOBP@callbacks?5?$CB?$DN?5NULL?$AA@ 1003a4a8     chatChannel.obj
 0002:000014bc       ??_C@_0BO@GNFIKGLM@strlen?$CIchannel?$CJ?5?$DM?5MAX_CHANNEL?$AA@ 1003a4bc     chatChannel.obj
 0002:000014dc       ??_C@_0BA@HOPJBEC@channel?5?$CB?$DN?5NULL?$AA@ 1003a4dc     chatChannel.obj
 0002:000014ec       ??_C@_0CP@HAAALAG@?$CIdata?9?$DOmodes?$FLi?$FN?5?$DO?$DN?50?$CJ?5?$CG?$CG?5?$CIdata?9?$DO@ 1003a4ec     chatChannel.obj
 0002:0000151c       ??_C@_0CC@HFJLDDGD@strlen?$CIdata?9?$DOusers?$FLi?$FN?$CJ?5?$DM?5MAX_NAM@ 1003a51c     chatChannel.obj
 0002:00001540       ??_C@_0BK@KCMCJDNE@data?9?$DOusers?$FLi?$FN?$FL0?$FN?5?$CB?$DN?5?8?20?8?$AA@ 1003a540     chatChannel.obj
 0002:0000155c       ??_C@_0BH@KCCELBKI@data?9?$DOusers?$FLi?$FN?5?$CB?$DN?5NULL?$AA@ 1003a55c     chatChannel.obj
 0002:00001574       ??_C@_0BE@LPIOMGPK@data?9?$DOnumUsers?5?$DO?$DN?50?$AA@ 1003a574     chatChannel.obj
 0002:00001588       ??_C@_0BO@MAJICFCJ@strlen?$CIuser?9?$DOname?$CJ?5?$DM?5MAX_NAME?$AA@ 1003a588     chatChannel.obj
 0002:000015a8       ??_C@_0BG@OMFAOHHJ@user?9?$DOname?$FL0?$FN?5?$CB?$DN?5?8?20?8?$AA@ 1003a5a8     chatChannel.obj
 0002:000015c0       ??_C@_0BD@CHFDINDA@user?9?$DOname?5?$CB?$DN?5NULL?$AA@ 1003a5c0     chatChannel.obj
 0002:000015d4       ??_C@_0BD@OCKOKAGK@clientData?5?$CB?$DN?5NULL?$AA@ 1003a5d4     chatChannel.obj
 0002:000015e8       ??_C@_0DD@IIOFJDBI@TableLookup?$CIchatChannel?9?$DOusers?0?5@ 1003a5e8     chatChannel.obj
 0002:0000161c       ??_C@_0BL@HNFGLOMJ@?$CImode?5?$DO?$DN?50?$CJ?5?$CG?$CG?5?$CImode?5?$DM?$DN?53?$CJ?$AA@ 1003a61c     chatChannel.obj
 0002:00001638       ??_C@_0BI@MBACFKHO@strlen?$CIname?$CJ?5?$DM?5MAX_NAME?$AA@ 1003a638     chatChannel.obj
 0002:00001650       ??_C@_0BA@IFHBEKGA@name?$FL0?$FN?5?$CB?$DN?5?8?20?8?$AA@ 1003a650     chatChannel.obj
 0002:00001660       ??_C@_0N@FMIOBHCF@name?5?$CB?$DN?5NULL?$AA@ 1003a660     chatChannel.obj
 0002:00001670       ??_C@_0BI@MOKIJGMP@strlen?$CIuser?$CJ?5?$DM?5MAX_NAME?$AA@ 1003a670     chatChannel.obj
 0002:00001688       ??_C@_0BA@CPEEMPCJ@user?$FL0?$FN?5?$CB?$DN?5?8?20?8?$AA@ 1003a688     chatChannel.obj
 0002:00001698       ??_C@_0N@JANCAGOL@user?5?$CB?$DN?5NULL?$AA@ 1003a698     chatChannel.obj
 0002:000016a8       ??_C@_0BM@KGIFAKDB@data?9?$DOuser?9?$DOname?$FL0?$FN?5?$CB?$DN?5?8?20?8?$AA@ 1003a6a8     chatChannel.obj
 0002:000016c4       ??_C@_0BD@FLMAMIGF@data?9?$DOuser?5?$CB?$DN?5NULL?$AA@ 1003a6c4     chatChannel.obj
 0002:000016d8       ??_C@_0BH@MNMOOFCM@channel?9?$DOusers?5?$CB?$DN?5NULL?$AA@ 1003a6d8     chatChannel.obj
 0002:000016f0       ??_C@_0BL@KOFGLBIF@strlen?$CInewNick?$CJ?5?$DM?5MAX_NAME?$AA@ 1003a6f0     chatChannel.obj
 0002:0000170c       ??_C@_0BD@OCOPLBLF@newNick?$FL0?$FN?5?$CB?$DN?5?8?20?8?$AA@ 1003a70c     chatChannel.obj
 0002:00001720       ??_C@_0BA@KBFEKFIN@newNick?5?$CB?$DN?5NULL?$AA@ 1003a720     chatChannel.obj
 0002:00001730       ??_C@_0BL@NBFHJGGE@strlen?$CIoldNick?$CJ?5?$DM?5MAX_NAME?$AA@ 1003a730     chatChannel.obj
 0002:0000174c       ??_C@_0BD@IJMFOLPJ@oldNick?$FL0?$FN?5?$CB?$DN?5?8?20?8?$AA@ 1003a74c     chatChannel.obj
 0002:00001760       ??_C@_0BA@GDJNDKME@oldNick?5?$CB?$DN?5NULL?$AA@ 1003a760     chatChannel.obj
 0002:00001770       ??_C@_0L@BIFEMKMJ@rcode?5?$CB?$DN?50?$AA@ 1003a770     chatChannel.obj
 0002:0000177c       ??_C@_0CB@MDOOIIE@strlen?$CIdata?9?$DOoldNick?$CJ?5?$DM?5MAX_NAME@ 1003a77c     chatChannel.obj
 0002:000017a0       ??_C@_0BJ@JMLACOFO@data?9?$DOoldNick?$FL0?$FN?5?$CB?$DN?5?8?20?8?$AA@ 1003a7a0     chatChannel.obj
 0002:000017bc       ??_C@_0BG@COPGIHAN@data?9?$DOoldNick?5?$CB?$DN?5NULL?$AA@ 1003a7bc     chatChannel.obj
 0002:000017d4       ??_C@_0CB@HDDPMPGF@strlen?$CIdata?9?$DOnewNick?$CJ?5?$DM?5MAX_NAME@ 1003a7d4     chatChannel.obj
 0002:000017f8       ??_C@_0BJ@PHJKHEBC@data?9?$DOnewNick?$FL0?$FN?5?$CB?$DN?5?8?20?8?$AA@ 1003a7f8     chatChannel.obj
 0002:00001814       ??_C@_0BG@OMDPBIEE@data?9?$DOnewNick?5?$CB?$DN?5NULL?$AA@ 1003a814     chatChannel.obj
 0002:0000182c       ??_C@_0BI@JEPJIIME@strlen?$CInick?$CJ?5?$DM?5MAX_NAME?$AA@ 1003a82c     chatChannel.obj
 0002:00001844       ??_C@_0BA@HLIFNPNH@nick?$FL0?$FN?5?$CB?$DN?5?8?20?8?$AA@ 1003a844     chatChannel.obj
 0002:00001854       ??_C@_0N@BGDNHKGO@nick?5?$CB?$DN?5NULL?$AA@ 1003a854     chatChannel.obj
 0002:00001864       ??_C@_01NBENCBCI@?$CK?$AA@ 1003a864     chatChannel.obj
 0002:00001868       ??_C@_03GKKPEAKN@432?$AA@  1003a868     chatHandlers.obj
 0002:0000186c       ??_C@_03EDMEKNDH@401?$AA@  1003a86c     chatHandlers.obj
 0002:00001870       ??_C@_03JMKCNHF@476?$AA@   1003a870     chatHandlers.obj
 0002:00001874       ??_C@_03CCOHHOLG@475?$AA@  1003a874     chatHandlers.obj
 0002:00001878       ??_C@_03DLPMEPPH@474?$AA@  1003a878     chatHandlers.obj
 0002:0000187c       ??_C@_03HELNNJDA@473?$AA@  1003a87c     chatHandlers.obj
 0002:00001880       ??_C@_03EGILLLLC@471?$AA@  1003a880     chatHandlers.obj
 0002:00001884       ??_C@_03CHKIGIDD@405?$AA@  1003a884     chatHandlers.obj
 0002:00001888       ??_C@_03HBPCMPLF@403?$AA@  1003a888     chatHandlers.obj
 0002:0000188c       ??_C@_03HDLEHBOM@433?$AA@  1003a88c     chatHandlers.obj
 0002:00001890       ??_C@_03CMAGPGJM@704?$AA@  1003a890     chatHandlers.obj
 0002:00001894       ??_C@_03GDEHGAFL@703?$AA@  1003a894     chatHandlers.obj
 0002:00001898       ??_C@_03HKFMFBBK@702?$AA@  1003a898     chatHandlers.obj
 0002:0000189c       ??_C@_03FBHBACNJ@701?$AA@  1003a89c     chatHandlers.obj
 0002:000018a0       ??_C@_03EIGKDDJI@700?$AA@  1003a8a0     chatHandlers.obj
 0002:000018a4       ??_C@_03LLLNDKLN@315?$AA@  1003a8a4     chatHandlers.obj
 0002:000018a8       ??_C@_03MMKGDKGA@001?$AA@  1003a8a8     chatHandlers.obj
 0002:000018ac       ??_C@_03LFMFCHF@368?$AA@   1003a8ac     chatHandlers.obj
 0002:000018b0       ??_C@_03IMMEEOLK@367?$AA@  1003a8b0     chatHandlers.obj
 0002:000018b4       ??_C@_03OBDEEPA@318?$AA@   1003a8b4     chatHandlers.obj
 0002:000018b8       ??_C@_03BHAIHFLB@319?$AA@  1003a8b8     chatHandlers.obj
 0002:000018bc       ??_C@_03NPNBPPLJ@311?$AA@  1003a8bc     chatHandlers.obj
 0002:000018c0       ??_C@_03KAOALFKF@324?$AA@  1003a8c0     chatHandlers.obj
 0002:000018c4       ??_C@_03OPKBCDGC@323?$AA@  1003a8c4     chatHandlers.obj
 0002:000018c8       ??_C@_03PGLKBCCD@322?$AA@  1003a8c8     chatHandlers.obj
 0002:000018cc       ??_C@_03NNJHEBOA@321?$AA@  1003a8cc     chatHandlers.obj
 0002:000018d0       ??_C@_03PFDOMGEN@302?$AA@  1003a8d0     chatHandlers.obj
 0002:000018d4       ??_C@_03PDPFAEKG@352?$AA@  1003a8d4     chatHandlers.obj
 0002:000018d8       ??_C@_03NMFFCLNH@331?$AA@  1003a8d8     chatHandlers.obj
 0002:000018dc       ??_C@_03PHHIHIBE@332?$AA@  1003a8dc     chatHandlers.obj
 0002:000018e0       ??_C@_03JFNPHPPL@366?$AA@  1003a8e0     chatHandlers.obj
 0002:000018e4       ??_C@_03OKOODFOH@353?$AA@  1003a8e4     chatHandlers.obj
 0002:000018e8       ??_C@_06DBKGGLMH@INVITE?$AA@ 1003a8e8     chatHandlers.obj
 0002:000018f0       ??_C@_05MBDEGLCK@ERROR?$AA@ 1003a8f0     chatHandlers.obj
 0002:000018f8       ??_C@_04KAFEECCN@MODE?$AA@ 1003a8f8     chatHandlers.obj
 0002:00001900       ??_C@_05GMJDHOAO@TOPIC?$AA@ 1003a900     chatHandlers.obj
 0002:00001908       ??_C@_04NFKOACKA@KILL?$AA@ 1003a908     chatHandlers.obj
 0002:00001910       ??_C@_04GBOBDPBG@QUIT?$AA@ 1003a910     chatHandlers.obj
 0002:00001918       ??_C@_04JBLDNDFK@KICK?$AA@ 1003a918     chatHandlers.obj
 0002:00001920       ??_C@_04JDIJJKPP@PART?$AA@ 1003a920     chatHandlers.obj
 0002:00001928       ??_C@_04PJFINEKF@JOIN?$AA@ 1003a928     chatHandlers.obj
 0002:00001930       ??_C@_04FJFDFMCK@NICK?$AA@ 1003a930     chatHandlers.obj
 0002:00001938       ??_C@_04CCOOKJJG@PING?$AA@ 1003a938     chatHandlers.obj
 0002:00001940       ??_C@_03NDHBKIJP@ATM?$AA@  1003a940     chatHandlers.obj
 0002:00001944       ??_C@_03MAKGIFH@UTM?$AA@   1003a944     chatHandlers.obj
 0002:00001948       ??_C@_06FMPEGAHJ@NOTICE?$AA@ 1003a948     chatHandlers.obj
 0002:00001950       ??_C@_07FMAJIDMK@PRIVMSG?$AA@ 1003a950     chatHandlers.obj
 0002:00001958       ??_C@_0EP@OFJPCKBB@d?3?2aaaaaaaaaaaaaaaaaaa?5yourself?2@ 1003a958     chatHandlers.obj
 0002:000019a8       ??_C@_0DC@GPOCEGAK@?$CIfilter?9?$DOtype?5?$DO?$DN?50?$CJ?5?$CG?$CG?5?$CIfilter?9?$DO@ 1003a9a8     chatHandlers.obj
 0002:000019dc       ??_C@_06EOIELIPE@filter?$AA@ 1003a9dc     chatHandlers.obj
 0002:000019e4       ??_C@_0P@ENDAOHEL@filter?5?$CB?$DN?5NULL?$AA@ 1003a9e4     chatHandlers.obj
 0002:000019f4       ??_C@_06BBPHIINE@ID?5?$DO?50?$AA@ 1003a9f4     chatHandlers.obj
 0002:000019fc       ??_C@_0CA@MOEOILEM@strlen?$CIpassword?$CJ?5?$DM?5MAX_PASSWORD?$AA@ 1003a9fc     chatHandlers.obj
 0002:00001a1c       ??_C@_0BB@OAMIHACL@password?5?$CB?$DN?5NULL?$AA@ 1003aa1c     chatHandlers.obj
 0002:00001a30       ??_C@_03EHBPLKMO@b_?$CK?$AA@ 1003aa30     chatHandlers.obj
 0002:00001a34       ??_C@_0N@HDDIJGHA@mode?5?$CB?$DN?5NULL?$AA@ 1003aa34     chatHandlers.obj
 0002:00001a44       ??_C@_06DHJAPAEE@ACTION?$AA@ 1003aa44     chatHandlers.obj
 0002:00001a4c       ??_C@_0BI@KFCEIKDJ@message?9?$DOnumParams?5?$DN?$DN?52?$AA@ 1003aa4c     chatHandlers.obj
 0002:00001a64       ??_C@_07DIJPDIIF@PONG?5?$CFs?$AA@ 1003aa64     chatHandlers.obj
 0002:00001a6c       ??_C@_0BL@PPPPJJOO@strlen?$CInewNick?$CJ?5?$DM?5MAX_NICK?$AA@ 1003aa6c     chatHandlers.obj
 0002:00001a88       ??_C@_0BI@IOAJNJPK@message?9?$DOnumParams?5?$DN?$DN?51?$AA@ 1003aa88     chatHandlers.obj
 0002:00001aa0       ??_C@_0DI@LJBOAMMO@?$CImatches?$FLi?$FN?4type?5?$DO?$DN?50?$CJ?5?$CG?$CG?5?$CImatch@ 1003aaa0     chatHandlers.obj
 0002:00001ad8       ??_C@_07GEPGMPF@matches?$AA@ 1003aad8     chatHandlers.obj
 0002:00001ae0       ??_C@_0P@GEKANGEF@numMatches?5?$DO?50?$AA@ 1003aae0     chatHandlers.obj
 0002:00001af0       ??_C@_07EHKGMHJ@MODE?5?$CFs?$AA@ 1003aaf0     chatHandlers.obj
 0002:00001af8       ??_C@_0O@OFGJJOIG@?$CKnick?5?$CB?$DN?5?8?20?8?$AA@ 1003aaf8     chatHandlers.obj
 0002:00001b08       ??_C@_0DH@BIAMFMFC@?$CImessage?9?$DOnumParams?5?$DN?$DN?52?$CJ?5?$HM?$HM?5?$CIme@ 1003ab08     chatHandlers.obj
 0002:00001b40       ??_C@_0P@EFFCDMFJ@reason?5?$CB?$DN?5NULL?$AA@ 1003ab40     chatHandlers.obj
 0002:00001b50       ??_C@_0BI@OCIEPAOJ@message?9?$DOnumParams?5?$DO?$DN?52?$AA@ 1003ab50     chatHandlers.obj
 0002:00001b68       ??_C@_0BA@LKALAABH@nick?$FL1?$FN?5?$CB?$DN?5?8?20?8?$AA@ 1003ab68     chatHandlers.obj
 0002:00001b78       ??_C@_0BI@PDHOCNLP@message?9?$DOnumParams?5?$DN?$DN?54?$AA@ 1003ab78     chatHandlers.obj
 0002:00001b90       ??_C@_0BI@LMDPLLHI@message?9?$DOnumParams?5?$DN?$DN?53?$AA@ 1003ab90     chatHandlers.obj
 0002:00001ba8       ??_C@_0BH@NKMOMHJP@connection?9?$DOconnecting?$AA@ 1003aba8     chatHandlers.obj
 0002:00001bc0       ??_C@_0BI@FPMLGCLD@message?9?$DOnumParams?5?$DN?$DN?58?$AA@ 1003abc0     chatHandlers.obj
 0002:00001bd8       ??_C@_03BKCJCHLK@len?$AA@  1003abd8     chatHandlers.obj
 0002:00001bdc       ??_C@_05GECEPKB@flags?$AA@ 1003abdc     chatHandlers.obj
 0002:00001be4       ??_C@_02HGMOHIDI@b_?$AA@   1003abe4     chatHandlers.obj
 0002:00001be8       ??_C@_05IAHLOAED@BCAST?$AA@ 1003abe8     chatHandlers.obj
 0002:00001bf0       ??_C@_0BI@OKGFBMPO@message?9?$DOnumParams?5?$DN?$DN?55?$AA@ 1003abf0     chatHandlers.obj
 0002:00001c08       ??_C@_0BH@JFLCONNL@message?9?$DOnumParams?5?$DO?$DN3?$AA@ 1003ac08     chatHandlers.obj
 0002:00001c20       ??_C@_0BC@EONKLIMK@MODE?5?$CFs?5?$CLb?5?$CK?$CB?$CK?$EA?$CFs?$AA@ 1003ac20     chatHandlers.obj
 0002:00001c34       ??_C@_0BJ@IKPADMDK@data?9?$DOchannel?$FL0?$FN?5?$CB?$DN?5?8?20?8?$AA@ 1003ac34     chatHandlers.obj
 0002:00001c50       ??_C@_0BG@EKIECMIL@data?9?$DOchannel?5?$CB?$DN?5NULL?$AA@ 1003ac50     chatHandlers.obj
 0002:00001c68       ??_C@_0BI@MBEIEPDN@message?9?$DOnumParams?5?$DN?$DN?56?$AA@ 1003ac68     chatHandlers.obj
 0002:00001c80       ??_C@_0BD@NNGEOFDN@data?9?$DOnumBans?5?$DO?$DN?50?$AA@ 1003ac80     chatHandlers.obj
 0002:00001c94       ??_C@_0BI@PLJPMBKI@message?9?$DOnumParams?5?$DO?$DN?53?$AA@ 1003ac94     chatHandlers.obj
 0002:00001cb0       ??_C@_0EJ@KJBELAJI@ABCDEFGHIJKLMNOPQRSTUVWXYZabcdef@ 1003acb0     chatMain.obj
 0002:00001d00       ??_C@_0EL@PBFIOKGI@d?3?2aaaaaaaaaaaaaaaaaaa?5yourself?2@ 1003ad00     chatMain.obj
 0002:00001d4c       ??_C@_0BC@NICEFNPL@USER?5?$CFs?5?$CFs?5?$CFs?5?3?$CFs?$AA@ 1003ad4c     chatMain.obj
 0002:00001d60       ??_C@_09PFCHIMEP@127?40?40?41?$AA@ 1003ad60     chatMain.obj
 0002:00001d6c       ??_C@_07ELBANAHJ@NICK?5?$CFs?$AA@ 1003ad6c     chatMain.obj
 0002:00001d74       ??_C@_01HIHLOKLC@1?$AA@    1003ad74     chatMain.obj
 0002:00001d78       ??_C@_0L@FPFMPDDA@0123456789?$AA@ 1003ad78     chatMain.obj
 0002:00001d84       ??_C@_05MJDJFODB@USRIP?$AA@ 1003ad84     chatMain.obj
 0002:00001d8c       ??_C@_0BI@NIACFMKP@connectCallback?5?$CB?$DN?5NULL?$AA@ 1003ad8c     chatMain.obj
 0002:00001da4       ??_C@_0BI@MFFAKAKP@strlen?$CInick?$CJ?5?$DM?5MAX_NICK?$AA@ 1003ada4     chatMain.obj
 0002:00001dbc       ??_C@_0BG@LCIOFEDJ@serverAddress?5?$CB?$DN?5NULL?$AA@ 1003adbc     chatMain.obj
 0002:00001dd4       ??_C@_0N@NFBNFHML@Disconnected?$AA@ 1003add4     chatMain.obj
 0002:00001de4       ??_C@_0BA@HJHJCGPK@message?5?$CB?$DN?5NULL?$AA@ 1003ade4     chatMain.obj
 0002:00001df4       ??_C@_08ENMLOGLG@NICK?5?3?$CFs?$AA@ 1003adf4     chatMain.obj
 0002:00001e00       ??_C@_0N@JAAKJNMK@QUIT?5?3Later?$CB?$AA@ 1003ae00     chatMain.obj
 0002:00001e10       ??_C@_0BG@IOFMKKHO@connection?9?$DOconnected?$AA@ 1003ae10     chatMain.obj
 0002:00001e28       ??_C@_08PPIJGMPL@callback?$AA@ 1003ae28     chatMain.obj
 0002:00001e34       ??_C@_0L@EABPDOGO@newNick?$FL0?$FN?$AA@ 1003ae34     chatMain.obj
 0002:00001e40       ??_C@_07PNGAFFJA@newNick?$AA@ 1003ae40     chatMain.obj
 0002:00001e48       ??_C@_07CBBAGAOI@oldNick?$AA@ 1003ae48     chatMain.obj
 0002:00001e50       ??_C@_0L@IEDLNNGI@MODE?5?$CFs?5?9q?$AA@ 1003ae50     chatMain.obj
 0002:00001e5c       ??_C@_0L@IALGKBNK@MODE?5?$CFs?5?$CLq?$AA@ 1003ae5c     chatMain.obj
 0002:00001e68       ??_C@_07OIFDNFMM@LIST?5?$CFs?$AA@ 1003ae68     chatMain.obj
 0002:00001e70       ??_C@_0DA@MBKFGLJP@?$CIcallbackAll?5?$CB?$DN?5NULL?$CJ?5?$HM?$HM?5?$CIcallba@ 1003ae70     chatMain.obj
 0002:00001ea0       ??_C@_0L@DNAAAANA@JOIN?5?$CFs?5?$CFs?$AA@ 1003aea0     chatMain.obj
 0002:00001eac       ??_C@_0M@LAEOHBEB@PART?5?$CFs?5?3?$CFs?$AA@ 1003aeac     chatMain.obj
 0002:00001eb8       ??_C@_0L@JBBKNIKD@ATM?5?$CFs?5?3?$CFs?$AA@ 1003aeb8     chatMain.obj
 0002:00001ec4       ??_C@_0L@IPDFGPOK@UTM?5?$CFs?5?3?$CFs?$AA@ 1003aec4     chatMain.obj
 0002:00001ed0       ??_C@_0O@MAONEONI@NOTICE?5?$CFs?5?3?$CFs?$AA@ 1003aed0     chatMain.obj
 0002:00001ee0       ??_C@_0BI@DOBIJLCM@PRIVMSG?5?$CFs?5?3?$ABACTION?5?$CFs?$AB?$AA@ 1003aee0     chatMain.obj
 0002:00001ef8       ??_C@_0P@PBAEOGCF@PRIVMSG?5?$CFs?5?3?$CFs?$AA@ 1003aef8     chatMain.obj
 0002:00001f08       ??_C@_0FP@CCDHIJN@?$CItype?5?$DN?$DN?5CHAT_MESSAGE?$CJ?5?$HM?$HM?5?$CItype?5@ 1003af08     chatMain.obj
 0002:00001f68       ??_C@_0N@LMHJAGK@TOPIC?5?$CFs?5?3?$CFs?$AA@ 1003af68     chatMain.obj
 0002:00001f78       ??_C@_08EIICLKOA@TOPIC?5?$CFs?$AA@ 1003af78     chatMain.obj
 0002:00001f84       ??_C@_0L@LIBOOOFC@MODE?5?$CFs?5?$CFs?$AA@ 1003af84     chatMain.obj
 0002:00001f90       ??_C@_03EBJOKFHF@?5?$CFd?$AA@ 1003af90     chatMain.obj
 0002:00001f94       ??_C@_0P@EAOLEEK@XiXpXsXmXnXtXl?$AA@ 1003af94     chatMain.obj
 0002:00001fa4       ??_C@_0O@HDKPEGEJ@MODE?5?$CFs?5?9k?5?$CFs?$AA@ 1003afa4     chatMain.obj
 0002:00001fb4       ??_C@_0O@KFPGKFFE@MODE?5?$CFs?5?$CLk?5?$CFs?$AA@ 1003afb4     chatMain.obj
 0002:00001fc4       ??_C@_0BE@DKOMHOBD@password?$FL0?$FN?5?$CB?$DN?5?8?20?8?$AA@ 1003afc4     chatMain.obj
 0002:00001fd8       ??_C@_0L@OBFJOAEI@MODE?5?$CFs?5?$CLb?$AA@ 1003afd8     chatMain.obj
 0002:00001fe4       ??_C@_0O@KIOGMHCF@MODE?5?$CFs?5?$CLb?5?$CFs?$AA@ 1003afe4     chatMain.obj
 0002:00001ff4       ??_C@_0BA@POJAJOML@ban?5?$FL0?$FN?5?$CB?$DN?5?8?20?8?$AA@ 1003aff4     chatMain.obj
 0002:00002004       ??_C@_0M@FJFOPKOG@ban?5?$CB?$DN?5NULL?$AA@ 1003b004     chatMain.obj
 0002:00002010       ??_C@_0O@HOLPCEDI@MODE?5?$CFs?5?9b?5?$CFs?$AA@ 1003b010     chatMain.obj
 0002:00002020       ??_C@_0P@GBJCBBGG@SETGROUP?5?$CFs?5?$CFs?$AA@ 1003b020     chatMain.obj
 0002:00002030       ??_C@_0O@CNBFKDCP@param?5?$CB?$DN?5NULL?$AA@ 1003b030     chatMain.obj
 0002:00002040       ??_C@_0GP@KODHICPH@?$CImodes?$FLi?$FN?5?$DN?$DN?5CHAT_MESSAGE?$CJ?5?$HM?$HM?5?$CIm@ 1003b040     chatMain.obj
 0002:000020b0       ??_C@_0BM@DDPMFEMM@strlen?$CIusers?$FLi?$FN?$CJ?5?$DM?5MAX_USER?$AA@ 1003b0b0     chatMain.obj
 0002:000020cc       ??_C@_0BE@OKGFNAFK@users?$FLi?$FN?$FL0?$FN?5?$CB?$DN?5?8?20?8?$AA@ 1003b0cc     chatMain.obj
 0002:000020e0       ??_C@_0BB@EANBKAAB@users?$FLi?$FN?5?$CB?$DN?5NULL?$AA@ 1003b0e0     chatMain.obj
 0002:000020f4       ??_C@_0O@GMCAGJGN@modes?5?$CB?$DN?5NULL?$AA@ 1003b0f4     chatMain.obj
 0002:00002104       ??_C@_0O@LBOMJDB@users?5?$CB?$DN?5NULL?$AA@ 1003b104     chatMain.obj
 0002:00002114       ??_C@_0O@LFEFHKBD@numUsers?5?$DO?$DN?50?$AA@ 1003b114     chatMain.obj
 0002:00002124       ??_C@_08HFMNMKMK@NAMES?5?$CFs?$AA@ 1003b124     chatMain.obj
 0002:00002130       ??_C@_0BI@CIBIHKGG@strlen?$CIuser?$CJ?5?$DM?5MAX_USER?$AA@ 1003b130     chatMain.obj
 0002:00002148       ??_C@_08IKLMPEJJ@WHOIS?5?$CFs?$AA@ 1003b148     chatMain.obj
 0002:00002154       ??_C@_06CHOPLBCB@WHO?5?$CFs?$AA@ 1003b154     chatMain.obj
 0002:0000215c       ??_C@_0BI@HCEJGEGN@strlen?$CInick?$CJ?5?$DM?5MAX_USER?$AA@ 1003b15c     chatMain.obj
 0002:00002174       ??_C@_0N@BDKOJHCI@INVITE?5?$CFs?5?$CFs?$AA@ 1003b174     chatMain.obj
 0002:00002184       ??_C@_0P@PJDKONBP@KICK?5?$CFs?5?$CFs?5?3?$CFs?$AA@ 1003b184     chatMain.obj
 0002:00002194       ??_C@_0P@DMGBCIBG@MODE?5?$CFs?5?$CFcv?5?$CFs?$AA@ 1003b194     chatMain.obj
 0002:000021a4       ??_C@_0P@FBJBNNOF@MODE?5?$CFs?5?$CFco?5?$CFs?$AA@ 1003b1a4     chatMain.obj
 0002:000021b8       ??_C@_0FP@PIELKEPN@?$CImode?5?$DN?$DN?5CHAT_MESSAGE?$CJ?5?$HM?$HM?5?$CImode?5@ 1003b1b8     chatMain.obj
 0002:00002218       ??_C@_04GMGOKAFF@mode?$AA@ 1003b218     chatMain.obj
 0002:00002220       ??_C@_06NELKLDPM@?2?$CFs?2?$CFs?$AA@ 1003b220     chatMain.obj
 0002:00002228       ??_C@_08LKKDGCOI@SETKEY?5?3?$AA@ 1003b228     chatMain.obj
 0002:00002234       ??_C@_04IEPFDAGF@keys?$AA@ 1003b234     chatMain.obj
 0002:0000223c       ??_C@_08HPHBFAAI@num?5?$DO?$DN?50?$AA@ 1003b23c     chatMain.obj
 0002:00002248       ??_C@_04OHGLKFFN@?$CF03d?$AA@ 1003b248     chatMain.obj
 0002:00002250       ??_C@_0BB@DHHKMPBE@GETKEY?5?$CFs?5?$CFs?50?5?3?$AA@ 1003b250     chatMain.obj
 0002:00002264       ??_C@_08GGGKGBEJ@num?5?$DO?$DN?51?$AA@ 1003b264     chatMain.obj
 0002:00002270       ??_C@_0BE@MFIICMPO@cookie?5?$CG?$CG?5cookie?$FL0?$FN?$AA@ 1003b270     chatMain.obj
 0002:00002284       ??_C@_0BE@EFDACKNH@target?5?$CG?$CG?5target?$FL0?$FN?$AA@ 1003b284     chatMain.obj
 0002:00002298       ??_C@_0BA@BCKCKJHG@SETCKEY?5?$CFs?5?$CFs?5?3?$AA@ 1003b298     chatMain.obj
 0002:000022a8       ??_C@_0BA@HFIHELIF@SETCHANKEY?5?$CFs?5?3?$AA@ 1003b2a8     chatMain.obj
 0002:000022b8       ??_C@_04FNJKLAAF@?2b_?$CK?$AA@ 1003b2b8     chatMain.obj
 0002:000022c0       ??_C@_0BF@INMKHABO@GETCKEY?5?$CFs?5?$CFs?5?$CFs?50?5?3?$AA@ 1003b2c0     chatMain.obj
 0002:000022d8       ??_C@_0BF@OKBCKKEL@GETCHANKEY?5?$CFs?5?$CFs?50?5?3?$AA@ 1003b2d8     chatMain.obj
 0002:000022f0       ??_C@_0BG@ODEOOHCF@channel?5?$CG?$CG?5channel?$FL0?$FN?$AA@ 1003b2f0     chatMain.obj
 0002:00002308       ??_C@_0BO@MCGMFIFC@?$CF02d?4?$CF02d?4?$CF02d?5?$CF02d?3?$CF02d?4?$CF02d?$AA@ 1003b308     chatSocket.obj
 0002:00002328       ??_C@_0N@KCLBJCK@sock?5?$CB?$DN?5NULL?$AA@ 1003b328     chatSocket.obj
 0002:00002338       ??_C@_0EN@PGCAALEN@d?3?2aaaaaaaaaaaaaaaaaaa?5yourself?2@ 1003b338     chatSocket.obj
 0002:00002388       ??_C@_0P@FBHHDKCM@buffer?5?$CB?$DN?5NULL?$AA@ 1003b388     chatSocket.obj
 0002:00002398       ??_C@_0CF@BLFLHBHB@sock?9?$DOconnectState?5?$DN?$DN?5ciNotConne@ 1003b398     chatSocket.obj
 0002:000023c0       ??_C@_0BC@HBHIMOGM@port?5?$DM?$DN?5USHRT_MAX?$AA@ 1003b3c0     chatSocket.obj
 0002:000023d4       ??_C@_09GDEDGNAP@port?5?$DO?$DN?50?$AA@ 1003b3d4     chatSocket.obj
 0002:000023e0       ??_C@_0DP@HFHHAKCN@?$CI?$CG?$CIsock?$CJ?9?$DOoutputQueue?$CJ?9?$DOlength?5?$DM@ 1003b3e0     chatSocket.obj
 0002:00002420       ??_C@_0CE@EAFFLKMI@?$CI?$CG?$CIsock?$CJ?9?$DOoutputQueue?$CJ?9?$DOlength?5?$DO@ 1003b420     chatSocket.obj
 0002:00002444       ??_C@_0DB@INICACDG@?$CI?$CI?$CG?$CIsock?$CJ?9?$DOoutputQueue?$CJ?9?$DOsize?5?$CF?5@ 1003b444     chatSocket.obj
 0002:00002478       ??_C@_0CC@JBNPCOJF@?$CI?$CG?$CIsock?$CJ?9?$DOoutputQueue?$CJ?9?$DOsize?5?$DO?$DN?5@ 1003b478     chatSocket.obj
 0002:0000249c       ??_C@_0BP@OEJLNKFA@?$CI?$CG?$CIsock?$CJ?9?$DOoutputQueue?$CJ?5?$CB?$DN?5NULL?$AA@ 1003b49c     chatSocket.obj
 0002:000024bc       ??_C@_0DN@HBOCIOGC@?$CI?$CG?$CIsock?$CJ?9?$DOinputQueue?$CJ?9?$DOlength?5?$DM?$DN@ 1003b4bc     chatSocket.obj
 0002:000024fc       ??_C@_0CD@IFLCABLP@?$CI?$CG?$CIsock?$CJ?9?$DOinputQueue?$CJ?9?$DOlength?5?$DO?$DN@ 1003b4fc     chatSocket.obj
 0002:00002520       ??_C@_0DA@JHDGFJIF@?$CI?$CI?$CG?$CIsock?$CJ?9?$DOinputQueue?$CJ?9?$DOsize?5?$CF?5B@ 1003b520     chatSocket.obj
 0002:00002550       ??_C@_0CB@HJANJEGP@?$CI?$CG?$CIsock?$CJ?9?$DOinputQueue?$CJ?9?$DOsize?5?$DO?$DN?50@ 1003b550     chatSocket.obj
 0002:00002574       ??_C@_0BO@LGLAAOLN@?$CI?$CG?$CIsock?$CJ?9?$DOinputQueue?$CJ?5?$CB?$DN?5NULL?$AA@ 1003b574     chatSocket.obj
 0002:00002598       ??_C@_0HO@PEBMJDKI@?$CI?$CIsock?$CJ?9?$DOconnectState?5?$DN?$DN?5ciNotCo@ 1003b598     chatSocket.obj
 0002:00002618       ??_C@_0P@IPFFMLA@?$CIsock?$CJ?5?$CB?$DN?5NULL?$AA@ 1003b618     chatSocket.obj
 0002:00002628       ??_C@_0CE@FFKBGDCK@?$CIsock?$CJ?9?$DOconnectState?5?$DN?$DN?5ciConnec@ 1003b628     chatSocket.obj
 0002:0000264c       ??_C@_0BG@OKDDLHCL@len?5?$DM?$DN?5buffer?9?$DOlength?$AA@ 1003b64c     chatSocket.obj
 0002:00002664       ??_C@_08BMNEFDDI@len?5?$DO?$DN?50?$AA@ 1003b664     chatSocket.obj
 0002:00002670       ??_C@_0CD@EKHFGLID@?$CIbuffer?$CJ?9?$DOlength?5?$DM?$DN?5?$CIbuffer?$CJ?9?$DOsi@ 1003b670     chatSocket.obj
 0002:00002694       ??_C@_0BG@CLDABNEL@?$CIbuffer?$CJ?9?$DOlength?5?$DO?$DN?50?$AA@ 1003b694     chatSocket.obj
 0002:000026ac       ??_C@_0CD@FNKJLCOL@?$CI?$CIbuffer?$CJ?9?$DOsize?5?$CF?5BUFFER_INC?$CJ?5?$DN?$DN@ 1003b6ac     chatSocket.obj
 0002:000026d0       ??_C@_0BE@LMCAEMJN@?$CIbuffer?$CJ?9?$DOsize?5?$DO?$DN?50?$AA@ 1003b6d0     chatSocket.obj
 0002:000026e4       ??_C@_0BB@ENAOOKBD@?$CIbuffer?$CJ?5?$CB?$DN?5NULL?$AA@ 1003b6e4     chatSocket.obj
 0002:000026f8       ??_C@_0BH@FMHKPKJK@sock?5?$CB?$DN?5INVALID_SOCKET?$AA@ 1003b6f8     chatSocket.obj
 0002:00002710       ??_C@_0BA@PHNDAAFK@len?5?$DM?$DN?5SHRT_MAX?$AA@ 1003b710     chatSocket.obj
 0002:00002720       ??_C@_02BNFKLOHE@?5?3?$AA@ 1003b720     chatSocket.obj
 0002:00002724       ??_C@_0O@EBMDKJAM@pText?5?$CB?$DN?5NULL?$AA@ 1003b724     chatSocket.obj
 0002:00002734       ??_C@_0M@MDKMOID@array?9?$DOlist?$AA@ 1003b734     darray.obj
 0002:00002740       ??_C@_08JNNDJKHO@elemSize?$AA@ 1003b740     darray.obj
 0002:0000274c       ??_C@_05HIFJDKLD@array?$AA@ 1003b74c     darray.obj
 0002:00002758       ??_C@_0EE@CNELINBD@d?3?2aaaaaaaaaaaaaaaaaaa?5yourself?2@ 1003b758     darray.obj
 0002:0000279c       ??_C@_0BP@NPNLMBOK@?$CIn?5?$DO?$DN?50?$CJ?5?$CG?$CG?5?$CIn?5?$DM?5array?9?$DOcount?$CJ?$AA@ 1003b79c     darray.obj
 0002:000027bc       ??_C@_0CA@CPMHMJLI@?$CIn?5?$DO?$DN?50?$CJ?5?$CG?$CG?5?$CIn?5?$DM?$DN?5array?9?$DOcount?$CJ?$AA@ 1003b7bc     darray.obj
 0002:000027dc       ??_C@_0L@JHIADHA@comparator?$AA@ 1003b7dc     darray.obj
 0002:000027e8       ??_C@_02LHJKNHFG@fn?$AA@   1003b7e8     darray.obj
 0002:000027ec       ??_C@_0P@JMPEEECE@table?9?$DObuckets?$AA@ 1003b7ec     hashtable.obj
 0002:000027fc       ??_C@_05LCLENNFI@table?$AA@ 1003b7fc     hashtable.obj
 0002:00002804       ??_C@_08GDCPFNFL@nBuckets?$AA@ 1003b804     hashtable.obj
 0002:00002810       ??_C@_06KEJLGPEN@compFn?$AA@ 1003b810     hashtable.obj
 0002:00002818       ??_C@_06NGOLAMFE@hashFn?$AA@ 1003b818     hashtable.obj
 0002:00002820       ??_C@_0EH@EIDOGJNF@d?3?2aaaaaaaaaaaaaaaaaaa?5yourself?2@ 1003b820     hashtable.obj
 0002:00002868       ??_C@_04NOJCDH@?$CF02x?$AA@ 1003b868     md5c.obj
 0002:00002870       ??_C@_05ENHGKOIF@Crypt?$AA@ 1003b870     nonport.obj
 0002:00002878       ??_C@_0CJ@NOGJADHF@Software?2GameSpy?2GameSpy?53D?2Regi@ 1003b878     nonport.obj
 0002:000028a4       ??_C@_0DP@CCELEMID@0123456789abcdefghijklmnopqrstuv@ 1003b8a4     nonport.obj
 0002:00002974       ??_C@_02PHMGELLB@?6?6?$AA@ 1003b974     LIBCMT:assert.obj
 0002:00002978       ??_C@_01EEMJAFIK@?6?$AA@   1003b978     LIBCMT:assert.obj
 0002:0000297c       ??_C@_03KHICJKCI@?4?4?4?$AA@ 1003b97c     LIBCMT:assert.obj
 0002:00002980       ??_C@_0CF@GOGNBNAK@Microsoft?5Visual?5C?$CL?$CL?5Runtime?5Lib@ 1003b980     LIBCMT:assert.obj
 0002:000029a8       ??_C@_0DN@EBBNMLME@?$CIPress?5Retry?5to?5debug?5the?5applic@ 1003b9a8     LIBCMT:assert.obj
 0002:000029e8       ??_C@_0HA@OJHAGA@For?5information?5on?5how?5your?5prog@ 1003b9e8     LIBCMT:assert.obj
 0002:00002a58       ??_C@_0N@MEECIJGN@Expression?3?5?$AA@ 1003ba58     LIBCMT:assert.obj
 0002:00002a68       ??_C@_06FIEBOLOH@Line?3?5?$AA@ 1003ba68     LIBCMT:assert.obj
 0002:00002a70       ??_C@_06IGPBOHMJ@File?3?5?$AA@ 1003ba70     LIBCMT:assert.obj
 0002:00002a78       ??_C@_0BH@DNAGHKFM@?$DMprogram?5name?5unknown?$DO?$AA@ 1003ba78     LIBCMT:assert.obj
 0002:00002a90       ??_C@_09KLGCKDOD@Program?3?5?$AA@ 1003ba90     LIBCMT:assert.obj
 0002:00002a9c       ??_C@_0BC@LAIDCHCH@Assertion?5failed?$CB?$AA@ 1003ba9c     LIBCMT:assert.obj
 0002:00002ae0       ??_C@_0BO@GNIAFIKK@Unknown?5Runtime?5Check?5Error?6?$AN?$AA@ 1003bae0     LIBCMT:error.obj
 0002:00002b00       ??_C@_0DG@HKJMLLLP@A?5local?5variable?5was?5used?5before@ 1003bb00     LIBCMT:error.obj
 0002:00002b38       ??_C@_0BN@FFOINMNJ@Stack?5memory?5was?5corrupted?6?$AN?$AA@ 1003bb38     LIBCMT:error.obj
 0002:00002b58       ??_C@_0BBN@GPMLNJCF@A?5cast?5to?5a?5smaller?5data?5type?5ha@ 1003bb58     LIBCMT:error.obj
 0002:00002c78       ??_C@_0NN@NGPKDKPD@The?5value?5of?5ESP?5was?5not?5properl@ 1003bc78     LIBCMT:error.obj
 0002:00002d74       ??_C@_0BC@KNBMEBEO@IsDebuggerPresent?$AA@ 1003bd74     LIBCMT:error.obj
 0002:00002d88       ??_C@_0N@HAOHNMDE@Kernel32?4dll?$AA@ 1003bd88     LIBCMT:error.obj
 0002:00002d98       ??_C@_0CA@IODNCDPG@Run?9Time?5Check?5Failure?5?$CD?$CFd?5?9?5?$CFs?$AA@ 1003bd98     LIBCMT:error.obj
 0002:00002db8       ??_C@_0L@CJCNHJJG@?6?$ANModule?3?7?$AA@ 1003bdb8     LIBCMT:error.obj
 0002:00002dc4       ??_C@_08GJEJCAJD@?6?$ANLine?3?7?$AA@ 1003bdc4     LIBCMT:error.obj
 0002:00002dd0       ??_C@_0CI@INCLAPNB@Invalid?5pointer?5was?5assigned?5at?6@ 1003bdd0     LIBCMT:error.obj
 0002:00002df8       ??_C@_0BB@JEGFEAAM@?8?5was?5corrupted?4?$AA@ 1003bdf8     LIBCMT:error.obj
 0002:00002e0c       ??_C@_0BM@FGFAMDLF@Stack?5around?5the?5variable?5?8?$AA@ 1003be0c     LIBCMT:error.obj
 0002:00002e28       ??_C@_0DA@BEGFPCGG@A?5variable?5is?5being?5used?5without@ 1003be28     LIBCMT:error.obj
 0002:00002e58       ??_C@_0CH@LOIIHGKM@?8?5is?5being?5used?5without?5being?5de@ 1003be58     LIBCMT:error.obj
 0002:00002e80       ??_C@_0P@HLKMHJCG@The?5variable?5?8?$AA@ 1003be80     LIBCMT:error.obj
 0002:00002e9c       ??_C@_0CK@CNLNOEPB@Local?5variable?5used?5before?5initi@ 1003be9c     LIBCMT:userapi.obj
 0002:00002ec8       ??_C@_0BI@CIGMDCBH@Stack?5memory?5corruption?$AA@ 1003bec8     LIBCMT:userapi.obj
 0002:00002ee0       ??_C@_0CK@FEGOIOPB@Cast?5to?5smaller?5type?5causing?5los@ 1003bee0     LIBCMT:userapi.obj
 0002:00002f0c       ??_C@_0BJ@HEGAHDFO@Stack?5pointer?5corruption?$AA@ 1003bf0c     LIBCMT:userapi.obj
 0002:00002f28       ___lookuptable             1003bf28     LIBCMT:output.obj
 0002:00002f84       ??_C@_1O@CEDCILHN@?$AA?$CI?$AAn?$AAu?$AAl?$AAl?$AA?$CJ?$AA?$AA@ 1003bf84     LIBCMT:output.obj
 0002:00002f94       ??_C@_06OJHGLDPL@?$CInull?$CJ?$AA@ 1003bf94     LIBCMT:output.obj
 0002:00002fb8       ??_C@_07PEJMOBNF@FlsFree?$AA@ 1003bfb8     LIBCMT:tidtable.obj
 0002:00002fc0       ??_C@_0M@JCPCPOEF@FlsSetValue?$AA@ 1003bfc0     LIBCMT:tidtable.obj
 0002:00002fcc       ??_C@_0M@GDNOONDI@FlsGetValue?$AA@ 1003bfcc     LIBCMT:tidtable.obj
 0002:00002fd8       ??_C@_08KNHFBNJ@FlsAlloc?$AA@ 1003bfd8     LIBCMT:tidtable.obj
 0002:00002fe4       ??_C@_0N@MDJJJHMB@kernel32?4dll?$AA@ 1003bfe4     LIBCMT:tidtable.obj
 0002:00003208       ??_C@_07LCBHPJJN@LC_TIME?$AA@ 1003c208     LIBCMT:setlocal.obj
 0002:00003210       ??_C@_0L@DLHIECNL@LC_NUMERIC?$AA@ 1003c210     LIBCMT:setlocal.obj
 0002:0000321c       ??_C@_0M@MIENIKLA@LC_MONETARY?$AA@ 1003c21c     LIBCMT:setlocal.obj
 0002:00003228       ??_C@_08EADHIDAD@LC_CTYPE?$AA@ 1003c228     LIBCMT:setlocal.obj
 0002:00003234       ??_C@_0L@KFJHEKIK@LC_COLLATE?$AA@ 1003c234     LIBCMT:setlocal.obj
 0002:00003240       ??_C@_06NEFDFEKB@LC_ALL?$AA@ 1003c240     LIBCMT:setlocal.obj
 0002:00003248       ??_C@_03EGDHDPFD@_?4?0?$AA@ 1003c248     LIBCMT:setlocal.obj
 0002:0000324c       ??_C@_01LFCBOECM@?4?$AA@   1003c24c     LIBCMT:setlocal.obj
 0002:00003250       ??_C@_01IDAFKMJL@_?$AA@    1003c250     LIBCMT:setlocal.obj
 0002:00003264       ??_C@_01ICJEACDI@?$DL?$AA@ 1003c264     LIBCMT:setlocal.obj
 0002:00003268       ??_C@_01NEMOKFLO@?$DN?$AA@ 1003c268     LIBCMT:setlocal.obj
 0002:0000326c       ??_C@_02BALPLPBG@?$DN?$DL?$AA@ 1003c26c     LIBCMT:setlocal.obj
 0002:000032e4       ??_C@_0P@MIGLKIOC@CorExitProcess?$AA@ 1003c2e4     LIBCMT:crt0dat.obj
 0002:000032f4       ??_C@_0M@MBOPBNBK@mscoree?4dll?$AA@ 1003c2f4     LIBCMT:crt0dat.obj
 0002:0000336c       ??_C@_0BI@DFKBFLJE@GetProcessWindowStation?$AA@ 1003c36c     LIBCMT:crtmbox.obj
 0002:00003384       ??_C@_0BK@CIDNPOGP@GetUserObjectInformationA?$AA@ 1003c384     LIBCMT:crtmbox.obj
 0002:000033a0       ??_C@_0BD@HHGDFDBJ@GetLastActivePopup?$AA@ 1003c3a0     LIBCMT:crtmbox.obj
 0002:000033b4       ??_C@_0BA@HNOPNCHB@GetActiveWindow?$AA@ 1003c3b4     LIBCMT:crtmbox.obj
 0002:000033c4       ??_C@_0M@CHKKJDAI@MessageBoxA?$AA@ 1003c3c4     LIBCMT:crtmbox.obj
 0002:000033d0       ??_C@_0L@GMPLCCII@user32?4dll?$AA@ 1003c3d0     LIBCMT:crtmbox.obj
 0002:000033ec       ??_C@_13NOLLCAOD@?$AA?$AA?$AA?$AA@ 1003c3ec     LIBCMT:a_map.obj
 0002:00003414       ??_C@_0M@HHEBEAAO@MSPDB71?4DLL?$AA@ 1003c414     LIBCMT:pdblkup.obj
 0002:00003420       ??_C@_0N@KIGOLBLC@Module32Next?$AA@ 1003c420     LIBCMT:pdblkup.obj
 0002:00003430       ??_C@_0O@CNMFJJGO@Module32First?$AA@ 1003c430     LIBCMT:pdblkup.obj
 0002:00003440       ??_C@_0BF@OCLFCNKN@GetModuleInformation?$AA@ 1003c440     LIBCMT:pdblkup.obj
 0002:00003458       ??_C@_0BD@FIEJBLME@EnumProcessModules?$AA@ 1003c458     LIBCMT:pdblkup.obj
 0002:0000346c       ??_C@_09EPMADGLA@PSAPI?4DLL?$AA@ 1003c46c     LIBCMT:pdblkup.obj
 0002:00003478       ??_C@_0BJ@JEFKDHMD@CreateToolhelp32Snapshot?$AA@ 1003c478     LIBCMT:pdblkup.obj
 0002:00003494       ??_C@_0O@CHDGJGFP@ImageNtHeader?$AA@ 1003c494     LIBCMT:pdblkup.obj
 0002:000034a4       ??_C@_0N@KBGMOMJO@IMAGEHLP?4DLL?$AA@ 1003c4a4     LIBCMT:pdblkup.obj
 0002:000034b4       ??_C@_0N@NHGLKGEC@KERNEL32?4DLL?$AA@ 1003c4b4     LIBCMT:pdblkup.obj
 0002:000034c4       ??_C@_0BF@BMIHBHCA@EnvironmentDirectory?$AA@ 1003c4c4     LIBCMT:pdblkup.obj
 0002:000034dc       ??_C@_0CN@KGLAKABH@SOFTWARE?2Microsoft?2VisualStudio?2@ 1003c4dc     LIBCMT:pdblkup.obj
 0002:0000350c       ??_C@_0M@HLOHPNFA@RegCloseKey?$AA@ 1003c50c     LIBCMT:pdblkup.obj
 0002:00003518       ??_C@_0BB@HHEIPGME@RegQueryValueExA?$AA@ 1003c518     LIBCMT:pdblkup.obj
 0002:0000352c       ??_C@_0O@DCOGKJGG@RegOpenKeyExA?$AA@ 1003c52c     LIBCMT:pdblkup.obj
 0002:0000353c       ??_C@_0N@JJPEKNFO@ADVAPI32?4DLL?$AA@ 1003c53c     LIBCMT:pdblkup.obj
 0002:0000354c       ??_C@_08ONJBEOFA@PDBClose?$AA@ 1003c54c     LIBCMT:pdblkup.obj
 0002:00003558       ??_C@_08NINFAAFA@DBIClose?$AA@ 1003c558     LIBCMT:pdblkup.obj
 0002:00003564       ??_C@_08LIGPJJNA@ModClose?$AA@ 1003c564     LIBCMT:pdblkup.obj
 0002:00003570       ??_C@_0O@IPLOKOKN@ModQueryLines?$AA@ 1003c570     LIBCMT:pdblkup.obj
 0002:00003580       ??_C@_0BE@GDNPNLGH@DBIQueryModFromAddr?$AA@ 1003c580     LIBCMT:pdblkup.obj
 0002:00003594       ??_C@_0L@KPMOCKEL@PDBOpenDBI?$AA@ 1003c594     LIBCMT:pdblkup.obj
 0002:000035a0       ??_C@_0BB@PENKIMFE@PDBOpenValidate3?$AA@ 1003c5a0     LIBCMT:pdblkup.obj
 0002:000035b4       ___dnames                  1003c5b4     LIBCMT:timeset.obj
 0002:000035cc       ___mnames                  1003c5cc     LIBCMT:timeset.obj
 0002:000035f4       ??_C@_02CLFPBFFP@TZ?$AA@   1003c5f4     LIBCMT:tzset.obj
 0002:00003664       ??_C@_0P@GGKDKEEG@runtime?5error?5?$AA@ 1003c664     LIBCMT:crt0msg.obj
 0002:00003674       ??_C@_02PCIJFNDE@?$AN?6?$AA@ 1003c674     LIBCMT:crt0msg.obj
 0002:00003678       ??_C@_0O@MJNIPGOH@TLOSS?5error?$AN?6?$AA@ 1003c678     LIBCMT:crt0msg.obj
 0002:00003688       ??_C@_0N@BONNPDHF@SING?5error?$AN?6?$AA@ 1003c688     LIBCMT:crt0msg.obj
 0002:00003698       ??_C@_0P@MBDAJNE@DOMAIN?5error?$AN?6?$AA@ 1003c698     LIBCMT:crt0msg.obj
 0002:000036a8       ??_C@_0KC@BDDGGBEJ@R6029?$AN?6?9?5This?5application?5cannot@ 1003c6a8     LIBCMT:crt0msg.obj
 0002:0000374c       ??_C@_0CF@KJDAIALP@R6028?$AN?6?9?5unable?5to?5initialize?5he@ 1003c74c     LIBCMT:crt0msg.obj
 0002:00003774       ??_C@_0DF@GAKBPDFP@R6027?$AN?6?9?5not?5enough?5space?5for?5lo@ 1003c774     LIBCMT:crt0msg.obj
 0002:000037ac       ??_C@_0DF@IBLNNAIG@R6026?$AN?6?9?5not?5enough?5space?5for?5st@ 1003c7ac     LIBCMT:crt0msg.obj
 0002:000037e4       ??_C@_0CG@IOHKGFNJ@R6025?$AN?6?9?5pure?5virtual?5function?5c@ 1003c7e4     LIBCMT:crt0msg.obj
 0002:0000380c       ??_C@_0DF@JIJJFJDC@R6024?$AN?6?9?5not?5enough?5space?5for?5_o@ 1003c80c     LIBCMT:crt0msg.obj
 0002:00003844       ??_C@_0CJ@EGEJHFME@R6019?$AN?6?9?5unable?5to?5open?5console?5@ 1003c844     LIBCMT:crt0msg.obj
 0002:00003870       ??_C@_0CB@GNHNIELH@R6018?$AN?6?9?5unexpected?5heap?5error?$AN?6@ 1003c870     LIBCMT:crt0msg.obj
 0002:00003894       ??_C@_0CN@FOLDKNG@R6017?$AN?6?9?5unexpected?5multithread?5@ 1003c894     LIBCMT:crt0msg.obj
 0002:000038c4       ??_C@_0CM@FAHFJNHO@R6016?$AN?6?9?5not?5enough?5space?5for?5th@ 1003c8c4     LIBCMT:crt0msg.obj
 0002:000038f0       ??_C@_0JG@LBKMGKLD@?$AN?6This?5application?5has?5requested@ 1003c8f0     LIBCMT:crt0msg.obj
 0002:00003988       ??_C@_0CM@FLCNIPKK@R6009?$AN?6?9?5not?5enough?5space?5for?5en@ 1003c988     LIBCMT:crt0msg.obj
 0002:000039b4       ??_C@_0CK@KMMJOAPP@R6008?$AN?6?9?5not?5enough?5space?5for?5ar@ 1003c9b4     LIBCMT:crt0msg.obj
 0002:000039e0       ??_C@_0CF@HOHMHDEK@R6002?$AN?6?9?5floating?5point?5not?5load@ 1003c9e0     LIBCMT:crt0msg.obj
 0002:00003a08       ??_C@_0BK@OFGJDLJJ@Runtime?5Error?$CB?6?6Program?3?5?$AA@ 1003ca08     LIBCMT:crt0msg.obj
 0002:00003a38       ___newctype                1003ca38     LIBCMT:ctype.obj
 0002:00003d38       __wctype                   1003cd38     LIBCMT:ctype.obj
 0002:00003f6c       ??_C@_08JCCMCCIL@HH?3mm?3ss?$AA@ 1003cf6c     LIBCMT:strftime.obj
 0002:00003f78       ??_C@_0BE@CKGJFCPC@dddd?0?5MMMM?5dd?0?5yyyy?$AA@ 1003cf78     LIBCMT:strftime.obj
 0002:00003f8c       ??_C@_08BPBNCDIB@MM?1dd?1yy?$AA@ 1003cf8c     LIBCMT:strftime.obj
 0002:00003f98       ??_C@_02CJNFDJBF@PM?$AA@   1003cf98     LIBCMT:strftime.obj
 0002:00003f9c       ??_C@_02DEDBPAFC@AM?$AA@   1003cf9c     LIBCMT:strftime.obj
 0002:00003fa0       ??_C@_08EDHMEBNP@December?$AA@ 1003cfa0     LIBCMT:strftime.obj
 0002:00003fac       ??_C@_08HCHEGEOA@November?$AA@ 1003cfac     LIBCMT:strftime.obj
 0002:00003fb8       ??_C@_07JJNFCEND@October?$AA@ 1003cfb8     LIBCMT:strftime.obj
 0002:00003fc0       ??_C@_09BHHEALKD@September?$AA@ 1003cfc0     LIBCMT:strftime.obj
 0002:00003fcc       ??_C@_06LBBHFDDG@August?$AA@ 1003cfcc     LIBCMT:strftime.obj
 0002:00003fd4       ??_C@_04MIEPOIFP@July?$AA@ 1003cfd4     LIBCMT:strftime.obj
 0002:00003fdc       ??_C@_04CNLMGBGM@June?$AA@ 1003cfdc     LIBCMT:strftime.obj
 0002:00003fe4       ??_C@_05DMJDNLEJ@April?$AA@ 1003cfe4     LIBCMT:strftime.obj
 0002:00003fec       ??_C@_05HPCKOFNC@March?$AA@ 1003cfec     LIBCMT:strftime.obj
 0002:00003ff4       ??_C@_08GNJGEPFN@February?$AA@ 1003cff4     LIBCMT:strftime.obj
 0002:00004000       ??_C@_07CGJPFGJA@January?$AA@ 1003d000     LIBCMT:strftime.obj
 0002:00004008       ??_C@_03MKABNOCG@Dec?$AA@  1003d008     LIBCMT:strftime.obj
 0002:0000400c       ??_C@_03JPJOFNIA@Nov?$AA@  1003d00c     LIBCMT:strftime.obj
 0002:00004010       ??_C@_03BMAOKBAD@Oct?$AA@  1003d010     LIBCMT:strftime.obj
 0002:00004014       ??_C@_03GGCAPAJC@Sep?$AA@  1003d014     LIBCMT:strftime.obj
 0002:00004018       ??_C@_03IFJFEIGA@Aug?$AA@  1003d018     LIBCMT:strftime.obj
 0002:0000401c       ??_C@_03LBGABGKK@Jul?$AA@  1003d01c     LIBCMT:strftime.obj
 0002:00004020       ??_C@_03IDFGHECI@Jun?$AA@  1003d020     LIBCMT:strftime.obj
 0002:00004024       ??_C@_03CNMDKL@May?$AA@    1003d024     LIBCMT:strftime.obj
 0002:00004028       ??_C@_03LEOLGMJP@Apr?$AA@  1003d028     LIBCMT:strftime.obj
 0002:0000402c       ??_C@_03ODNJBKGA@Mar?$AA@  1003d02c     LIBCMT:strftime.obj
 0002:00004030       ??_C@_03HJBDCHOM@Feb?$AA@  1003d030     LIBCMT:strftime.obj
 0002:00004034       ??_C@_03JIHJHPIE@Jan?$AA@  1003d034     LIBCMT:strftime.obj
 0002:00004038       ??_C@_08INBOOONO@Saturday?$AA@ 1003d038     LIBCMT:strftime.obj
 0002:00004044       ??_C@_06JECMNKMI@Friday?$AA@ 1003d044     LIBCMT:strftime.obj
 0002:0000404c       ??_C@_08HACCIKIA@Thursday?$AA@ 1003d04c     LIBCMT:strftime.obj
 0002:00004058       ??_C@_09DLIGFAKA@Wednesday?$AA@ 1003d058     LIBCMT:strftime.obj
 0002:00004064       ??_C@_07BAAGCFCM@Tuesday?$AA@ 1003d064     LIBCMT:strftime.obj
 0002:0000406c       ??_C@_06JLEDEDGH@Monday?$AA@ 1003d06c     LIBCMT:strftime.obj
 0002:00004074       ??_C@_06OOPIFAJ@Sunday?$AA@ 1003d074     LIBCMT:strftime.obj
 0002:0000407c       ??_C@_03FEFJNEK@Sat?$AA@   1003d07c     LIBCMT:strftime.obj
 0002:00004080       ??_C@_03IDIOELNC@Fri?$AA@  1003d080     LIBCMT:strftime.obj
 0002:00004084       ??_C@_03IOFIKPDN@Thu?$AA@  1003d084     LIBCMT:strftime.obj
 0002:00004088       ??_C@_03MHOMLAJA@Wed?$AA@  1003d088     LIBCMT:strftime.obj
 0002:0000408c       ??_C@_03NAGEINEP@Tue?$AA@  1003d08c     LIBCMT:strftime.obj
 0002:00004090       ??_C@_03PDAGKDH@Mon?$AA@   1003d090     LIBCMT:strftime.obj
 0002:00004094       ??_C@_03KOEHGMDN@Sun?$AA@  1003d094     LIBCMT:strftime.obj
 0002:00004098       ??_C@_03EBAPMIKO@a?1p?$AA@ 1003d098     LIBCMT:strftime.obj
 0002:0000409c       ??_C@_05JAMEPDIN@am?1pm?$AA@ 1003d09c     LIBCMT:strftime.obj
 0002:000040b8       ___rgLocInfo               1003d0b8     LIBCMT:getqloc.obj
 0002:0000455c       ??_C@_08PKBIPKE@Paraguay?$AA@ 1003d55c     LIBCMT:getqloc.obj
 0002:00004568       ??_C@_07GHBIBIBP@Uruguay?$AA@ 1003d568     LIBCMT:getqloc.obj
 0002:00004570       ??_C@_05HBNKAPDN@Chile?$AA@ 1003d570     LIBCMT:getqloc.obj
 0002:00004578       ??_C@_07FEIFIPNF@Ecuador?$AA@ 1003d578     LIBCMT:getqloc.obj
 0002:00004580       ??_C@_09PGNFPGME@Argentina?$AA@ 1003d580     LIBCMT:getqloc.obj
 0002:0000458c       ??_C@_04IALPBJF@Peru?$AA@  1003d58c     LIBCMT:getqloc.obj
 0002:00004594       ??_C@_08IJPLNLKH@Colombia?$AA@ 1003d594     LIBCMT:getqloc.obj
 0002:000045a0       ??_C@_09IDMFKCN@Venezuela?$AA@ 1003d5a0     LIBCMT:getqloc.obj
 0002:000045ac       ??_C@_0BD@DNEJOGOK@Dominican?5Republic?$AA@ 1003d5ac     LIBCMT:getqloc.obj
 0002:000045c0       ??_C@_0N@LPINDNDB@South?5Africa?$AA@ 1003d5c0     LIBCMT:getqloc.obj
 0002:000045d0       ??_C@_06BLJPEOBG@Panama?$AA@ 1003d5d0     LIBCMT:getqloc.obj
 0002:000045d8       ??_C@_0L@BOCNDGON@Luxembourg?$AA@ 1003d5d8     LIBCMT:getqloc.obj
 0002:000045e4       ??_C@_0L@CONEHKA@Costa?5Rica?$AA@ 1003d5e4     LIBCMT:getqloc.obj
 0002:000045f0       ??_C@_0M@KGBPELAM@Switzerland?$AA@ 1003d5f0     LIBCMT:getqloc.obj
 0002:000045fc       ??_C@_09FJGLIMAG@Guatemala?$AA@ 1003d5fc     LIBCMT:getqloc.obj
 0002:00004608       ??_C@_06ECHIPDMK@Canada?$AA@ 1003d608     LIBCMT:getqloc.obj
 0002:00004610       ??_C@_0BG@CCEBNPGH@Spanish?5?9?5Modern?5Sort?$AA@ 1003d610     LIBCMT:getqloc.obj
 0002:00004628       ??_C@_09EFGJAPAD@Australia?$AA@ 1003d628     LIBCMT:getqloc.obj
 0002:00004634       ??_C@_07NEKHPBCG@English?$AA@ 1003d634     LIBCMT:getqloc.obj
 0002:0000463c       ??_C@_07LKIIOGFH@Austria?$AA@ 1003d63c     LIBCMT:getqloc.obj
 0002:00004644       ??_C@_06EDDDIONA@German?$AA@ 1003d644     LIBCMT:getqloc.obj
 0002:0000464c       ??_C@_07LIIIOFOA@Belgium?$AA@ 1003d64c     LIBCMT:getqloc.obj
 0002:00004654       ??_C@_06DIAOLLEH@Mexico?$AA@ 1003d654     LIBCMT:getqloc.obj
 0002:0000465c       ??_C@_07PFALJOGE@Spanish?$AA@ 1003d65c     LIBCMT:getqloc.obj
 0002:00004664       ??_C@_06FFOOPAJB@Basque?$AA@ 1003d664     LIBCMT:getqloc.obj
 0002:0000466c       ??_C@_06DGHNDJFJ@Sweden?$AA@ 1003d66c     LIBCMT:getqloc.obj
 0002:00004674       ??_C@_07OBINPKFN@Swedish?$AA@ 1003d674     LIBCMT:getqloc.obj
 0002:0000467c       ??_C@_07NCOIHDGC@Iceland?$AA@ 1003d67c     LIBCMT:getqloc.obj
 0002:00004684       ??_C@_09JHBBDDIA@Icelandic?$AA@ 1003d684     LIBCMT:getqloc.obj
 0002:00004690       ??_C@_06COBCPIFO@France?$AA@ 1003d690     LIBCMT:getqloc.obj
 0002:00004698       ??_C@_06GODMCAND@French?$AA@ 1003d698     LIBCMT:getqloc.obj
 0002:000046a0       ??_C@_07MFHPMOED@Finland?$AA@ 1003d6a0     LIBCMT:getqloc.obj
 0002:000046a8       ??_C@_07MCEAMKOD@Finnish?$AA@ 1003d6a8     LIBCMT:getqloc.obj
 0002:000046b0       ??_C@_05CBHOCCK@Spain?$AA@ 1003d6b0     LIBCMT:getqloc.obj
 0002:000046b8       ??_C@_0BL@GIOEGDHB@Spanish?5?9?5Traditional?5Sort?$AA@ 1003d6b8     LIBCMT:getqloc.obj
 0002:000046d4       ___rglangidNotDefault      1003d6d4     LIBCMT:getqloc.obj
 0002:000046e8       ___rg_country              1003d6e8     LIBCMT:getqloc.obj
 0002:000047a0       ??_C@_0O@FMJNFNKE@united?9states?$AA@ 1003d7a0     LIBCMT:getqloc.obj
 0002:000047b0       ??_C@_0P@NDHFFKCA@united?9kingdom?$AA@ 1003d7b0     LIBCMT:getqloc.obj
 0002:000047c0       ??_C@_0BC@HHDADLGF@trinidad?5?$CG?5tobago?$AA@ 1003d7c0     LIBCMT:getqloc.obj
 0002:000047d4       ??_C@_0M@IOAEBDAC@south?9korea?$AA@ 1003d7d4     LIBCMT:getqloc.obj
 0002:000047e0       ??_C@_0N@FIELFKIJ@south?9africa?$AA@ 1003d7e0     LIBCMT:getqloc.obj
 0002:000047f0       ??_C@_0M@OPNDHCMC@south?5korea?$AA@ 1003d7f0     LIBCMT:getqloc.obj
 0002:000047fc       ??_C@_0N@MDEOEPFI@south?5africa?$AA@ 1003d7fc     LIBCMT:getqloc.obj
 0002:0000480c       ??_C@_06FKAPCJLB@slovak?$AA@ 1003d80c     LIBCMT:getqloc.obj
 0002:00004814       ??_C@_0M@EFJANOAL@puerto?9rico?$AA@ 1003d814     LIBCMT:getqloc.obj
 0002:00004820       ??_C@_08PGOJKDAI@pr?9china?$AA@ 1003d820     LIBCMT:getqloc.obj
 0002:0000482c       ??_C@_08JHDOMCMI@pr?5china?$AA@ 1003d82c     LIBCMT:getqloc.obj
 0002:00004838       ??_C@_02JHCHFBLL@nz?$AA@   1003d838     LIBCMT:getqloc.obj
 0002:0000483c       ??_C@_0M@LINHDHKP@new?9zealand?$AA@ 1003d83c     LIBCMT:getqloc.obj
 0002:00004848       ??_C@_09IIIPPBDB@hong?9kong?$AA@ 1003d848     LIBCMT:getqloc.obj
 0002:00004854       ??_C@_07HJLCKBG@holland?$AA@ 1003d854     LIBCMT:getqloc.obj
 0002:0000485c       ??_C@_0O@LEHGMHAG@great?5britain?$AA@ 1003d85c     LIBCMT:getqloc.obj
 0002:0000486c       ??_C@_07FACOMELA@england?$AA@ 1003d86c     LIBCMT:getqloc.obj
 0002:00004874       ??_C@_05JIHCEICB@czech?$AA@ 1003d874     LIBCMT:getqloc.obj
 0002:0000487c       ??_C@_05BBJOBLGB@china?$AA@ 1003d87c     LIBCMT:getqloc.obj
 0002:00004884       ??_C@_07GPKPHICP@britain?$AA@ 1003d884     LIBCMT:getqloc.obj
 0002:0000488c       ??_C@_07MHIPBHMG@america?$AA@ 1003d88c     LIBCMT:getqloc.obj
 0002:00004898       ___rg_language             1003d898     LIBCMT:getqloc.obj
 0002:00004aa0       ??_C@_03KIALPMKC@usa?$AA@  1003daa0     LIBCMT:getqloc.obj
 0002:00004aa4       ??_C@_02FGJGKGGD@us?$AA@   1003daa4     LIBCMT:getqloc.obj
 0002:00004aa8       ??_C@_02NEINDODK@uk?$AA@   1003daa8     LIBCMT:getqloc.obj
 0002:00004aac       ??_C@_05JMPCFJFJ@swiss?$AA@ 1003daac     LIBCMT:getqloc.obj
 0002:00004ab4       ??_C@_0BA@HLOCPIOD@swedish?9finland?$AA@ 1003dab4     LIBCMT:getqloc.obj
 0002:00004ac4       ??_C@_0BC@PKCNIABK@spanish?9venezuela?$AA@ 1003dac4     LIBCMT:getqloc.obj
 0002:00004ad8       ??_C@_0BA@GBHHMIJI@spanish?9uruguay?$AA@ 1003dad8     LIBCMT:getqloc.obj
 0002:00004ae8       ??_C@_0BE@BHDOHPMC@spanish?9puerto?5rico?$AA@ 1003dae8     LIBCMT:getqloc.obj
 0002:00004afc       ??_C@_0N@KMOIDGGN@spanish?9peru?$AA@ 1003dafc     LIBCMT:getqloc.obj
 0002:00004b0c       ??_C@_0BB@HMHLPGPH@spanish?9paraguay?$AA@ 1003db0c     LIBCMT:getqloc.obj
 0002:00004b20       ??_C@_0P@MCPKNGFD@spanish?9panama?$AA@ 1003db20     LIBCMT:getqloc.obj
 0002:00004b30       ??_C@_0BC@IHOHGAIL@spanish?9nicaragua?$AA@ 1003db30     LIBCMT:getqloc.obj
 0002:00004b44       ??_C@_0P@KLMJDNFJ@spanish?9modern?$AA@ 1003db44     LIBCMT:getqloc.obj
 0002:00004b54       ??_C@_0BA@BPAPGBCM@spanish?9mexican?$AA@ 1003db54     LIBCMT:getqloc.obj
 0002:00004b64       ??_C@_0BB@PDECHHHE@spanish?9honduras?$AA@ 1003db64     LIBCMT:getqloc.obj
 0002:00004b78       ??_C@_0BC@KLHKFGDB@spanish?9guatemala?$AA@ 1003db78     LIBCMT:getqloc.obj
 0002:00004b8c       ??_C@_0BE@MFOOKJAI@spanish?9el?5salvador?$AA@ 1003db8c     LIBCMT:getqloc.obj
 0002:00004ba0       ??_C@_0BA@FCOKFPFC@spanish?9ecuador?$AA@ 1003dba0     LIBCMT:getqloc.obj
 0002:00004bb0       ??_C@_0BL@PLMGIMOO@spanish?9dominican?5republic?$AA@ 1003dbb0     LIBCMT:getqloc.obj
 0002:00004bcc       ??_C@_0BD@HLGDNMHB@spanish?9costa?5rica?$AA@ 1003dbcc     LIBCMT:getqloc.obj
 0002:00004be0       ??_C@_0BB@PKCBKCPE@spanish?9colombia?$AA@ 1003dbe0     LIBCMT:getqloc.obj
 0002:00004bf4       ??_C@_0O@MCBIJGNE@spanish?9chile?$AA@ 1003dbf4     LIBCMT:getqloc.obj
 0002:00004c04       ??_C@_0BA@BEFEIGJJ@spanish?9bolivia?$AA@ 1003dc04     LIBCMT:getqloc.obj
 0002:00004c14       ??_C@_0BC@EMECMPD@spanish?9argentina?$AA@ 1003dc14     LIBCMT:getqloc.obj
 0002:00004c28       ??_C@_0BF@EALFLENP@portuguese?9brazilian?$AA@ 1003dc28     LIBCMT:getqloc.obj
 0002:00004c40       ??_C@_0BC@HBLEBLNN@norwegian?9nynorsk?$AA@ 1003dc40     LIBCMT:getqloc.obj
 0002:00004c54       ??_C@_0BB@HMACDDCK@norwegian?9bokmal?$AA@ 1003dc54     LIBCMT:getqloc.obj
 0002:00004c68       ??_C@_09BAFFPPHE@norwegian?$AA@ 1003dc68     LIBCMT:getqloc.obj
 0002:00004c74       ??_C@_0O@EAJFJDFG@italian?9swiss?$AA@ 1003dc74     LIBCMT:getqloc.obj
 0002:00004c84       ??_C@_0O@CNOMPGD@irish?9english?$AA@ 1003dc84     LIBCMT:getqloc.obj
 0002:00004c94       ??_C@_0N@EDHBGCKG@german?9swiss?$AA@ 1003dc94     LIBCMT:getqloc.obj
 0002:00004ca4       ??_C@_0BC@JACMHNBP@german?9luxembourg?$AA@ 1003dca4     LIBCMT:getqloc.obj
 0002:00004cb8       ??_C@_0BE@HBGMGFEG@german?9lichtenstein?$AA@ 1003dcb8     LIBCMT:getqloc.obj
 0002:00004ccc       ??_C@_0BA@HKKBIBKL@german?9austrian?$AA@ 1003dccc     LIBCMT:getqloc.obj
 0002:00004cdc       ??_C@_0N@GCAEPEBK@french?9swiss?$AA@ 1003dcdc     LIBCMT:getqloc.obj
 0002:00004cec       ??_C@_0BC@DJFJJCK@french?9luxembourg?$AA@ 1003dcec     LIBCMT:getqloc.obj
 0002:00004d00       ??_C@_0BA@NNCEDFIC@french?9canadian?$AA@ 1003dd00     LIBCMT:getqloc.obj
 0002:00004d10       ??_C@_0P@CMPOCLM@french?9belgian?$AA@ 1003dd10     LIBCMT:getqloc.obj
 0002:00004d20       ??_C@_0M@GHHDJOK@english?9usa?$AA@ 1003dd20     LIBCMT:getqloc.obj
 0002:00004d2c       ??_C@_0L@PLDJKEIL@english?9us?$AA@ 1003dd2c     LIBCMT:getqloc.obj
 0002:00004d38       ??_C@_0L@HJCCDMNC@english?9uk?$AA@ 1003dd38     LIBCMT:getqloc.obj
 0002:00004d44       ??_C@_0BK@CKLIAGJB@english?9trinidad?5y?5tobago?$AA@ 1003dd44     LIBCMT:getqloc.obj
 0002:00004d60       ??_C@_0BF@JMJMGNNF@english?9south?5africa?$AA@ 1003dd60     LIBCMT:getqloc.obj
 0002:00004d78       ??_C@_0L@DKIIFDFD@english?9nz?$AA@ 1003dd78     LIBCMT:getqloc.obj
 0002:00004d84       ??_C@_0BA@ONHGJCLH@english?9jamaica?$AA@ 1003dd84     LIBCMT:getqloc.obj
 0002:00004d94       ??_C@_0M@HJBGHOPO@english?9ire?$AA@ 1003dd94     LIBCMT:getqloc.obj
 0002:00004da0       ??_C@_0BC@LFEKMIFB@english?9caribbean?$AA@ 1003dda0     LIBCMT:getqloc.obj
 0002:00004db4       ??_C@_0M@OLDPFKHI@english?9can?$AA@ 1003ddb4     LIBCMT:getqloc.obj
 0002:00004dc0       ??_C@_0P@OMDEHBMP@english?9belize?$AA@ 1003ddc0     LIBCMT:getqloc.obj
 0002:00004dd0       ??_C@_0M@KFHFPFED@english?9aus?$AA@ 1003ddd0     LIBCMT:getqloc.obj
 0002:00004ddc       ??_C@_0BB@MNMBKDFE@english?9american?$AA@ 1003dddc     LIBCMT:getqloc.obj
 0002:00004df0       ??_C@_0O@KIDLNNBA@dutch?9belgian?$AA@ 1003ddf0     LIBCMT:getqloc.obj
 0002:00004e00       ??_C@_0BE@JBKABBMH@chinese?9traditional?$AA@ 1003de00     LIBCMT:getqloc.obj
 0002:00004e14       ??_C@_0BC@MJJMPKCG@chinese?9singapore?$AA@ 1003de14     LIBCMT:getqloc.obj
 0002:00004e28       ??_C@_0BD@FDKADDCP@chinese?9simplified?$AA@ 1003de28     LIBCMT:getqloc.obj
 0002:00004e3c       ??_C@_0BB@DBEFDDME@chinese?9hongkong?$AA@ 1003de3c     LIBCMT:getqloc.obj
 0002:00004e50       ??_C@_07DHNMFMCI@chinese?$AA@ 1003de50     LIBCMT:getqloc.obj
 0002:00004e58       ??_C@_03FNDDCHI@chi?$AA@   1003de58     LIBCMT:getqloc.obj
 0002:00004e5c       ??_C@_03BMMIADDJ@chh?$AA@  1003de5c     LIBCMT:getqloc.obj
 0002:00004e60       ??_C@_08OAIPJDGI@canadian?$AA@ 1003de60     LIBCMT:getqloc.obj
 0002:00004e6c       ??_C@_07HBPMNPNJ@belgian?$AA@ 1003de6c     LIBCMT:getqloc.obj
 0002:00004e74       ??_C@_0L@OEKOPBEL@australian?$AA@ 1003de74     LIBCMT:getqloc.obj
 0002:00004e80       ??_C@_0BB@MEIMBEDG@american?9english?$AA@ 1003de80     LIBCMT:getqloc.obj
 0002:00004e94       ??_C@_0BB@DFMDPDGB@american?5english?$AA@ 1003de94     LIBCMT:getqloc.obj
 0002:00004ea8       ??_C@_08IJLOKOLL@american?$AA@ 1003dea8     LIBCMT:getqloc.obj
 0002:00004eb4       ??_C@_03NFKLAGEF@OCP?$AA@  1003deb4     LIBCMT:getqloc.obj
 0002:00004eb8       ??_C@_03DFHEHBHG@ACP?$AA@  1003deb8     LIBCMT:getqloc.obj
 0002:00004ebc       ??_C@_0BC@NFIEMBLL@Norwegian?9Nynorsk?$AA@ 1003debc     LIBCMT:getqloc.obj
 0002:00004f54       ??_C@_0CG@PKBDLMEO@InitializeCriticalSectionAndSpin@ 1003df54     LIBCMT:initcrit.obj
 0002:00004fa0       ??_C@_0KA@JEHFIFGP@A?5buffer?5overrun?5has?5been?5detect@ 1003dfa0     LIBCMT:secfail.obj
 0002:00005040       ??_C@_0BJ@MDEKIEOJ@Buffer?5overrun?5detected?$CB?$AA@ 1003e040     LIBCMT:secfail.obj
 0002:00005060       ??_C@_0LB@BPLHHLFD@A?5security?5error?5of?5unknown?5caus@ 1003e060     LIBCMT:secfail.obj
 0002:00005114       ??_C@_0CD@GMKACBEK@Unknown?5security?5failure?5detecte@ 1003e114     LIBCMT:secfail.obj
 0002:00005218       ___rtc_iaa                 1003e218     LIBCMT:initsect.obj
 0002:00005250       ___rtc_izz                 1003e250     LIBCMT:initsect.obj
 0002:00005254       ___rtc_taa                 1003e254     LIBCMT:initsect.obj
 0002:0000528c       ___rtc_tzz                 1003e28c     LIBCMT:initsect.obj
 0002:00005478       __IMPORT_DESCRIPTOR_engine 1003e478     engine:engine.exe
 0002:0000548c       __IMPORT_DESCRIPTOR_KERNEL32 1003e48c     kernel32:KERNEL32.dll
 0002:000054a0       __IMPORT_DESCRIPTOR_ADVAPI32 1003e4a0     advapi32:ADVAPI32.dll
 0002:000054b4       __IMPORT_DESCRIPTOR_WSOCK32 1003e4b4     wsock32:WSOCK32.dll
 0002:000054c8       __NULL_IMPORT_DESCRIPTOR   1003e4c8     engine:engine.exe
 0003:00000000       ___xc_a                    10040000     LIBCMT:crt0init.obj
 0003:00000010       ___xc_z                    10040010     LIBCMT:crt0init.obj
 0003:00000014       ___xi_a                    10040014     LIBCMT:crt0init.obj
 0003:0000002c       ___xi_z                    1004002c     LIBCMT:crt0init.obj
 0003:00000030       ___xp_a                    10040030     LIBCMT:crt0init.obj
 0003:00000038       ___xp_z                    10040038     LIBCMT:crt0init.obj
 0003:0000003c       ___xt_a                    1004003c     LIBCMT:crt0init.obj
 0003:00000044       ___xt_z                    10040044     LIBCMT:crt0init.obj
 0003:000001cc       ?HXARR@@3PADA              100401cc     ParseRQ.obj
 0003:000001dc       ?__LINE__Var@?1??ciCallbacksArrayElementFreeFn@@9@9@cd26da26 100401dc     chatCallbacks.obj
 0003:000001e0       ?__LINE__Var@?1??ciCleanupCallbacks@@9@9 100401e0     chatCallbacks.obj
 0003:000001e4       ?__LINE__Var@?1??ciFreeCallbackData@@9@9@cd26da26 100401e4     chatCallbacks.obj
 0003:000001e8       ?__LINE__Var@?1??ciAddCallback_@@9@9 100401e8     chatCallbacks.obj
 0003:000001ec       ?__LINE__Var@?1??ciCallCallback@@9@9 100401ec     chatCallbacks.obj
 0003:000001f0       ?__LINE__Var@?1??ciCallCallbacks@@9@9 100401f0     chatCallbacks.obj
 0003:000001f4       ?__LINE__Var@?1??ciGetCallbackIndexByID@@9@9@cd26da26 100401f4     chatCallbacks.obj
 0003:000001f8       ?__LINE__Var@?1??ciChannelTableHashFn@@9@9@ea709950 100401f8     chatChannel.obj
 0003:000001fc       ?__LINE__Var@?1??ciHashString@@9@9@ea709950 100401fc     chatChannel.obj
 0003:00000200       ?__LINE__Var@?1??ciChannelTableCompareFn@@9@9@ea709950 10040200     chatChannel.obj
 0003:00000204       ?__LINE__Var@?1??ciChannelTableElementFreeFn@@9@9@ea709950 10040204     chatChannel.obj
 0003:00000208       ?__LINE__Var@?1??ciCleanupChannels@@9@9 10040208     chatChannel.obj
 0003:0000020c       ?__LINE__Var@?1??ciChannelEntering@@9@9 1004020c     chatChannel.obj
 0003:00000210       ?__LINE__Var@?1??ciIsEnteringChannel@@9@9 10040210     chatChannel.obj
 0003:00000214       ?__LINE__Var@?1??ciChannelEntered@@9@9 10040214     chatChannel.obj
 0003:00000218       ?__LINE__Var@?1??ciUserTableHashFn@@9@9@ea709950 10040218     chatChannel.obj
 0003:0000021c       ?__LINE__Var@?1??ciUserTableCompareFn@@9@9@ea709950 1004021c     chatChannel.obj
 0003:00000220       ?__LINE__Var@?1??ciUserTableElementFreeFn@@9@9@ea709950 10040220     chatChannel.obj
 0003:00000224       ?__LINE__Var@?1??ciChannelLeft@@9@9 10040224     chatChannel.obj
 0003:00000228       ?__LINE__Var@?1??ciGetChannelCallbacks@@9@9 10040228     chatChannel.obj
 0003:0000022c       ?__LINE__Var@?1??ciChannelListUsers@@9@9 1004022c     chatChannel.obj
 0003:00000230       ?__LINE__Var@?1??ciChannelListUsersMap@@9@9@ea709950 10040230     chatChannel.obj
 0003:00000234       ?__LINE__Var@?1??ciInChannel@@9@9 10040234     chatChannel.obj
 0003:00000238       ?__LINE__Var@?1??ciGetChannelMode@@9@9 10040238     chatChannel.obj
 0003:0000023c       ?__LINE__Var@?1??ciSetChannelMode@@9@9 1004023c     chatChannel.obj
 0003:00000240       ?__LINE__Var@?1??ciSetChannelPassword@@9@9 10040240     chatChannel.obj
 0003:00000244       ?__LINE__Var@?1??ciGetChannelPassword@@9@9 10040244     chatChannel.obj
 0003:00000248       ?__LINE__Var@?1??ciJoinCallbackCalled@@9@9 10040248     chatChannel.obj
 0003:0000024c       ?__LINE__Var@?1??ciWasJoinCallbackCalled@@9@9 1004024c     chatChannel.obj
 0003:00000250       ?__LINE__Var@?1??ciSetChannelTopic@@9@9 10040250     chatChannel.obj
 0003:00000254       ?__LINE__Var@?1??ciGetChannelTopic@@9@9 10040254     chatChannel.obj
 0003:00000258       ?__LINE__Var@?1??ciGetChannelNumUsers@@9@9 10040258     chatChannel.obj
 0003:0000025c       ?__LINE__Var@?1??ciUserEnteredChannel@@9@9 1004025c     chatChannel.obj
 0003:00000260       ?__LINE__Var@?1??ciUserLeftChannel@@9@9 10040260     chatChannel.obj
 0003:00000264       ?__LINE__Var@?1??ciUserEnumChannels@@9@9 10040264     chatChannel.obj
 0003:00000268       ?__LINE__Var@?1??ciUserEnumChannelsMap@@9@9@ea709950 10040268     chatChannel.obj
 0003:0000026c       ?__LINE__Var@?1??ciUserChangedNick@@9@9 1004026c     chatChannel.obj
 0003:00000270       ?__LINE__Var@?1??ciUserChangeNickMap@@9@9@ea709950 10040270     chatChannel.obj
 0003:00000274       ?__LINE__Var@?1??ciUserChangedMode@@9@9 10040274     chatChannel.obj
 0003:00000278       ?__LINE__Var@?1??ciUserInChannel@@9@9 10040278     chatChannel.obj
 0003:0000027c       ?__LINE__Var@?1??ciGetUserMode@@9@9 1004027c     chatChannel.obj
 0003:00000280       ?__LINE__Var@?1??ciEnumJoinedChannels@@9@9 10040280     chatChannel.obj
 0003:00000284       ?__LINE__Var@?1??ciEnumJoinedChannelsMap@@9@9@ea709950 10040284     chatChannel.obj
 0003:00000288       ?__LINE__Var@?1??ciSetUserBasicInfo@@9@9 10040288     chatChannel.obj
 0003:0000028c       ?__LINE__Var@?1??ciSetUserBasicInfoMap@@9@9@ea709950 1004028c     chatChannel.obj
 0003:00000290       ?__LINE__Var@?1??ciGetUserBasicInfo@@9@9 10040290     chatChannel.obj
 0003:00000294       ?__LINE__Var@?1??ciGetUserBasicInfoMap@@9@9@ea709950 10040294     chatChannel.obj
 0003:00000298       ?__LINE__Var@?1??ciClearAllUsers@@9@9 10040298     chatChannel.obj
 0003:0000029c       ?__LINE__Var@?1??ciClearAllUsersChannelMap@@9@9@ea709950 1004029c     chatChannel.obj
 0003:000002a0       ?__LINE__Var@?1??ciClearAllUsersUsersMap@@9@9@ea709950 100402a0     chatChannel.obj
 0003:000002a8       _serverMessageTypes        100402a8     chatHandlers.obj
 0003:00000420       _numServerMessageTypes     10040420     chatHandlers.obj
 0003:00000424       ?__LINE__Var@?1??ciFilterThink@@9@9 10040424     chatHandlers.obj
 0003:00000428       ?__LINE__Var@?1??ciFilterTimedout@@9@9@4a941ccd 10040428     chatHandlers.obj
 0003:0000042c       ?__LINE__Var@?1??ciRemoveFilter@@9@9@4a941ccd 1004042c     chatHandlers.obj
 0003:00000430       ?__LINE__Var@?1??ciDestroyFilter@@9@9@4a941ccd 10040430     chatHandlers.obj
 0003:00000434       ?__LINE__Var@?1??ciFinishFilter@@9@9@4a941ccd 10040434     chatHandlers.obj
 0003:00000438       ?__LINE__Var@?1??ciGetNextID@@9@9 10040438     chatHandlers.obj
 0003:0000043c       ?__LINE__Var@?1??ciCheckFiltersForID@@9@9 1004043c     chatHandlers.obj
 0003:00000440       ?__LINE__Var@?1??ciCleanupFilters@@9@9 10040440     chatHandlers.obj
 0003:00000444       ?__LINE__Var@?1??ciAddFilter@@9@9@4a941ccd 10040444     chatHandlers.obj
 0003:00000448       ?__LINE__Var@?1??ciAddJOINFilter@@9@9 10040448     chatHandlers.obj
 0003:0000044c       ?__LINE__Var@?1??ciParseMode@@9@9 1004044c     chatHandlers.obj
 0003:00000450       ?__LINE__Var@?1??ciApplyChangesToMode@@9@9 10040450     chatHandlers.obj
 0003:00000454       ?__LINE__Var@?1??ciNickError@@9@9 10040454     chatHandlers.obj
 0003:00000458       ?__LINE__Var@?1??ciPrivmsgHandler@@9@9 10040458     chatHandlers.obj
 0003:0000045c       ?__LINE__Var@?1??ciNoticeHandler@@9@9 1004045c     chatHandlers.obj
 0003:00000460       ?__LINE__Var@?1??ciUTMHandler@@9@9 10040460     chatHandlers.obj
 0003:00000464       ?__LINE__Var@?1??ciATMHandler@@9@9 10040464     chatHandlers.obj
 0003:00000468       ?__LINE__Var@?1??ciPingHandler@@9@9 10040468     chatHandlers.obj
 0003:0000046c       ?__LINE__Var@?1??ciNickHandler@@9@9 1004046c     chatHandlers.obj
 0003:00000470       ?__LINE__Var@?1??ciFindFilter@@9@9@4a941ccd 10040470     chatHandlers.obj
 0003:00000474       ?__LINE__Var@?1??ciJoinHandler@@9@9 10040474     chatHandlers.obj
 0003:00000478       ?__LINE__Var@?1??ciPartHandler@@9@9 10040478     chatHandlers.obj
 0003:0000047c       ?__LINE__Var@?1??ciKickHandler@@9@9 1004047c     chatHandlers.obj
 0003:00000480       ?__LINE__Var@?1??ciQuitEnumChannelsCallback@@9@9 10040480     chatHandlers.obj
 0003:00000484       ?__LINE__Var@?1??ciQuitHandler@@9@9 10040484     chatHandlers.obj
 0003:00000488       ?__LINE__Var@?1??ciKillEnumChannelsCallback@@9@9 10040488     chatHandlers.obj
 0003:0000048c       ?__LINE__Var@?1??ciKillHandler@@9@9 1004048c     chatHandlers.obj
 0003:00000490       ?__LINE__Var@?1??ciTopicHandler@@9@9 10040490     chatHandlers.obj
 0003:00000494       ?__LINE__Var@?1??ciModeHandler@@9@9 10040494     chatHandlers.obj
 0003:00000498       ?__LINE__Var@?1??ciErrorHandler@@9@9 10040498     chatHandlers.obj
 0003:0000049c       ?__LINE__Var@?1??ciInviteHandler@@9@9 1004049c     chatHandlers.obj
 0003:000004a0       ?__LINE__Var@?1??ciNameReplyHandler@@9@9 100404a0     chatHandlers.obj
 0003:000004a4       ?__LINE__Var@?1??ciEndOfNamesHandler@@9@9 100404a4     chatHandlers.obj
 0003:000004a8       ?__LINE__Var@?1??ciRplTopicHandler@@9@9 100404a8     chatHandlers.obj
 0003:000004ac       ?__LINE__Var@?1??ciRplNoTopicHandler@@9@9 100404ac     chatHandlers.obj
 0003:000004b0       ?__LINE__Var@?1??ciErrNickInUseHandler@@9@9 100404b0     chatHandlers.obj
 0003:000004b4       ?__LINE__Var@?1??ciRplWhoReplyHandler@@9@9 100404b4     chatHandlers.obj
 0003:000004b8       ?__LINE__Var@?1??ciRplEndOfWhoHandler@@9@9 100404b8     chatHandlers.obj
 0003:000004bc       ?__LINE__Var@?1??ciRplGetKeyHandler@@9@9 100404bc     chatHandlers.obj
 0003:000004c0       ?__LINE__Var@?1??ciParseValue@@9@9@4a941ccd 100404c0     chatHandlers.obj
 0003:000004c4       ?__LINE__Var@?1??ciRplEndGetKeyHandler@@9@9 100404c4     chatHandlers.obj
 0003:000004c8       ?__LINE__Var@?1??ciRplGetCKeyHandler@@9@9 100404c8     chatHandlers.obj
 0003:000004cc       ?__LINE__Var@?1??ciRplEndGetCKeyHandler@@9@9 100404cc     chatHandlers.obj
 0003:000004d0       ?__LINE__Var@?1??ciRplGetChanKeyHandler@@9@9 100404d0     chatHandlers.obj
 0003:000004d4       ?__LINE__Var@?1??ciRplUserIPHandler@@9@9 100404d4     chatHandlers.obj
 0003:000004d8       ?__LINE__Var@?1??ciRplListStartHandler@@9@9 100404d8     chatHandlers.obj
 0003:000004dc       ?__LINE__Var@?1??ciRplListHandler@@9@9 100404dc     chatHandlers.obj
 0003:000004e0       ?__LINE__Var@?1??ciRplChannelModeIsHandler@@9@9 100404e0     chatHandlers.obj
 0003:000004e4       ?__LINE__Var@?1??ciRplWhoisUserHandler@@9@9 100404e4     chatHandlers.obj
 0003:000004e8       ?__LINE__Var@?1??ciRplWhoisChannelsHandler@@9@9 100404e8     chatHandlers.obj
 0003:000004ec       ?__LINE__Var@?1??ciRplEndOfWhoisHandler@@9@9 100404ec     chatHandlers.obj
 0003:000004f0       ?__LINE__Var@?1??ciRplBanListHandler@@9@9 100404f0     chatHandlers.obj
 0003:000004f4       ?__LINE__Var@?1??ciRplEndOfBanListHandler@@9@9 100404f4     chatHandlers.obj
 0003:000004f8       ?__LINE__Var@?1??ciRplWelcomeHandler@@9@9 100404f8     chatHandlers.obj
 0003:000004fc       ?__LINE__Var@?1??ciErrNoSuchChannelHandler@@9@9 100404fc     chatHandlers.obj
 0003:00000500       ?__LINE__Var@?1??ciErrTooManyChannelsHandler@@9@9 10040500     chatHandlers.obj
 0003:00000504       ?__LINE__Var@?1??ciErrChannelIsFullHandler@@9@9 10040504     chatHandlers.obj
 0003:00000508       ?__LINE__Var@?1??ciErrInviteOnlyChanHandler@@9@9 10040508     chatHandlers.obj
 0003:0000050c       ?__LINE__Var@?1??ciErrBannedFromChanHandler@@9@9 1004050c     chatHandlers.obj
 0003:00000510       ?__LINE__Var@?1??ciErrBadChannelKeyHandler@@9@9 10040510     chatHandlers.obj
 0003:00000514       ?__LINE__Var@?1??ciErrBadChanMaskHandler@@9@9 10040514     chatHandlers.obj
 0003:00000518       ?__LINE__Var@?1??ciErrErroneusNicknameHandler@@9@9 10040518     chatHandlers.obj
 0003:00000520       ?__LINE__Var@?1??ciHandleDisconnect@@9@9 10040520     chatMain.obj
 0003:00000524       ?__LINE__Var@?1??ciSendNickAndUser@@9@9 10040524     chatMain.obj
 0003:00000528       ?__LINE__Var@?1??chatConnectDoit@@9@9 10040528     chatMain.obj
 0003:0000052c       ?__LINE__Var@?1??ciThink@@9@9@8c082ad1 1004052c     chatMain.obj
 0003:00000530       ?__LINE__Var@?1??ciProcessServerMessage@@9@9@8c082ad1 10040530     chatMain.obj
 0003:00000534       ?__LINE__Var@?1??chatRetryWithNick@@9@9 10040534     chatMain.obj
 0003:00000538       ?__LINE__Var@?1??chatDisconnect@@9@9 10040538     chatMain.obj
 0003:0000053c       ?__LINE__Var@?1??chatSendRaw@@9@9 1004053c     chatMain.obj
 0003:00000540       ?__LINE__Var@?1??chatChangeNick@@9@9 10040540     chatMain.obj
 0003:00000544       ?__LINE__Var@?1??chatGetNick@@9@9 10040544     chatMain.obj
 0003:00000548       ?__LINE__Var@?1??chatFixNick@@9@9 10040548     chatMain.obj
 0003:0000054c       ?__LINE__Var@?1??chatSetQuietMode@@9@9 1004054c     chatMain.obj
 0003:00000550       ?__LINE__Var@?1??chatEnumChannels@@9@9 10040550     chatMain.obj
 0003:00000554       ?__LINE__Var@?1??chatEnterChannel@@9@9 10040554     chatMain.obj
 0003:00000558       ?__LINE__Var@?1??chatLeaveChannel@@9@9 10040558     chatMain.obj
 0003:0000055c       ?__LINE__Var@?1??chatSendChannelMessage@@9@9 1004055c     chatMain.obj
 0003:00000560       ?__LINE__Var@?1??chatSetChannelTopic@@9@9 10040560     chatMain.obj
 0003:00000564       ?__LINE__Var@?1??chatGetChannelTopic@@9@9 10040564     chatMain.obj
 0003:00000568       ?__LINE__Var@?1??chatSetChannelMode@@9@9 10040568     chatMain.obj
 0003:0000056c       ?__LINE__Var@?1??chatGetChannelMode@@9@9 1004056c     chatMain.obj
 0003:00000570       ?__LINE__Var@?1??chatSetChannelPassword@@9@9 10040570     chatMain.obj
 0003:00000574       ?__LINE__Var@?1??chatGetChannelPassword@@9@9 10040574     chatMain.obj
 0003:00000578       ?__LINE__Var@?1??chatEnumChannelBans@@9@9 10040578     chatMain.obj
 0003:0000057c       ?__LINE__Var@?1??chatAddChannelBan@@9@9 1004057c     chatMain.obj
 0003:00000580       ?__LINE__Var@?1??chatRemoveChannelBan@@9@9 10040580     chatMain.obj
 0003:00000584       ?__LINE__Var@?1??chatSetChannelGroup@@9@9 10040584     chatMain.obj
 0003:00000588       ?__LINE__Var@?1??chatGetChannelNumUsers@@9@9 10040588     chatMain.obj
 0003:0000058c       ?__LINE__Var@?1??ciEnumUsersCallback@@9@9 1004058c     chatMain.obj
 0003:00000590       ?__LINE__Var@?1??chatEnumUsers@@9@9 10040590     chatMain.obj
 0003:00000594       ?__LINE__Var@?1??chatSendUserMessage@@9@9 10040594     chatMain.obj
 0003:00000598       ?__LINE__Var@?1??chatGetUserInfo@@9@9 10040598     chatMain.obj
 0003:0000059c       ?__LINE__Var@?1??chatGetBasicUserInfo@@9@9 1004059c     chatMain.obj
 0003:000005a0       ?__LINE__Var@?1??chatGetBasicUserInfoNoWait@@9@9 100405a0     chatMain.obj
 0003:000005a4       ?__LINE__Var@?1??chatGetChannelBasicUserInfo@@9@9 100405a4     chatMain.obj
 0003:000005a8       ?__LINE__Var@?1??chatInviteUser@@9@9 100405a8     chatMain.obj
 0003:000005ac       ?__LINE__Var@?1??chatKickUser@@9@9 100405ac     chatMain.obj
 0003:000005b0       ?__LINE__Var@?1??chatBanUser@@9@9 100405b0     chatMain.obj
 0003:000005b4       ?__LINE__Var@?1??chatSetUserMode@@9@9 100405b4     chatMain.obj
 0003:000005b8       ?__LINE__Var@?1??chatGetUserMode@@9@9 100405b8     chatMain.obj
 0003:000005bc       ?__LINE__Var@?1??chatGetUserModeNoWait@@9@9 100405bc     chatMain.obj
 0003:000005c0       ?__LINE__Var@?1??chatSetGlobalKeys@@9@9 100405c0     chatMain.obj
 0003:000005c4       ?__LINE__Var@?1??chatGetGlobalKeys@@9@9 100405c4     chatMain.obj
 0003:000005c8       ?__LINE__Var@?1??ciSendGetKey@@9@9@8c082ad1 100405c8     chatMain.obj
 0003:000005cc       ?__LINE__Var@?1??chatSetChannelKeys@@9@9 100405cc     chatMain.obj
 0003:000005d0       ?__LINE__Var@?1??chatGetChannelKeys@@9@9 100405d0     chatMain.obj
 0003:000005d4       ?__LINE__Var@?1??ciSendGetChannelKey@@9@9@8c082ad1 100405d4     chatMain.obj
 0003:000005d8       ?__LINE__Var@?1??ciSocketInit@@9@9 100405d8     chatSocket.obj
 0003:000005dc       ?__LINE__Var@?1??ciBufferInit@@9@9@992d16d5 100405dc     chatSocket.obj
 0003:000005e0       ?__LINE__Var@?1??ciSocketConnect@@9@9 100405e0     chatSocket.obj
 0003:000005e4       ?__LINE__Var@?1??ciSocketDisconnect@@9@9 100405e4     chatSocket.obj
 0003:000005e8       ?__LINE__Var@?1??ciSocketThink@@9@9 100405e8     chatSocket.obj
 0003:000005ec       ?__LINE__Var@?1??ciSocketThinkSend@@9@9@992d16d5 100405ec     chatSocket.obj
 0003:000005f0       ?__LINE__Var@?1??ciBufferClipFront@@9@9@992d16d5 100405f0     chatSocket.obj
 0003:000005f4       ?__LINE__Var@?1??ciSocketSelect@@9@9@992d16d5 100405f4     chatSocket.obj
 0003:000005f8       ?__LINE__Var@?1??ciSocketThinkRecv@@9@9@992d16d5 100405f8     chatSocket.obj
 0003:000005fc       ?__LINE__Var@?1??ciBufferPreAppend@@9@9@992d16d5 100405fc     chatSocket.obj
 0003:00000600       ?__LINE__Var@?1??ciSocketSend@@9@9 10040600     chatSocket.obj
 0003:00000604       ?__LINE__Var@?1??ciSocketSendf@@9@9 10040604     chatSocket.obj
 0003:00000608       ?__LINE__Var@?1??ciParseParam@@9@9 10040608     chatSocket.obj
 0003:0000060c       ?__LINE__Var@?1??ciSocketRecv@@9@9 1004060c     chatSocket.obj
 0003:00000610       ?__LINE__Var@?1??ciParseMessage@@9@9@992d16d5 10040610     chatSocket.obj
 0003:00000614       ?__LINE__Var@?1??ciParseUser@@9@9@992d16d5 10040614     chatSocket.obj
 0003:00000618       ?__LINE__Var@?1??ArrayNew@@9@9 10040618     darray.obj
 0003:0000061c       ?__LINE__Var@?1??ArrayFree@@9@9 1004061c     darray.obj
 0003:00000620       ?__LINE__Var@?1??ArrayNth@@9@9 10040620     darray.obj
 0003:00000624       ?__LINE__Var@?1??ArrayInsertAt@@9@9 10040624     darray.obj
 0003:00000628       ?__LINE__Var@?1??ArrayGrow@@9@9@49629eff 10040628     darray.obj
 0003:0000062c       ?__LINE__Var@?1??ArrayInsertSorted@@9@9 1004062c     darray.obj
 0003:00000630       ?__LINE__Var@?1??ArrayRemoveAt@@9@9 10040630     darray.obj
 0003:00000634       ?__LINE__Var@?1??ArrayDeleteAt@@9@9 10040634     darray.obj
 0003:00000638       ?__LINE__Var@?1??ArrayReplaceAt@@9@9 10040638     darray.obj
 0003:0000063c       ?__LINE__Var@?1??ArrayMap@@9@9 1004063c     darray.obj
 0003:00000640       ?__LINE__Var@?1??ArrayMapBackwards@@9@9 10040640     darray.obj
 0003:00000644       ?__LINE__Var@?1??ArrayMap2@@9@9 10040644     darray.obj
 0003:00000648       ?__LINE__Var@?1??TableNew2@@9@9 10040648     hashtable.obj
 0003:0000064c       ?__LINE__Var@?1??TableFree@@9@9 1004064c     hashtable.obj
 0003:00000650       ?__LINE__Var@?1??TableMap@@9@9 10040650     hashtable.obj
 0003:00000654       ?__LINE__Var@?1??TableMapSafe@@9@9 10040654     hashtable.obj
 0003:00000658       ?__LINE__Var@?1??TableMap2@@9@9 10040658     hashtable.obj
 0003:000006b0       __NLG_Destination          100406b0     LIBCMT:exsup.obj
 0003:000006f4       ?_RTC_ErrorLevels@@3PAHA   100406f4     LIBCMT:error.obj
 0003:00000718       __aexit_rtn                10040718     LIBCMT:dllcrt0.obj
 0003:0000072c       ___nullstring              1004072c     LIBCMT:output.obj
 0003:00000730       ___wnullstring             10040730     LIBCMT:output.obj
 0003:00000734       ___tlsindex                10040734     LIBCMT:tidtable.obj
 0003:0000073c       ___security_cookie         1004073c     LIBCMT:seccook.obj
 0003:00000740       ?__pInconsistency@@3P6AXXZA 10040740     LIBCMT:hooks.obj
 0003:00000758       ___initiallocinfo          10040758     LIBCMT:setlocal.obj
 0003:000007ac       ___ptlocinfo               100407ac     LIBCMT:setlocal.obj
 0003:000008e8       ___lc_category             100408e8     LIBCMT:setlocal.obj
 0003:00000930       __iob                      10040930     LIBCMT:_file.obj
 0003:00000d18       __amblksiz                 10040d18     LIBCMT:heapinit.obj
 0003:00000e48       __timezone                 10040e48     LIBCMT:timeset.obj
 0003:00000e4c       __daylight                 10040e4c     LIBCMT:timeset.obj
 0003:00000e50       __dstbias                  10040e50     LIBCMT:timeset.obj
 0003:00000ed8       __tzname                   10040ed8     LIBCMT:timeset.obj
 0003:00000f00       ___badioinfo               10040f00     LIBCMT:ioinit.obj
 0003:00000f28       __XcptActTab               10040f28     LIBCMT:winxfltr.obj
 0003:00000fa0       __First_FPE_Indx           10040fa0     LIBCMT:winxfltr.obj
 0003:00000fa4       __Num_FPE                  10040fa4     LIBCMT:winxfltr.obj
 0003:00000fa8       __XcptActTabSize           10040fa8     LIBCMT:winxfltr.obj
 0003:00000fac       __XcptActTabCount          10040fac     LIBCMT:winxfltr.obj
 0003:00001048       __cfltcvt_tab              10041048     LIBCMT:cmiscdat.obj
 0003:00001060       __pctype                   10041060     LIBCMT:ctype.obj
 0003:00001064       __pwctype                  10041064     LIBCMT:ctype.obj
 0003:00001168       ___lc_time_curr            10041168     LIBCMT:strftime.obj
 0003:00001170       ___lc_time_c               10041170     LIBCMT:strftime.obj
 0003:00001228       ___lconv_static_decimal    10041228     LIBCMT:lconv.obj
 0003:0000122c       ___lconv_c                 1004122c     LIBCMT:lconv.obj
 0003:0000125c       ___lconv                   1004125c     LIBCMT:lconv.obj
 0003:00001260       ___lc_clike                10041260     LIBCMT:nlsdata2.obj
 0003:00001270       ___mb_cur_max              10041270     LIBCMT:nlsdata1.obj
 0003:00001274       ___decimal_point           10041274     LIBCMT:nlsdata1.obj
 0003:00001278       ___decimal_point_length    10041278     LIBCMT:nlsdata1.obj
 0003:0000127c       __lpdays                   1004127c     LIBCMT:days.obj
 0003:000012b0       __days                     100412b0     LIBCMT:days.obj
 0003:00001300       ?PREVSEND@@3HA             10041300     cs_chat.obj
 0003:00001304       ?NSS@@3HA                  10041304     cs_chat.obj
 0003:00001308       ?LastPID@@3HA              10041308     GSC_ChatWindow.obj
 0003:0000130c       ?CUBM@@3PAVCustomBorder@@A 1004130c     GSC_ChatWindow.obj
 0003:00001310       ?CUBC@@3PAVCustomBorder@@A 10041310     GSC_ChatWindow.obj
 0003:00001314       ?LastState@@3EA            10041314     GSC_ChatWindow.obj
 0003:00001318       ?NCHATS@@3PAHA             10041318     GSC_ChatWindow.obj
 0003:00001324       ?MAXCHATS@@3PAHA           10041324     GSC_ChatWindow.obj
 0003:00001330       ?ChatMess@@3PAPAPADA       10041330     GSC_ChatWindow.obj
 0003:0000133c       ?ChatSender@@3PAPAPADA     1004133c     GSC_ChatWindow.obj
 0003:00001348       ?CM_Vis@@3_NA              10041348     GSC_ChatWindow.obj
 0003:00001349       ?CC_Vis@@3_NA              10041349     GSC_ChatWindow.obj
 0003:0000134a       ?RCOLOR@@3EA               1004134a     GSC_ChatWindow.obj
 0003:0000134c       ?LoadGP@@3HA               1004134c     GSC_ChatWindow.obj
 0003:00001350       ?LoadBlur@@3HA             10041350     GSC_ChatWindow.obj
 0003:00001354       ?GRIF@@3PAURoomInfo@@A     10041354     GSC_ChatWindow.obj
 0003:00001358       ?NeedSmallSize@@3_NA       10041358     GSC_ChatWindow.obj
 0003:00001359       ?NeedBigSize@@3_NA         10041359     GSC_ChatWindow.obj
 0003:0000135a       ?LockResize@@3_NA          1004135a     GSC_ChatWindow.obj
 0003:0000135b       ?RunHomePageAnyway@@3_NA   1004135b     GSC_ChatWindow.obj
 0003:0000135c       ?WasHere@@3_NA             1004135c     GSC_ChatWindow.obj
 0003:00001360       ?GameVersion@@3HA          10041360     GSC_ChatWindow.obj
 0003:00001364       ?InRoom@@3_NA              10041364     GSC_ChatWindow.obj
 0003:00001368       ?LastSVS_Time@@3HA         10041368     GSC_ChatWindow.obj
 0003:00001370       ?CSYS@@3VChatSystem@@A     10041370     GSC_ChatWindow.obj
 0003:00001728       ?NMCASH@@3VCNamesCash@@A   10041728     GSC_ChatWindow.obj
 0003:0000296c       __aenvptr                  1004296c     LIBCMT:dllcrt0.obj
 0003:00002970       __wenvptr                  10042970     LIBCMT:dllcrt0.obj
 0003:00002974       ___error_mode              10042974     LIBCMT:dllcrt0.obj
 0003:00002978       ___app_type                10042978     LIBCMT:dllcrt0.obj
 0003:00002980       _gpFlsAlloc                10042980     LIBCMT:tidtable.obj
 0003:00002984       _gpFlsGetValue             10042984     LIBCMT:tidtable.obj
 0003:00002988       _gpFlsSetValue             10042988     LIBCMT:tidtable.obj
 0003:0000298c       _gpFlsFree                 1004298c     LIBCMT:tidtable.obj
 0003:0000299c       __cflush                   1004299c     LIBCMT:_file.obj
 0003:000029a0       __stdbuf                   100429a0     LIBCMT:_sftbuf.obj
 0003:000029a8       __umaskval                 100429a8     LIBCMT:crt0dat.obj
 0003:000029ac       __osplatform               100429ac     LIBCMT:crt0dat.obj
 0003:000029b0       __osver                    100429b0     LIBCMT:crt0dat.obj
 0003:000029b4       __winver                   100429b4     LIBCMT:crt0dat.obj
 0003:000029b8       __winmajor                 100429b8     LIBCMT:crt0dat.obj
 0003:000029bc       __winminor                 100429bc     LIBCMT:crt0dat.obj
 0003:000029c0       ___argc                    100429c0     LIBCMT:crt0dat.obj
 0003:000029c4       ___argv                    100429c4     LIBCMT:crt0dat.obj
 0003:000029c8       ___wargv                   100429c8     LIBCMT:crt0dat.obj
 0003:000029cc       __environ                  100429cc     LIBCMT:crt0dat.obj
 0003:000029d0       ___initenv                 100429d0     LIBCMT:crt0dat.obj
 0003:000029d4       __wenviron                 100429d4     LIBCMT:crt0dat.obj
 0003:000029d8       ___winitenv                100429d8     LIBCMT:crt0dat.obj
 0003:000029dc       __pgmptr                   100429dc     LIBCMT:crt0dat.obj
 0003:000029e0       __wpgmptr                  100429e0     LIBCMT:crt0dat.obj
 0003:000029e4       __exitflag                 100429e4     LIBCMT:crt0dat.obj
 0003:000029e8       __C_Termination_Done       100429e8     LIBCMT:crt0dat.obj
 0003:000029ec       __C_Exit_Done              100429ec     LIBCMT:crt0dat.obj
 0003:00002b68       ?_pnhHeap@@3P6AHI@ZA       10042b68     LIBCMT:handler.obj
 0003:00002b6c       __newmode                  10042b6c     LIBCMT:_newmode.obj
 0003:00002db4       __adbgmsg                  10042db4     LIBCMT:crt0msg.obj
 0003:00002e14       ___lconv_static_null       10042e14     LIBCMT:lconv.obj
 0003:00002e18       ___lc_time_intl            10042e18     LIBCMT:inittime.obj
 0003:00002e1c       ___lconv_intl              10042e1c     LIBCMT:initmon.obj
 0003:00002e44       ___lc_handle               10042e44     LIBCMT:nlsdata2.obj
 0003:00002e5c       ___lc_codepage             10042e5c     LIBCMT:nlsdata2.obj
 0003:00002e60       ___lc_collate_cp           10042e60     LIBCMT:nlsdata2.obj
 0003:00002e64       ___lc_id                   10042e64     LIBCMT:nlsdata3.obj
 0003:00002e88       __commode                  10042e88     LIBCMT:ncommode.obj
 0003:00002e9c       __fmode                    10042e9c     LIBCMT:txtmode.obj
 0003:00002eac       ___ctype1                  10042eac     <common>
 0003:00002eb0       ___ctype1_refcount         10042eb0     <common>
 0003:00002eb4       ___lconv_mon_refcount      10042eb4     <common>
 0003:00002eb8       ___lconv_intl_refcount     10042eb8     <common>
 0003:00002ebc       ___lconv_num_refcount      10042ebc     <common>
 0003:00002ec0       ___mblcid                  10042ec0     <common>
 0003:00002ec4       ___ptmbcinfo               10042ec4     <common>
 0003:00002ec8       ___ismbcodepage            10042ec8     <common>
 0003:00002ee0       __mbctype                  10042ee0     <common>
 0003:00002fe4       ___mbcodepage              10042fe4     <common>
 0003:00002ff0       ___mbulinfo                10042ff0     <common>
 0003:00003000       __mbcasemap                10043000     <common>
 0003:00003100       __nhandle                  10043100     <common>
 0003:00003120       ___pioinfo                 10043120     <common>
 0003:00003220       ___sbh_initialized         10043220     <common>
 0003:00003224       ___sbh_pHeaderDefer        10043224     <common>
 0003:00003228       ___sbh_cntHeaderList       10043228     <common>
 0003:0000322c       ___sbh_pHeaderList         1004322c     <common>
 0003:00003230       ___sbh_threshold           10043230     <common>
 0003:00003234       ___sbh_pHeaderScan         10043234     <common>
 0003:00003238       ___sbh_sizeHeaderList      10043238     <common>
 0003:0000323c       ___sbh_indGroupDefer       1004323c     <common>
 0003:00003240       __crtheap                  10043240     <common>
 0003:00003244       ___active_heap             10043244     <common>
 0003:00003248       ___env_initialized         10043248     <common>
 0003:0000324c       ___onexitend               1004324c     <common>
 0003:00003250       ___onexitbegin             10043250     <common>
 0003:00003254       ___mbctype_initialized     10043254     <common>
 0003:00003258       __FPinit                   10043258     <common>
 0003:0000325c       ___piob                    1004325c     <common>
 0003:00003260       __bufin                    10043260     <common>
 0003:00004260       __nstream                  10044260     <common>
 0003:00004264       ___setlc_active            10044264     <common>
 0003:00004268       ___unguarded_readlc_active 10044268     <common>
 0003:0000426c       __acmdln                   1004426c     <common>
 0003:00004270       __pRawDllMain              10044270     <common>

 entry point at        0001:0002a43e

 Static symbols

 0001:0000ba23       __catch$?Extract@ParsedRQ@@QAEXPADH@Z$0 1000ca23 f   ParseRQ.obj
 0001:0000c270       _ciCallbacksArrayElementFreeFn 1000d270 f   chatCallbacks.obj
 0001:0000c490       _ciFreeCallbackData        1000d490 f   chatCallbacks.obj
 0001:00010c40       _ciGetCallbackIndexByID    10011c40 f   chatCallbacks.obj
 0001:00010e90       _ciChannelTableHashFn      10011e90 f   chatChannel.obj
 0001:00010f20       _ciHashString              10011f20 f   chatChannel.obj
 0001:00011000       _ciChannelTableCompareFn   10012000 f   chatChannel.obj
 0001:00011160       _ciChannelTableElementFreeFn 10012160 f   chatChannel.obj
 0001:00011710       _ciUserTableHashFn         10012710 f   chatChannel.obj
 0001:000117a0       _ciUserTableCompareFn      100127a0 f   chatChannel.obj
 0001:000118c0       _ciUserTableElementFreeFn  100128c0 f   chatChannel.obj
 0001:00011bb0       _ciGetChannel              10012bb0 f   chatChannel.obj
 0001:00011e00       _ciChannelListUsersMap     10012e00 f   chatChannel.obj
 0001:000130b0       _ciUserEnumChannelsMap     100140b0 f   chatChannel.obj
 0001:000133c0       _ciUserChangeNickMap       100143c0 f   chatChannel.obj
 0001:00013ca0       _ciEnumJoinedChannelsMap   10014ca0 f   chatChannel.obj
 0001:00013f00       _ciSetUserBasicInfoMap     10014f00 f   chatChannel.obj
 0001:000141b0       _ciGetUserBasicInfoMap     100151b0 f   chatChannel.obj
 0001:00014350       _ciClearAllUsersChannelMap 10015350 f   chatChannel.obj
 0001:000144a0       _ciClearAllUsersUsersMap   100154a0 f   chatChannel.obj
 0001:000145f0       _ciFilterTimedout          100155f0 f   chatHandlers.obj
 0001:00014c20       _ciRemoveFilter            10015c20 f   chatHandlers.obj
 0001:00014d30       _ciDestroyFilter           10015d30 f   chatHandlers.obj
 0001:00014dc0       _ciFinishFilter            10015dc0 f   chatHandlers.obj
 0001:000157b0       _ciAddFilter               100167b0 f   chatHandlers.obj
 0001:00017570       _ciFindFilter              10018570 f   chatHandlers.obj
 0001:00019d30       _ciParseValue              1001ad30 f   chatHandlers.obj
 0001:0001ced0       _ciThink                   1001ded0 f   chatMain.obj
 0001:0001d020       _ciProcessServerMessage    1001e020 f   chatMain.obj
 0001:0001d730       _ciCheckForID              1001e730 f   chatMain.obj
 0001:0001da10       _ciSetQuietModeEnumJoinedChannels 1001ea10 f   chatMain.obj
 0001:00020760       _ciRandomCookie            10021760 f   chatMain.obj
 0001:000207e0       _ciSendGetKey              100217e0 f   chatMain.obj
 0001:00020da0       _ciSendGetChannelKey       10021da0 f   chatMain.obj
 0001:00021280       _ciBufferInit              10022280 f   chatSocket.obj
 0001:00021320       _ciBufferFree              10022320 f   chatSocket.obj
 0001:00021d70       _ciSocketThinkSend         10022d70 f   chatSocket.obj
 0001:000220c0       _ciBufferClipFront         100230c0 f   chatSocket.obj
 0001:00022240       _ciSocketSelect            10023240 f   chatSocket.obj
 0001:000224f0       _ciSocketThinkRecv         100234f0 f   chatSocket.obj
 0001:00022850       _ciBufferPreAppend         10023850 f   chatSocket.obj
 0001:000231f0       _ciAddParam                100241f0 f   chatSocket.obj
 0001:00023530       _ciParseInput              10024530 f   chatSocket.obj
 0001:00023880       _ciParseMessage            10024880 f   chatSocket.obj
 0001:00023e90       _ciParseUser               10024e90 f   chatSocket.obj
 0001:00024270       _FreeElement               10025270 f   darray.obj
 0001:000244b0       _ArrayGrow                 100254b0 f   darray.obj
 0001:00024540       _SetElement                10025540 f   darray.obj
 0001:00024c30       _mylsearch                 10025c30 f   darray.obj
 0001:00024cb0       _mybsearch                 10025cb0 f   darray.obj
 0001:00025720       _MD5Transform              10026720 f   md5c.obj
 0001:000265c0       _Encode                    100275c0 f   md5c.obj
 0001:00026680       _Decode                    10027680 f   md5c.obj
 0001:00026710       _MD5_memcpy                10027710 f   md5c.obj
 0001:00026760       _MD5_memset                10027760 f   md5c.obj
 0001:00026e10       _GenerateID                10027e10 f   nonport.obj
 0001:00026f40       _Util_RandSeed             10027f40 f   nonport.obj
 0001:00026fa0       _Util_RandInt              10027fa0 f   nonport.obj
 0001:00026ff0       _longrand                  10027ff0 f   nonport.obj
 0001:00027040       _nextlongrand              10028040 f   nonport.obj
 0001:000279e0       _$$$00001                  100289e0 f   LIBCMT:strchr.obj
 0001:00027c26       ?CatchGuardHandler@@YA?AW4_EXCEPTION_DISPOSITION@@PAUEHExceptionRecord@@PAUCatchGuardRN@@PAX2@Z 10028c26 f   LIBCMT:trnsctrl.obj
 0001:00027d28       ?TranslatorGuardHandler@@YA?AW4_EXCEPTION_DISPOSITION@@PAUEHExceptionRecord@@PAUTranslatorGuardRN@@PAX2@Z 10028d28 f   LIBCMT:trnsctrl.obj
 0001:00027f44       $$$00001                   10028f44 f   LIBCMT:exsup.obj
 0001:00027f64       $$$00003                   10028f64 f   LIBCMT:exsup.obj
 0001:00027f64       __unwind_handler           10028f64 f   LIBCMT:exsup.obj
 0001:00027f86       $$$00005                   10028f86 f   LIBCMT:exsup.obj
 0001:00027fee       $$$00007                   10028fee f   LIBCMT:exsup.obj
 0001:00028032       ?ArrayUnwindFilter@@YAHPAU_EXCEPTION_POINTERS@@@Z 10029032 f   LIBCMT:ehvecdtr.obj
 0001:00028032       $$$00011                   10029032 f   LIBCMT:exsup.obj
 0001:00028aab       __onexit_lk                10029aab f   LIBCMT:onexit.obj
 0001:000293a4       ?DebuggerProbe@@YAHK@Z     1002a3a4 f   LIBCMT:error.obj
 0001:000293f1       ?DebuggerRuntime@@YAHKHPAXPB_W@Z 1002a3f1 f   LIBCMT:error.obj
 0001:00029450       ?IntToString@@YAPADH@Z     1002a450 f   LIBCMT:error.obj
 0001:0002948a       ?GetCurrentTib@@YAPAU_TIB@@XZ 1002a48a f   LIBCMT:error.obj
 0001:00029491       ?WinGetDebugContext@@YAPAXXZ 1002a491 f   LIBCMT:error.obj
 0001:0002949b       ?Win95IsDebuggerPresent@@YGHXZ 1002a49b f   LIBCMT:error.obj
 0001:000294ac       ?Initialize@@YAHXZ         1002a4ac f   LIBCMT:error.obj
 0001:00029514       ?_IsDebuggerPresent@@YAHXZ 1002a514 f   LIBCMT:error.obj
 0001:00029544       ?failwithmessage@@YAXPAXHHPBD@Z 1002a544 f   LIBCMT:error.obj
 0001:00029f30       _swap                      1002af30 f   LIBCMT:qsort.obj
 0001:00029f50       _shortsort                 1002af50 f   LIBCMT:qsort.obj
 0001:0002a6dc       _write_char                1002b6dc f   LIBCMT:output.obj
 0001:0002a70f       _write_multi_char          1002b70f f   LIBCMT:output.obj
 0001:0002a733       _write_string              1002b733 f   LIBCMT:output.obj
 0001:0002a76a       _get_int_arg               1002b76a f   LIBCMT:output.obj
 0001:0002a773       _get_int64_arg             1002b773 f   LIBCMT:output.obj
 0001:0002a77f       _get_short_arg             1002b77f f   LIBCMT:output.obj
 0001:0002b3f5       $$$00003                   1002c3f5 f   LIBCMT:exsup3.obj
 0001:0002b3f5       ?TypeMatch@@YAHPBU_s_HandlerType@@PBU_s_CatchableType@@PBU_s_ThrowInfo@@@Z 1002c3f5 f   LIBCMT:frame.obj
 0001:0002b444       ?FrameUnwindFilter@@YAHPAU_EXCEPTION_POINTERS@@@Z 1002c444 f   LIBCMT:frame.obj
 0001:0002b530       ?ExFilterRethrow@@YAHPAU_EXCEPTION_POINTERS@@@Z 1002c530 f   LIBCMT:frame.obj
 0001:0002b5a5       ?AdjustPointer@@YAPAXPAXABUPMD@@@Z 1002c5a5 f   LIBCMT:frame.obj
 0001:0002b7b9       ?CallCatchBlock@@YAPAXPAUEHExceptionRecord@@PAUEHRegistrationNode@@PAU_CONTEXT@@PBU_s_FuncInfo@@PAXHK@Z 1002c7b9 f   LIBCMT:frame.obj
 0001:0002b97d       ?BuildCatchObject@@YAXPAUEHExceptionRecord@@PAXPBU_s_HandlerType@@PBU_s_CatchableType@@@Z 1002c97d f   LIBCMT:frame.obj
 0001:0002bc1e       ?CatchIt@@YAXPAUEHExceptionRecord@@PAUEHRegistrationNode@@PAU_CONTEXT@@PAXPBU_s_FuncInfo@@PBU_s_HandlerType@@PBU_s_CatchableType@@PBU_s_TryBlockMapEntry@@H1E@Z 1002cc1e f   LIBCMT:frame.obj
 0001:0002bc85       ?FindHandlerForForeignException@@YAXPAUEHExceptionRecord@@PAUEHRegistrationNode@@PAU_CONTEXT@@PAXPBU_s_FuncInfo@@HH1@Z 1002cc85 f   LIBCMT:frame.obj
 0001:0002bd43       ?FindHandler@@YAXPAUEHExceptionRecord@@PAUEHRegistrationNode@@PAU_CONTEXT@@PAXPBU_s_FuncInfo@@EH1@Z 1002cd43 f   LIBCMT:frame.obj
 0001:0002c236       ___updatetlocinfo_lk       1002d236 f   LIBCMT:setlocal.obj
 0001:0002c483       __setlocale_get_all        1002d483 f   LIBCMT:setlocal.obj
 0001:0002c69e       __setlocale_set_cat        1002d69e f   LIBCMT:setlocal.obj
 0001:0002c92d       __setlocale_lk             1002d92d f   LIBCMT:setlocal.obj
 0001:0002ce68       _flsall                    1002de68 f   LIBCMT:fflush.obj
 0001:0002d685       __hextodec                 1002e685 f   LIBCMT:input.obj
 0001:0002d69d       __inc                      1002e69d f   LIBCMT:input.obj
 0001:0002d6b3       __un_inc                   1002e6b3 f   LIBCMT:input.obj
 0001:0002d6c0       __whiteout                 1002e6c0 f   LIBCMT:input.obj
 0001:0002e54d       __initterm                 1002f54d f   LIBCMT:crt0dat.obj
 0001:0002e565       __initterm_e               1002f565 f   LIBCMT:crt0dat.obj
 0001:0002e5ed       _doexit                    1002f5ed f   LIBCMT:crt0dat.obj
 0001:0002fa63       _ctrlevent_capture@4       10030a63 f   LIBCMT:winsig.obj
 0001:0002faf2       _siglookup                 10030af2 f   LIBCMT:winsig.obj
 0001:0002ff45       _xtoa                      10030f45 f   LIBCMT:xtoa.obj
 0001:0002ffee       _x64toa@20                 10030fee f   LIBCMT:xtoa.obj
 0001:000301e5       _report_failure            100311e5 f   LIBCMT:secchk.obj
 0001:00030269       _strncnt                   10031269 f   LIBCMT:a_map.obj
 0001:0003069e       ?GetImageInfo@@YAPAUImageInfo@@K@Z 1003169e f   LIBCMT:pdblkup.obj
 0001:000309ef       ?GetPdbDll@@YAPAUHINSTANCE__@@XZ 100319ef f   LIBCMT:pdblkup.obj
 0001:00030e76       __tzset_lk                 10031e76 f   LIBCMT:tzset.obj
 0001:0003111e       _cvtdate                   1003211e f   LIBCMT:tzset.obj
 0001:000312d6       __isindst_lk               100322d6 f   LIBCMT:tzset.obj
 0001:00031a64       _parse_cmdline             10032a64 f   LIBCMT:stdargv.obj
 0001:00031e1c       _xcptlookup                10032e1c f   LIBCMT:winxfltr.obj
 0001:00032465       _getSystemCP               10033465 f   LIBCMT:mbctype.obj
 0001:000324ab       _CPtoLCID                  100334ab f   LIBCMT:mbctype.obj
 0001:000324da       _setSBCS                   100334da f   LIBCMT:mbctype.obj
 0001:00032503       _setSBUpLow                10033503 f   LIBCMT:mbctype.obj
 0001:000326fe       __setmbcp_lk               100336fe f   LIBCMT:mbctype.obj
 0001:000331f4       __store_str                100341f4 f   LIBCMT:strftime.obj
 0001:00033214       __store_number             10034214 f   LIBCMT:strftime.obj
 0001:0003324a       __store_num                1003424a f   LIBCMT:strftime.obj
 0001:000332c3       __expandtime               100342c3 f   LIBCMT:strftime.obj
 0001:00033529       __store_winword            10034529 f   LIBCMT:strftime.obj
 0001:00033acb       __get_lc_time              10034acb f   LIBCMT:inittime.obj
 0001:00034021       _fix_grouping              10035021 f   LIBCMT:initnum.obj
 0001:00034280       _fix_grouping              10035280 f   LIBCMT:initmon.obj
 0001:00034856       _TranslateName             10035856 f   LIBCMT:getqloc.obj
 0001:000348b6       _GetLcidFromDefault        100358b6 f   LIBCMT:getqloc.obj
 0001:000348d0       _ProcessCodePage           100358d0 f   LIBCMT:getqloc.obj
 0001:00034946       _TestDefaultCountry        10035946 f   LIBCMT:getqloc.obj
 0001:00034964       _crtGetLocaleInfoA@16      10035964 f   LIBCMT:getqloc.obj
 0001:00034a47       _LcidFromHexString         10035a47 f   LIBCMT:getqloc.obj
 0001:00034a7c       _GetPrimaryLen             10035a7c f   LIBCMT:getqloc.obj
 0001:00034a99       _CountryEnumProc@4         10035a99 f   LIBCMT:getqloc.obj
 0001:00034b2d       _TestDefaultLanguage       10035b2d f   LIBCMT:getqloc.obj
 0001:00034b9e       _LangCountryEnumProc@4     10035b9e f   LIBCMT:getqloc.obj
 0001:00034db8       _LanguageEnumProc@4        10035db8 f   LIBCMT:getqloc.obj
 0001:00034e83       _GetLcidFromCountry        10035e83 f   LIBCMT:getqloc.obj
 0001:00034eba       _GetLcidFromLangCountry    10035eba f   LIBCMT:getqloc.obj
 0001:00034f40       _GetLcidFromLanguage       10035f40 f   LIBCMT:getqloc.obj
 0001:00035929       __tsopen_lk                10036929 f   LIBCMT:open.obj
 0001:00035cba       ___crtInitCritSecNoSpinCount@8 10036cba f   LIBCMT:initcrit.obj
 0001:00037024       _strncnt                   10038024 f   LIBCMT:a_cmp.obj
 0001:000373c4       _findenv                   100383c4 f   LIBCMT:setenv.obj
 0001:00037411       _copy_environ              10038411 f   LIBCMT:setenv.obj
 0001:00037950       __unwindfunclet$??0ChatSystem@@QAE@XZ$0 10038950 f   cs_chat.obj
 0001:0003795e       __ehhandler$??0ChatSystem@@QAE@XZ 1003895e f   cs_chat.obj
 0001:00037970       __unwindfunclet$??1ChatSystem@@QAE@XZ$0 10038970 f   cs_chat.obj
 0001:0003797e       __unwindfunclet$??1ChatSystem@@QAE@XZ$1 1003897e f   cs_chat.obj
 0001:00037996       __ehhandler$??1ChatSystem@@QAE@XZ 10038996 f   cs_chat.obj
 0001:000379a0       __unwindfunclet$?EnterPersonalMessage@@YAXPAD_N@Z$0 100389a0 f   GSC_ChatWindow.obj
 0001:000379b5       __unwindfunclet$?EnterPersonalMessage@@YAXPAD_N@Z$1 100389b5 f   GSC_ChatWindow.obj
 0001:000379ca       __unwindfunclet$?EnterPersonalMessage@@YAXPAD_N@Z$2 100389ca f   GSC_ChatWindow.obj
 0001:000379df       __ehhandler$?EnterPersonalMessage@@YAXPAD_N@Z 100389df f   GSC_ChatWindow.obj
 0001:000379f0       __unwindfunclet$?Process_GSC_ChatWindow@@YAH_NPAURoomInfo@@@Z$0 100389f0 f   GSC_ChatWindow.obj
 0001:000379f8       __unwindfunclet$?Process_GSC_ChatWindow@@YAH_NPAURoomInfo@@@Z$1 100389f8 f   GSC_ChatWindow.obj
 0001:00037a0d       __unwindfunclet$?Process_GSC_ChatWindow@@YAH_NPAURoomInfo@@@Z$2 10038a0d f   GSC_ChatWindow.obj
 0001:00037a22       __unwindfunclet$?Process_GSC_ChatWindow@@YAH_NPAURoomInfo@@@Z$3 10038a22 f   GSC_ChatWindow.obj
 0001:00037a37       __unwindfunclet$?Process_GSC_ChatWindow@@YAH_NPAURoomInfo@@@Z$4 10038a37 f   GSC_ChatWindow.obj
 0001:00037a4c       __unwindfunclet$?Process_GSC_ChatWindow@@YAH_NPAURoomInfo@@@Z$5 10038a4c f   GSC_ChatWindow.obj
 0001:00037a61       __unwindfunclet$?Process_GSC_ChatWindow@@YAH_NPAURoomInfo@@@Z$6 10038a61 f   GSC_ChatWindow.obj
 0001:00037a76       __unwindfunclet$?Process_GSC_ChatWindow@@YAH_NPAURoomInfo@@@Z$7 10038a76 f   GSC_ChatWindow.obj
 0001:00037a8b       __unwindfunclet$?Process_GSC_ChatWindow@@YAH_NPAURoomInfo@@@Z$8 10038a8b f   GSC_ChatWindow.obj
 0001:00037aa0       __unwindfunclet$?Process_GSC_ChatWindow@@YAH_NPAURoomInfo@@@Z$9 10038aa0 f   GSC_ChatWindow.obj
 0001:00037ab5       __unwindfunclet$?Process_GSC_ChatWindow@@YAH_NPAURoomInfo@@@Z$10 10038ab5 f   GSC_ChatWindow.obj
 0001:00037aca       __unwindfunclet$?Process_GSC_ChatWindow@@YAH_NPAURoomInfo@@@Z$11 10038aca f   GSC_ChatWindow.obj
 0001:00037adf       __unwindfunclet$?Process_GSC_ChatWindow@@YAH_NPAURoomInfo@@@Z$12 10038adf f   GSC_ChatWindow.obj
 0001:00037af4       __ehhandler$?Process_GSC_ChatWindow@@YAH_NPAURoomInfo@@@Z 10038af4 f   GSC_ChatWindow.obj
 0001:00037b00       __unwindfunclet$?StartGSCGame@@YAXPAD0HPAHPAPAD11@Z$0 10038b00 f   GSC_ChatWindow.obj
 0001:00037b0b       __ehhandler$?StartGSCGame@@YAXPAD0HPAHPAPAD11@Z 10038b0b f   GSC_ChatWindow.obj
 0001:00037b20       __unwindfunclet$?ReportGSCGame@@YAXHHPAUOnePlayerReport@@@Z$0 10038b20 f   GSC_ChatWindow.obj
 0001:00037b28       __ehhandler$?ReportGSCGame@@YAXHHPAUOnePlayerReport@@@Z 10038b28 f   GSC_ChatWindow.obj
 0001:00037b40       __unwindfunclet$?ReportAliveState@@YAXHPAH@Z$0 10038b40 f   GSC_ChatWindow.obj
 0001:00037b48       __ehhandler$?ReportAliveState@@YAXHPAH@Z 10038b48 f   GSC_ChatWindow.obj
 0001:00037b60       __unwindfunclet$?SendVictoryState@@YAXHE@Z$0 10038b60 f   GSC_ChatWindow.obj
 0001:00037b68       __ehhandler$?SendVictoryState@@YAXHE@Z 10038b68 f   GSC_ChatWindow.obj
 0001:00037b80       __ehhandler$?Extract@ParsedRQ@@QAEXPADH@Z 10038b80 f   ParseRQ.obj
 0001:00037b90       _$E1                       10038b90 f   GSC_ChatWindow.obj
 0001:00037be0       _$E4                       10038be0 f   GSC_ChatWindow.obj
 0001:00037c30       _$E2                       10038c30 f   GSC_ChatWindow.obj
 0001:00037c70       _$E5                       10038c70 f   GSC_ChatWindow.obj
